00001                   !                       DR_INIT3
00002                   !			********
00003                   !
00004                   !********************************************************************
00005                   !	INITIALISATIE						    *
00006                   !********************************************************************
00007                   !
00008 00000 31 00003    	LSTIO	0003
00009 00001 09 00015.0    SET1  PLCC1 !eerste PLC_cyclus hoog_signaal
00010 00002 25 00008    	JSAT	L00008
00011 00003 26          	RET
00012                   !
00013                   !********************************************************************
00014                   ! SUBROUTINES EN I/O_SLAGEN           *
00015                   !********************************************************************
00016                   !
00017 00004 31 00199    L00004	LSTIO	0199
00018 00005 27 00104    	END	DWS1_1	!eenheid DWS
00019                   
00020 00006 31 01099    L00006	LSTIO	1099
00021 00007 27 01000    	END	1000
00022                   !
00023                   !********************************************************************
00024                   !	BEGIN HOOFDPROGRAMMA					    *
00025                   !********************************************************************
00026                   !
00027 00008 16 00000.1  L00008	AND	000.1
00028 00009 25 00004    	JSAT	L00004
00029 00010 25 00006    	JSAT	L00006
00030 00011 00          	NOP
00031                   !
00032                   !********************************************************************
00033                   !	MAKEN VAN TRIGGERPULSEN T.B.V. TIMERS			    *
00034                   !********************************************************************
00035                   !
00036 00012 16 00001.0  	AND	001.0	!0.1 sec. puls
00037 00013 01 00510.0  	TRIG	510.0
00038 00014 02 00511.0  	EQL	S_0,1SEC	!triggerpuls 0,1 sec.
00039                   
00040 00015 16 00001.1  	AND	KNIPPER
00041 00016 01 00510.1  	TRIG	510.1
00042 00017 02 00511.1  	EQL	S_1SEC	!triggerpuls 1,0 sec.
00043                   
00044 00018 16 00001.2  	AND	001.2	!10 sec. puls
00045 00019 01 00510.2  	TRIG	510.2
00046 00020 02 00511.2  	EQL	S_10SEC	!triggerpuls 10 sec.
00047                   
00048 00021 16 00001.3  	AND	001.3	!1 min. puls
00049 00022 01 00510.3  	TRIG	510.3
00050 00023 02 00511.3  	EQL	S_1MIN	!triggerpuls 1 min.
00051 00024 12 00000    	FTCHC	00
00052 00025 14 00320    	STRD	0320
00053 00026 14 00321    	STRD	0321
00054 00027 14 00322    	STRD	0322
00055 00028 14 00323    	STRD	0323
00056 00029 14 00324    	STRD	0324
00057 00030 14 00325    	STRD	0325
00058 00031 14 00326    	STRD	0326
00059 00032 14 00327    	STRD	0327
00060 00033 14 00328    	STRD	0328
00061 00034 14 00329    	STRD	0329
00062 00035 14 00330    	STRD	0330
00063 00036 14 00331    	STRD	0331
00064 00037 14 00332    	STRD	0332
00065 00038 14 00333    	STRD	0333
00066                   
00067 00039 17 00000.1  	ANDNT	000.1
00068 00040 02 00147.0    EQL V13_1__2
00069 00041 02 00147.1  	EQL	147.1
00070 00042 02 00147.2  	EQL	147.2
00071 00043 00          	NOP	57
00071 00044 00 
00071 00045 00 
00071 00046 00 
00071 00047 00 
00071 00048 00 
00071 00049 00 
00071 00050 00 
00071 00051 00 
00071 00052 00 
00071 00053 00 
00071 00054 00 
00071 00055 00 
00071 00056 00 
00071 00057 00 
00071 00058 00 
00071 00059 00 
00071 00060 00 
00071 00061 00 
00071 00062 00 
00071 00063 00 
00071 00064 00 
00071 00065 00 
00071 00066 00 
00071 00067 00 
00071 00068 00 
00071 00069 00 
00071 00070 00 
00071 00071 00 
00071 00072 00 
00071 00073 00 
00071 00074 00 
00071 00075 00 
00071 00076 00 
00071 00077 00 
00071 00078 00 
00071 00079 00 
00071 00080 00 
00071 00081 00 
00071 00082 00 
00071 00083 00 
00071 00084 00 
00071 00085 00 
00071 00086 00 
00071 00087 00 
00071 00088 00 
00071 00089 00 
00071 00090 00 
00071 00091 00 
00071 00092 00 
00071 00093 00 
00071 00094 00 
00071 00095 00 
00071 00096 00 
00071 00097 00 
00071 00098 00 
00071 00099 00 
00072 00100 16 00000.1  	AND	000.1
00073 00101 12 00000    	FTCHC	00
00074 00102 14 01500    	STRD	1500	!constante 0
00075                   
00076 00103 16 00000.1  	AND	000.1
00077 00104 12 00001    	FTCHC	01
00078 00105 14 01501    	STRD	1501	!constante 1
00079                   
00080 00106 16 00000.1  	AND	000.1
00081 00107 12 00002    	FTCHC	02
00082 00108 14 01502    	STRD	1502	!constante 2
00083                   
00084 00109 16 00000.1  	AND	000.1
00085 00110 12 00003    	FTCHC	03
00086 00111 14 01503    	STRD	1503	!constante 3
00087                   
00088 00112 16 00000.1  	AND	000.1
00089 00113 12 00004    	FTCHC	04
00090 00114 14 01504    	STRD	1504	!constante 4
00091                   
00092 00115 16 00000.1  	AND	000.1
00093 00116 12 00005    	FTCHC	05
00094 00117 14 01505    	STRD	1505	!constante 5
00095                   
00096 00118 16 00000.1  	AND	000.1
00097 00119 12 00006    	FTCHC	06
00098 00120 14 01506    	STRD	1506	!constante 6
00099                   
00100 00121 16 00000.1  	AND	000.1
00101 00122 12 00007    	FTCHC	07
00102 00123 14 01507    	STRD	1507	!constante 7
00103                   
00104 00124 16 00000.1  	AND	000.1
00105 00125 12 00008    	FTCHC	08
00106 00126 14 01508    	STRD	1508	!constante 8
00107                   
00108 00127 16 00000.1  	AND	000.1
00109 00128 12 00009    	FTCHC	09
00110 00129 14 01509    	STRD	1509	!constante 9
00111                   
00112 00130 16 00114.2    AND 114.2 !ENTER_drukknop
00113 00131 01 00003.2  	TRIG	003.2
00114 00132 02 00003.3  	EQL	ENTER	!triggerpuls enterdrukkn.
00115                   
00116 00133 16 00000.1  	AND	000.1
00117 00134 13 00104    	FTCHD	DWS1_1	!eenheid DWS
00118 00135 13 00105    	FTCHD	DWS1_2	!tiental DWS
00119 00136 15 01500    	COMP	1500	!constante 0
00120 00137 15 01500    	COMP	1500	!constante 0
00121 00138 10 00003.1  	STRB	RESULT	!F=C
00122                   
00123 00139 16 00003.1  	AND	RESULT	!F=C
00124 00140 30 00013    	JFRF	L00153
00125                   
00126 00141 16 00003.1  	AND	RESULT	!F=C
00127 00142 16 00003.3  	AND	ENTER	!triggerpuls enterdrukkn.
00128 00143 13 00106    	FTCHD	SETP_0	!ingevoerde setpoint eenheden
00129 00144 13 00107    	FTCHD	SETP_1	!ingevoerde setpoint tientallen
00130 00145 13 00108    	FTCHD	SETP_2	!ingevoerde setpoint honderdtallen
00131 00146 13 00109    	FTCHD	SETP_3	!ingevoerde setpoint duizendtallen
00132 00147 14 02000    	STRD	STP00_0	!setpoint 00 eenheden
00133 00148 14 02001    	STRD	STP00_1	!setpoint 00 tientallen
00134 00149 14 02002    	STRD	STP00_2	!setpoint 00 honderdtallen
00135 00150 14 02003    	STRD	STP00_3	!setpoint 00 duizendtallen
00136                   
00137 00151 17 00000.1  	ANDNT	000.1
00138 00152 00          	NOP	1
00139                   
00140 00153 16 00000.1  L00153	AND	000.1
00141 00154 13 00104    	FTCHD	DWS1_1	!eenheid DWS
00142 00155 13 00105    	FTCHD	DWS1_2	!tiental DWS
00143 00156 15 01501    	COMP	1501	!constante 1
00144 00157 15 01500    	COMP	1500	!constante 0
00145 00158 10 00003.1  	STRB	RESULT	!F=C
00146                   
00147 00159 16 00003.1  	AND	RESULT	!F=C
00148 00160 30 00013    	JFRF	L00173
00149                   
00150 00161 16 00003.1  	AND	RESULT	!F=C
00151 00162 16 00003.3  	AND	ENTER	!triggerpuls enterdrukkn.
00152 00163 13 00106    	FTCHD	SETP_0	!ingevoerde setpoint eenheden
00153 00164 13 00107    	FTCHD	SETP_1	!ingevoerde setpoint tientallen
00154 00165 13 00108    	FTCHD	SETP_2	!ingevoerde setpoint honderdtallen
00155 00166 13 00109    	FTCHD	SETP_3	!ingevoerde setpoint duizendtallen
00156 00167 14 02004    	STRD	STP01_0	!setpoint 01 eenheden
00157 00168 14 02005    	STRD	STP01_1	!setpoint 01 tientallen
00158 00169 14 02006    	STRD	STP01_2	!setpoint 01 honderdtallen
00159 00170 14 02007    	STRD	STP01_3	!setpoint 01 duizendtallen
00160                   
00161 00171 17 00000.1  	ANDNT	000.1
00162 00172 00          	NOP	1
00163                   
00164 00173 16 00000.1  L00173	AND	000.1
00165 00174 13 00104    	FTCHD	DWS1_1	!eenheid DWS
00166 00175 13 00105    	FTCHD	DWS1_2	!tiental DWS
00167 00176 15 01502    	COMP	1502	!constante 2
00168 00177 15 01500    	COMP	1500	!constante 0
00169 00178 10 00003.1  	STRB	RESULT	!F=C
00170                   
00171 00179 16 00003.1  	AND	RESULT	!F=C
00172 00180 30 00013    	JFRF	L00193
00173                   
00174 00181 16 00003.1  	AND	RESULT	!F=C
00175 00182 16 00003.3  	AND	ENTER	!triggerpuls enterdrukkn.
00176 00183 13 00106    	FTCHD	SETP_0	!ingevoerde setpoint eenheden
00177 00184 13 00107    	FTCHD	SETP_1	!ingevoerde setpoint tientallen
00178 00185 13 00108    	FTCHD	SETP_2	!ingevoerde setpoint honderdtallen
00179 00186 13 00109    	FTCHD	SETP_3	!ingevoerde setpoint duizendtallen
00180 00187 14 02008    	STRD	STP02_0	!setpoint 02 eenheden
00181 00188 14 02009    	STRD	STP02_1	!setpoint 02 tientallen
00182 00189 14 02010    	STRD	STP02_2	!setpoint 02 honderdtallen
00183 00190 14 02011    	STRD	STP02_3	!setpoint 02 duizendtallen
00184                   
00185 00191 17 00000.1  	ANDNT	000.1
00186 00192 00          	NOP	1
00187                   
00188 00193 16 00000.1  L00193	AND	000.1
00189 00194 13 00104    	FTCHD	DWS1_1	!eenheid DWS
00190 00195 13 00105    	FTCHD	DWS1_2	!tiental DWS
00191 00196 15 01503    	COMP	1503	!constante 3
00192 00197 15 01500    	COMP	1500	!constante 0
00193 00198 10 00003.1  	STRB	RESULT	!F=C
00194                   
00195 00199 16 00003.1  	AND	RESULT	!F=C
00196 00200 30 00013    	JFRF	L00213
00197                   
00198 00201 16 00003.1  	AND	RESULT	!F=C
00199 00202 16 00003.3  	AND	ENTER	!triggerpuls enterdrukkn.
00200 00203 13 00106    	FTCHD	SETP_0	!ingevoerde setpoint eenheden
00201 00204 13 00107    	FTCHD	SETP_1	!ingevoerde setpoint tientallen
00202 00205 13 00108    	FTCHD	SETP_2	!ingevoerde setpoint honderdtallen
00203 00206 13 00109    	FTCHD	SETP_3	!ingevoerde setpoint duizendtallen
00204 00207 14 02012    	STRD	STP03_0	!setpoint 03 eenheden
00205 00208 14 02013    	STRD	STP03_1	!setpoint 03 tientallen
00206 00209 14 02014    	STRD	STP03_2	!setpoint 03 honderdtallen
00207 00210 14 02015    	STRD	STP03_3	!setpoint 03 duizendtallen
00208                   
00209 00211 17 00000.1  	ANDNT	000.1
00210 00212 00          	NOP	1
00211                   
00212 00213 16 00000.1  L00213	AND	000.1
00213 00214 13 00104    	FTCHD	DWS1_1	!eenheid DWS
00214 00215 13 00105    	FTCHD	DWS1_2	!tiental DWS
00215 00216 15 01504    	COMP	1504	!constante 4
00216 00217 15 01500    	COMP	1500	!constante 0
00217 00218 10 00003.1  	STRB	RESULT	!F=C
00218                   
00219 00219 16 00003.1  	AND	RESULT	!F=C
00220 00220 30 00013    	JFRF	L00233
00221                   
00222 00221 16 00003.1  	AND	RESULT	!F=C
00223 00222 16 00003.3  	AND	ENTER	!triggerpuls enterdrukkn.
00224 00223 13 00106    	FTCHD	SETP_0	!ingevoerde setpoint eenheden
00225 00224 13 00107    	FTCHD	SETP_1	!ingevoerde setpoint tientallen
00226 00225 13 00108    	FTCHD	SETP_2	!ingevoerde setpoint honderdtallen
00227 00226 13 00109    	FTCHD	SETP_3	!ingevoerde setpoint duizendtallen
00228 00227 14 02016    	STRD	STP04_0	!setpoint 04 eenheden
00229 00228 14 02017    	STRD	STP04_1	!setpoint 04 tientallen
00230 00229 14 02018    	STRD	STP04_2	!setpoint 04 honderdtallen
00231 00230 14 02019    	STRD	STP04_3	!setpoint 04 duizendtallen
00232                   
00233 00231 17 00000.1  	ANDNT	000.1
00234 00232 00          	NOP	1
00235                   
00236 00233 16 00000.1  L00233	AND	000.1
00237 00234 13 00104    	FTCHD	DWS1_1	!eenheid DWS
00238 00235 13 00105    	FTCHD	DWS1_2	!tiental DWS
00239 00236 15 01505    	COMP	1505	!constante 5
00240 00237 15 01500    	COMP	1500	!constante 0
00241 00238 10 00003.1  	STRB	RESULT	!F=C
00242                   
00243 00239 16 00003.1  	AND	RESULT	!F=C
00244 00240 30 00013    	JFRF	L00253
00245                   
00246 00241 16 00003.1  	AND	RESULT	!F=C
00247 00242 16 00003.3  	AND	ENTER	!triggerpuls enterdrukkn.
00248 00243 13 00106    	FTCHD	SETP_0	!ingevoerde setpoint eenheden
00249 00244 13 00107    	FTCHD	SETP_1	!ingevoerde setpoint tientallen
00250 00245 13 00108    	FTCHD	SETP_2	!ingevoerde setpoint honderdtallen
00251 00246 13 00109    	FTCHD	SETP_3	!ingevoerde setpoint duizendtallen
00252 00247 14 02020    	STRD	STP05_0	!setpoint 05 eenheden
00253 00248 14 02021    	STRD	STP05_1	!setpoint 05 tientallen
00254 00249 14 02022    	STRD	STP05_2	!setpoint 05 honderdtallen
00255 00250 14 02023    	STRD	STP05_3	!setpoint 05 duizendtallen
00256                   
00257 00251 17 00000.1  	ANDNT	000.1
00258 00252 00          	NOP	1
00259                   
00260 00253 16 00000.1  L00253	AND	000.1
00261 00254 13 00104    	FTCHD	DWS1_1	!eenheid DWS
00262 00255 13 00105    	FTCHD	DWS1_2	!tiental DWS
00263 00256 15 01506    	COMP	1506	!constante 6
00264 00257 15 01500    	COMP	1500	!constante 0
00265 00258 10 00003.1  	STRB	RESULT	!F=C
00266                   
00267 00259 16 00003.1  	AND	RESULT	!F=C
00268 00260 30 00013    	JFRF	L00273
00269                   
00270 00261 16 00003.1  	AND	RESULT	!F=C
00271 00262 16 00003.3  	AND	ENTER	!triggerpuls enterdrukkn.
00272 00263 13 00106    	FTCHD	SETP_0	!ingevoerde setpoint eenheden
00273 00264 13 00107    	FTCHD	SETP_1	!ingevoerde setpoint tientallen
00274 00265 13 00108    	FTCHD	SETP_2	!ingevoerde setpoint honderdtallen
00275 00266 13 00109    	FTCHD	SETP_3	!ingevoerde setpoint duizendtallen
00276 00267 14 02024    	STRD	STP06_0	!setpoint 06 eenheden
00277 00268 14 02025    	STRD	STP06_1	!setpoint 06 tientallen
00278 00269 14 02026    	STRD	STP06_2	!setpoint 06 honderdtallen
00279 00270 14 02027    	STRD	STP06_3	!setpoint 06 duizendtallen
00280                   
00281 00271 17 00000.1  	ANDNT	000.1
00282 00272 00          	NOP	1
00283                   
00284 00273 16 00000.1  L00273	AND	000.1
00285 00274 13 00104    	FTCHD	DWS1_1	!eenheid DWS
00286 00275 13 00105    	FTCHD	DWS1_2	!tiental DWS
00287 00276 15 01507    	COMP	1507	!constante 7
00288 00277 15 01500    	COMP	1500	!constante 0
00289 00278 10 00003.1  	STRB	RESULT	!F=C
00290                   
00291 00279 16 00003.1  	AND	RESULT	!F=C
00292 00280 30 00013    	JFRF	L00293
00293                   
00294 00281 16 00003.1  	AND	RESULT	!F=C
00295 00282 16 00003.3  	AND	ENTER	!triggerpuls enterdrukkn.
00296 00283 13 00106    	FTCHD	SETP_0	!ingevoerde setpoint eenheden
00297 00284 13 00107    	FTCHD	SETP_1	!ingevoerde setpoint tientallen
00298 00285 13 00108    	FTCHD	SETP_2	!ingevoerde setpoint honderdtallen
00299 00286 13 00109    	FTCHD	SETP_3	!ingevoerde setpoint duizendtallen
00300 00287 14 02028    	STRD	STP07_0	!setpoint 07 eenheden
00301 00288 14 02029    	STRD	STP07_1	!setpoint 07 tientallen
00302 00289 14 02030    	STRD	STP07_2	!setpoint 07 honderdtallen
00303 00290 14 02031    	STRD	STP07_3	!setpoint 07 duizendtallen
00304                   
00305 00291 17 00000.1  	ANDNT	000.1
00306 00292 00          	NOP	1
00307                   
00308 00293 16 00000.1  L00293	AND	000.1
00309 00294 13 00104    	FTCHD	DWS1_1	!eenheid DWS
00310 00295 13 00105    	FTCHD	DWS1_2	!tiental DWS
00311 00296 15 01508    	COMP	1508	!constante 8
00312 00297 15 01500    	COMP	1500	!constante 0
00313 00298 10 00003.1  	STRB	RESULT	!F=C
00314                   
00315 00299 16 00003.1  	AND	RESULT	!F=C
00316 00300 30 00013    	JFRF	L00313
00317                   
00318 00301 16 00003.1  	AND	RESULT	!F=C
00319 00302 16 00003.3  	AND	ENTER	!triggerpuls enterdrukkn.
00320 00303 13 00106    	FTCHD	SETP_0	!ingevoerde setpoint eenheden
00321 00304 13 00107    	FTCHD	SETP_1	!ingevoerde setpoint tientallen
00322 00305 13 00108    	FTCHD	SETP_2	!ingevoerde setpoint honderdtallen
00323 00306 13 00109    	FTCHD	SETP_3	!ingevoerde setpoint duizendtallen
00324 00307 14 02032    	STRD	STP08_0	!setpoint 08 eenheden
00325 00308 14 02033    	STRD	STP08_1	!setpoint 08 tientallen
00326 00309 14 02034    	STRD	STP08_2	!setpoint 08 honderdtallen
00327 00310 14 02035    	STRD	STP08_3	!setpoint 08 duizendtallen
00328                   
00329 00311 17 00000.1  	ANDNT	000.1
00330 00312 00          	NOP	1
00331                   
00332 00313 16 00000.1  L00313	AND	000.1
00333 00314 13 00104    	FTCHD	DWS1_1	!eenheid DWS
00334 00315 13 00105    	FTCHD	DWS1_2	!tiental DWS
00335 00316 15 01509    	COMP	1509	!constante 9
00336 00317 15 01500    	COMP	1500	!constante 0
00337 00318 10 00003.1  	STRB	RESULT	!F=C
00338                   
00339 00319 16 00003.1  	AND	RESULT	!F=C
00340 00320 30 00013    	JFRF	L00333
00341                   
00342 00321 16 00003.1  	AND	RESULT	!F=C
00343 00322 16 00003.3  	AND	ENTER	!triggerpuls enterdrukkn.
00344 00323 13 00106    	FTCHD	SETP_0	!ingevoerde setpoint eenheden
00345 00324 13 00107    	FTCHD	SETP_1	!ingevoerde setpoint tientallen
00346 00325 13 00108    	FTCHD	SETP_2	!ingevoerde setpoint honderdtallen
00347 00326 13 00109    	FTCHD	SETP_3	!ingevoerde setpoint duizendtallen
00348 00327 14 02036    	STRD	STP09_0	!setpoint 09 eenheden
00349 00328 14 02037    	STRD	STP09_1	!setpoint 09 tientallen
00350 00329 14 02038    	STRD	STP09_2	!setpoint 09 honderdtallen
00351 00330 14 02039    	STRD	STP09_3	!setpoint 09 duizendtallen
00352                   
00353 00331 17 00000.1  	ANDNT	000.1
00354 00332 00          	NOP	1
00355                   
00356 00333 16 00000.1  L00333	AND	000.1
00357 00334 13 00104    	FTCHD	DWS1_1	!eenheid DWS
00358 00335 13 00105    	FTCHD	DWS1_2	!tiental DWS
00359 00336 15 01500    	COMP	1500	!constante 0
00360 00337 15 01501    	COMP	1501	!constante 1
00361 00338 10 00003.1  	STRB	RESULT	!F=C
00362                   
00363 00339 16 00003.1  	AND	RESULT	!F=C
00364 00340 30 00013    	JFRF	L00353
00365                   
00366 00341 16 00003.1  	AND	RESULT	!F=C
00367 00342 16 00003.3  	AND	ENTER	!triggerpuls enterdrukkn.
00368 00343 13 00106    	FTCHD	SETP_0	!ingevoerde setpoint eenheden
00369 00344 13 00107    	FTCHD	SETP_1	!ingevoerde setpoint tientallen
00370 00345 13 00108    	FTCHD	SETP_2	!ingevoerde setpoint honderdtallen
00371 00346 13 00109    	FTCHD	SETP_3	!ingevoerde setpoint duizendtallen
00372 00347 14 02040    	STRD	STP10_0	!setpoint 10 eenheden
00373 00348 14 02041    	STRD	STP10_1	!setpoint 10 tientallen
00374 00349 14 02042    	STRD	STP10_2	!setpoint 10 honderdtallen
00375 00350 14 02043    	STRD	STP10_3	!setpoint 10 duizendtallen
00376                   
00377 00351 17 00000.1  	ANDNT	000.1
00378 00352 00          	NOP	1
00379                   
00380 00353 16 00000.1  L00353	AND	000.1
00381 00354 13 00104    	FTCHD	DWS1_1	!eenheid DWS
00382 00355 13 00105    	FTCHD	DWS1_2	!tiental DWS
00383 00356 15 01501    	COMP	1501	!constante 1
00384 00357 15 01501    	COMP	1501	!constante 1
00385 00358 10 00003.1  	STRB	RESULT	!F=C
00386                   
00387 00359 16 00003.1  	AND	RESULT	!F=C
00388 00360 30 00013    	JFRF	L00373
00389                   
00390 00361 16 00003.1  	AND	RESULT	!F=C
00391 00362 16 00003.3  	AND	ENTER	!triggerpuls enterdrukkn.
00392 00363 13 00106    	FTCHD	SETP_0	!ingevoerde setpoint eenheden
00393 00364 13 00107    	FTCHD	SETP_1	!ingevoerde setpoint tientallen
00394 00365 13 00108    	FTCHD	SETP_2	!ingevoerde setpoint honderdtallen
00395 00366 13 00109    	FTCHD	SETP_3	!ingevoerde setpoint duizendtallen
00396 00367 14 02044    	STRD	STP11_0	!setpoint 11 eenheden
00397 00368 14 02045    	STRD	STP11_1	!setpoint 11 tientallen
00398 00369 14 02046    	STRD	STP11_2	!setpoint 11 honderdtallen
00399 00370 14 02047    	STRD	STP11_3	!setpoint 11 duizendtallen
00400                   
00401 00371 17 00000.1  	ANDNT	000.1
00402 00372 00          	NOP	1
00403                   
00404 00373 16 00000.1  L00373	AND	000.1
00405 00374 13 00104    	FTCHD	DWS1_1	!eenheid DWS
00406 00375 13 00105    	FTCHD	DWS1_2	!tiental DWS
00407 00376 15 01502    	COMP	1502	!constante 2
00408 00377 15 01501    	COMP	1501	!constante 1
00409 00378 10 00003.1  	STRB	RESULT	!F=C
00410                   
00411 00379 16 00003.1  	AND	RESULT	!F=C
00412 00380 30 00013    	JFRF	L00393
00413                   
00414 00381 16 00003.1  	AND	RESULT	!F=C
00415 00382 16 00003.3  	AND	ENTER	!triggerpuls enterdrukkn.
00416 00383 13 00106    	FTCHD	SETP_0	!ingevoerde setpoint eenheden
00417 00384 13 00107    	FTCHD	SETP_1	!ingevoerde setpoint tientallen
00418 00385 13 00108    	FTCHD	SETP_2	!ingevoerde setpoint honderdtallen
00419 00386 13 00109    	FTCHD	SETP_3	!ingevoerde setpoint duizendtallen
00420 00387 14 02048    	STRD	STP12_0	!setpoint 12 eenheden
00421 00388 14 02049    	STRD	STP12_1	!setpoint 12 tientallen
00422 00389 14 02050    	STRD	STP12_2	!setpoint 12 honderdtallen
00423 00390 14 02051    	STRD	STP12_3	!setpoint 12 duizendtallen
00424                   
00425 00391 17 00000.1  	ANDNT	000.1
00426 00392 00          	NOP	1
00427                   
00428 00393 16 00000.1  L00393	AND	000.1
00429 00394 13 00104    	FTCHD	DWS1_1	!eenheid DWS
00430 00395 13 00105    	FTCHD	DWS1_2	!tiental DWS
00431 00396 15 01503    	COMP	1503	!constante 3
00432 00397 15 01501    	COMP	1501	!constante 1
00433 00398 10 00003.1  	STRB	RESULT	!F=C
00434                   
00435 00399 16 00003.1  	AND	RESULT	!F=C
00436 00400 30 00013    	JFRF	L00413
00437                   
00438 00401 16 00003.1  	AND	RESULT	!F=C
00439 00402 16 00003.3  	AND	ENTER	!triggerpuls enterdrukkn.
00440 00403 13 00106    	FTCHD	SETP_0	!ingevoerde setpoint eenheden
00441 00404 13 00107    	FTCHD	SETP_1	!ingevoerde setpoint tientallen
00442 00405 13 00108    	FTCHD	SETP_2	!ingevoerde setpoint honderdtallen
00443 00406 13 00109    	FTCHD	SETP_3	!ingevoerde setpoint duizendtallen
00444 00407 14 02052    	STRD	STP13_0	!setpoint 13 eenheden
00445 00408 14 02053    	STRD	STP13_1	!setpoint 13 tientallen
00446 00409 14 02054    	STRD	STP13_2	!setpoint 13 honderdtallen
00447 00410 14 02055    	STRD	STP13_3	!setpoint 13 duizendtallen
00448                   
00449 00411 17 00000.1  	ANDNT	000.1
00450 00412 00          	NOP	1
00451                   
00452 00413 16 00000.1  L00413	AND	000.1
00453 00414 13 00104    	FTCHD	DWS1_1	!eenheid DWS
00454 00415 13 00105    	FTCHD	DWS1_2	!tiental DWS
00455 00416 15 01504    	COMP	1504	!constante 4
00456 00417 15 01501    	COMP	1501	!constante 1
00457 00418 10 00003.1  	STRB	RESULT	!F=C
00458                   
00459 00419 16 00003.1  	AND	RESULT	!F=C
00460 00420 30 00013    	JFRF	L00433
00461                   
00462 00421 16 00003.1  	AND	RESULT	!F=C
00463 00422 16 00003.3  	AND	ENTER	!triggerpuls enterdrukkn.
00464 00423 13 00106    	FTCHD	SETP_0	!ingevoerde setpoint eenheden
00465 00424 13 00107    	FTCHD	SETP_1	!ingevoerde setpoint tientallen
00466 00425 13 00108    	FTCHD	SETP_2	!ingevoerde setpoint honderdtallen
00467 00426 13 00109    	FTCHD	SETP_3	!ingevoerde setpoint duizendtallen
00468 00427 14 02056    	STRD	STP14_0	!setpoint 14 eenheden
00469 00428 14 02057    	STRD	STP14_1	!setpoint 14 tientallen
00470 00429 14 02058    	STRD	STP14_2	!setpoint 14 honderdtallen
00471 00430 14 02059    	STRD	STP14_3	!setpoint 14 duizendtallen
00472                   
00473 00431 17 00000.1  	ANDNT	000.1
00474 00432 00          	NOP	1
00475                   
00476 00433 16 00000.1  L00433	AND	000.1
00477 00434 13 00104    	FTCHD	DWS1_1	!eenheid DWS
00478 00435 13 00105    	FTCHD	DWS1_2	!tiental DWS
00479 00436 15 01505    	COMP	1505	!constante 5
00480 00437 15 01501    	COMP	1501	!constante 1
00481 00438 10 00003.1  	STRB	RESULT	!F=C
00482                   
00483 00439 16 00003.1  	AND	RESULT	!F=C
00484 00440 30 00013    	JFRF	L00453
00485                   
00486 00441 16 00003.1  	AND	RESULT	!F=C
00487 00442 16 00003.3  	AND	ENTER	!triggerpuls enterdrukkn.
00488 00443 13 00106    	FTCHD	SETP_0	!ingevoerde setpoint eenheden
00489 00444 13 00107    	FTCHD	SETP_1	!ingevoerde setpoint tientallen
00490 00445 13 00108    	FTCHD	SETP_2	!ingevoerde setpoint honderdtallen
00491 00446 13 00109    	FTCHD	SETP_3	!ingevoerde setpoint duizendtallen
00492 00447 14 02060    	STRD	STP15_0	!setpoint 15 eenheden
00493 00448 14 02061    	STRD	STP15_1	!setpoint 15 tientallen
00494 00449 14 02062    	STRD	STP15_2	!setpoint 15 honderdtallen
00495 00450 14 02063    	STRD	STP15_3	!setpoint 15 duizendtallen
00496                   
00497 00451 17 00000.1  	ANDNT	000.1
00498 00452 00          	NOP	1
00499                   
00500 00453 16 00000.1  L00453	AND	000.1
00501 00454 13 00104    	FTCHD	DWS1_1	!eenheid DWS
00502 00455 13 00105    	FTCHD	DWS1_2	!tiental DWS
00503 00456 15 01506    	COMP	1506	!constante 6
00504 00457 15 01501    	COMP	1501	!constante 1
00505 00458 10 00003.1  	STRB	RESULT	!F=C
00506                   
00507 00459 16 00003.1  	AND	RESULT	!F=C
00508 00460 30 00013    	JFRF	L00473
00509                   
00510 00461 16 00003.1  	AND	RESULT	!F=C
00511 00462 16 00003.3  	AND	ENTER	!triggerpuls enterdrukkn.
00512 00463 13 00106    	FTCHD	SETP_0	!ingevoerde setpoint eenheden
00513 00464 13 00107    	FTCHD	SETP_1	!ingevoerde setpoint tientallen
00514 00465 13 00108    	FTCHD	SETP_2	!ingevoerde setpoint honderdtallen
00515 00466 13 00109    	FTCHD	SETP_3	!ingevoerde setpoint duizendtallen
00516 00467 14 02064    	STRD	STP16_0	!setpoint 16 eenheden
00517 00468 14 02065    	STRD	STP16_1	!setpoint 16 tientallen
00518 00469 14 02066    	STRD	STP16_2	!setpoint 16 honderdtallen
00519 00470 14 02067    	STRD	STP16_3	!setpoint 16 duizendtallen
00520                   
00521 00471 17 00000.1  	ANDNT	000.1
00522 00472 00          	NOP	1
00523                   
00524 00473 16 00000.1  L00473	AND	000.1
00525 00474 13 00104    	FTCHD	DWS1_1	!eenheid DWS
00526 00475 13 00105    	FTCHD	DWS1_2	!tiental DWS
00527 00476 15 01507    	COMP	1507	!constante 7
00528 00477 15 01501    	COMP	1501	!constante 1
00529 00478 10 00003.1  	STRB	RESULT	!F=C
00530                   
00531 00479 16 00003.1  	AND	RESULT	!F=C
00532 00480 30 00013    	JFRF	L00493
00533                   
00534 00481 16 00003.1  	AND	RESULT	!F=C
00535 00482 16 00003.3  	AND	ENTER	!triggerpuls enterdrukkn.
00536 00483 13 00106    	FTCHD	SETP_0	!ingevoerde setpoint eenheden
00537 00484 13 00107    	FTCHD	SETP_1	!ingevoerde setpoint tientallen
00538 00485 13 00108    	FTCHD	SETP_2	!ingevoerde setpoint honderdtallen
00539 00486 13 00109    	FTCHD	SETP_3	!ingevoerde setpoint duizendtallen
00540 00487 14 02068    	STRD	STP17_0	!setpoint 17 eenheden
00541 00488 14 02069    	STRD	STP17_1	!setpoint 17 tientallen
00542 00489 14 02070    	STRD	STP17_2	!setpoint 17 honderdtallen
00543 00490 14 02071    	STRD	STP17_3	!setpoint 17 duizendtallen
00544                   
00545 00491 17 00000.1  	ANDNT	000.1
00546 00492 00          	NOP	1
00547                   
00548 00493 16 00000.1  L00493	AND	000.1
00549 00494 13 00104    	FTCHD	DWS1_1	!eenheid DWS
00550 00495 13 00105    	FTCHD	DWS1_2	!tiental DWS
00551 00496 15 01508    	COMP	1508	!constante 8
00552 00497 15 01501    	COMP	1501	!constante 1
00553 00498 10 00003.1  	STRB	RESULT	!F=C
00554                   
00555 00499 16 00003.1  	AND	RESULT	!F=C
00556 00500 30 00013    	JFRF	L00513
00557                   
00558 00501 16 00003.1  	AND	RESULT	!F=C
00559 00502 16 00003.3  	AND	ENTER	!triggerpuls enterdrukkn.
00560 00503 13 00106    	FTCHD	SETP_0	!ingevoerde setpoint eenheden
00561 00504 13 00107    	FTCHD	SETP_1	!ingevoerde setpoint tientallen
00562 00505 13 00108    	FTCHD	SETP_2	!ingevoerde setpoint honderdtallen
00563 00506 13 00109    	FTCHD	SETP_3	!ingevoerde setpoint duizendtallen
00564 00507 14 02072    	STRD	STP18_0	!setpoint 18 eenheden
00565 00508 14 02073    	STRD	STP18_1	!setpoint 18 tientallen
00566 00509 14 02074    	STRD	STP18_2	!setpoint 18 honderdtallen
00567 00510 14 02075    	STRD	STP18_3	!setpoint 18 duizendtallen
00568                   
00569 00511 17 00000.1  	ANDNT	000.1
00570 00512 00          	NOP	1
00571                   
00572 00513 16 00000.1  L00513	AND	000.1
00573 00514 13 00104    	FTCHD	DWS1_1	!eenheid DWS
00574 00515 13 00105    	FTCHD	DWS1_2	!tiental DWS
00575 00516 15 01509    	COMP	1509	!constante 9
00576 00517 15 01501    	COMP	1501	!constante 1
00577 00518 10 00003.1  	STRB	RESULT	!F=C
00578                   
00579 00519 16 00003.1  	AND	RESULT	!F=C
00580 00520 30 00013    	JFRF	L00533
00581                   
00582 00521 16 00003.1  	AND	RESULT	!F=C
00583 00522 16 00003.3  	AND	ENTER	!triggerpuls enterdrukkn.
00584 00523 13 00106    	FTCHD	SETP_0	!ingevoerde setpoint eenheden
00585 00524 13 00107    	FTCHD	SETP_1	!ingevoerde setpoint tientallen
00586 00525 13 00108    	FTCHD	SETP_2	!ingevoerde setpoint honderdtallen
00587 00526 13 00109    	FTCHD	SETP_3	!ingevoerde setpoint duizendtallen
00588 00527 14 02076    	STRD	STP19_0	!setpoint 19 eenheden
00589 00528 14 02077    	STRD	STP19_1	!setpoint 19 tientallen
00590 00529 14 02078    	STRD	STP19_2	!setpoint 19 honderdtallen
00591 00530 14 02079    	STRD	STP19_3	!setpoint 19 duizendtallen
00592                   
00593 00531 17 00000.1  	ANDNT	000.1
00594 00532 00          	NOP	1
00595                   
00596 00533 16 00000.1  L00533	AND	000.1
00597 00534 13 00104    	FTCHD	DWS1_1	!eenheid DWS
00598 00535 13 00105    	FTCHD	DWS1_2	!tiental DWS
00599 00536 15 01500    	COMP	1500	!constante 0
00600 00537 15 01502    	COMP	1502	!constante 2
00601 00538 10 00003.1  	STRB	RESULT	!F=C
00602                   
00603 00539 16 00003.1  	AND	RESULT	!F=C
00604 00540 30 00013    	JFRF	L00553
00605                   
00606 00541 16 00003.1  	AND	RESULT	!F=C
00607 00542 16 00003.3  	AND	ENTER	!triggerpuls enterdrukkn.
00608 00543 13 00106    	FTCHD	SETP_0	!ingevoerde setpoint eenheden
00609 00544 13 00107    	FTCHD	SETP_1	!ingevoerde setpoint tientallen
00610 00545 13 00108    	FTCHD	SETP_2	!ingevoerde setpoint honderdtallen
00611 00546 13 00109    	FTCHD	SETP_3	!ingevoerde setpoint duizendtallen
00612 00547 14 02080    	STRD	STP20_0	!setpoint 20 eenheden
00613 00548 14 02081    	STRD	STP20_1	!setpoint 20 tientallen
00614 00549 14 02082    	STRD	STP20_2	!setpoint 20 honderdtallen
00615 00550 14 02083    	STRD	STP20_3	!setpoint 20 duizendtallen
00616                   
00617 00551 17 00000.1  	ANDNT	000.1
00618 00552 00          	NOP	1
00619                   
00620 00553 16 00000.1  L00553	AND	000.1
00621 00554 13 00104    	FTCHD	DWS1_1	!eenheid DWS
00622 00555 13 00105    	FTCHD	DWS1_2	!tiental DWS
00623 00556 15 01501    	COMP	1501	!constante 1
00624 00557 15 01502    	COMP	1502	!constante 2
00625 00558 10 00003.1  	STRB	RESULT	!F=C
00626                   
00627 00559 16 00003.1  	AND	RESULT	!F=C
00628 00560 30 00013    	JFRF	L00573
00629                   
00630 00561 16 00003.1  	AND	RESULT	!F=C
00631 00562 16 00003.3  	AND	ENTER	!triggerpuls enterdrukkn.
00632 00563 13 00106    	FTCHD	SETP_0	!ingevoerde setpoint eenheden
00633 00564 13 00107    	FTCHD	SETP_1	!ingevoerde setpoint tientallen
00634 00565 13 00108    	FTCHD	SETP_2	!ingevoerde setpoint honderdtallen
00635 00566 13 00109    	FTCHD	SETP_3	!ingevoerde setpoint duizendtallen
00636 00567 14 02084    	STRD	STP21_0	!setpoint 21 eenheden
00637 00568 14 02085    	STRD	STP21_1	!setpoint 21 tientallen
00638 00569 14 02086    	STRD	STP21_2	!setpoint 21 honderdtallen
00639 00570 14 02087    	STRD	STP21_3	!setpoint 21 duizendtallen
00640                   
00641 00571 17 00000.1  	ANDNT	000.1
00642 00572 00          	NOP	1
00643                   
00644 00573 16 00000.1  L00573	AND	000.1
00645 00574 13 00104    	FTCHD	DWS1_1	!eenheid DWS
00646 00575 13 00105    	FTCHD	DWS1_2	!tiental DWS
00647 00576 15 01502    	COMP	1502	!constante 2
00648 00577 15 01502    	COMP	1502	!constante 2
00649 00578 10 00003.1  	STRB	RESULT	!F=C
00650                   
00651 00579 16 00003.1  	AND	RESULT	!F=C
00652 00580 30 00013    	JFRF	L00593
00653                   
00654 00581 16 00003.1  	AND	RESULT	!F=C
00655 00582 16 00003.3  	AND	ENTER	!triggerpuls enterdrukkn.
00656 00583 13 00106    	FTCHD	SETP_0	!ingevoerde setpoint eenheden
00657 00584 13 00107    	FTCHD	SETP_1	!ingevoerde setpoint tientallen
00658 00585 13 00108    	FTCHD	SETP_2	!ingevoerde setpoint honderdtallen
00659 00586 13 00109    	FTCHD	SETP_3	!ingevoerde setpoint duizendtallen
00660 00587 14 02088    	STRD	STP22_0	!setpoint 22 eenheden
00661 00588 14 02089    	STRD	STP22_1	!setpoint 22 tientallen
00662 00589 14 02090    	STRD	STP22_2	!setpoint 22 honderdtallen
00663 00590 14 02091    	STRD	STP22_3	!setpoint 22 duizendtallen
00664                   
00665 00591 17 00000.1  	ANDNT	000.1
00666 00592 00          	NOP	1
00667                   
00668 00593 16 00000.1  L00593	AND	000.1
00669 00594 13 00104    	FTCHD	DWS1_1	!eenheid DWS
00670 00595 13 00105    	FTCHD	DWS1_2	!tiental DWS
00671 00596 15 01503    	COMP	1503	!constante 3
00672 00597 15 01502    	COMP	1502	!constante 2
00673 00598 10 00003.1  	STRB	RESULT	!F=C
00674                   
00675 00599 16 00003.1  	AND	RESULT	!F=C
00676 00600 30 00013    	JFRF	L00613
00677                   
00678 00601 16 00003.1  	AND	RESULT	!F=C
00679 00602 16 00003.3  	AND	ENTER	!triggerpuls enterdrukkn.
00680 00603 13 00106    	FTCHD	SETP_0	!ingevoerde setpoint eenheden
00681 00604 13 00107    	FTCHD	SETP_1	!ingevoerde setpoint tientallen
00682 00605 13 00108    	FTCHD	SETP_2	!ingevoerde setpoint honderdtallen
00683 00606 13 00109    	FTCHD	SETP_3	!ingevoerde setpoint duizendtallen
00684 00607 14 02092    	STRD	STP23_0	!setpoint 23 eenheden
00685 00608 14 02093    	STRD	STP23_1	!setpoint 23 tientallen
00686 00609 14 02094    	STRD	STP23_2	!setpoint 23 honderdtallen
00687 00610 14 02095    	STRD	STP23_3	!setpoint 23 duizendtallen
00688                   
00689 00611 17 00000.1  	ANDNT	000.1
00690 00612 00          	NOP	1
00691                   
00692 00613 16 00000.1  L00613	AND	000.1
00693 00614 13 00104    	FTCHD	DWS1_1	!eenheid DWS
00694 00615 13 00105    	FTCHD	DWS1_2	!tiental DWS
00695 00616 15 01504    	COMP	1504	!constante 4
00696 00617 15 01502    	COMP	1502	!constante 2
00697 00618 10 00003.1  	STRB	RESULT	!F=C
00698                   
00699 00619 16 00003.1  	AND	RESULT	!F=C
00700 00620 30 00013    	JFRF	L00633
00701                   
00702 00621 16 00003.1  	AND	RESULT	!F=C
00703 00622 16 00003.3  	AND	ENTER	!triggerpuls enterdrukkn.
00704 00623 13 00106    	FTCHD	SETP_0	!ingevoerde setpoint eenheden
00705 00624 13 00107    	FTCHD	SETP_1	!ingevoerde setpoint tientallen
00706 00625 13 00108    	FTCHD	SETP_2	!ingevoerde setpoint honderdtallen
00707 00626 13 00109    	FTCHD	SETP_3	!ingevoerde setpoint duizendtallen
00708 00627 14 02096    	STRD	STP24_0	!setpoint 24 eenheden
00709 00628 14 02097    	STRD	STP24_1	!setpoint 24 tientallen
00710 00629 14 02098    	STRD	STP24_2	!setpoint 24 honderdtallen
00711 00630 14 02099    	STRD	STP24_3	!setpoint 24 duizendtallen
00712                   
00713 00631 17 00000.1  	ANDNT	000.1
00714 00632 00          	NOP	1
00715                   
00716 00633 16 00000.1  L00633	AND	000.1
00717 00634 13 00104    	FTCHD	DWS1_1	!eenheid DWS
00718 00635 13 00105    	FTCHD	DWS1_2	!tiental DWS
00719 00636 15 01505    	COMP	1505	!constante 5
00720 00637 15 01502    	COMP	1502	!constante 2
00721 00638 10 00003.1  	STRB	RESULT	!F=C
00722                   
00723 00639 16 00003.1  	AND	RESULT	!F=C
00724 00640 30 00013    	JFRF	L00653
00725                   
00726 00641 16 00003.1  	AND	RESULT	!F=C
00727 00642 16 00003.3  	AND	ENTER	!triggerpuls enterdrukkn.
00728 00643 13 00106    	FTCHD	SETP_0	!ingevoerde setpoint eenheden
00729 00644 13 00107    	FTCHD	SETP_1	!ingevoerde setpoint tientallen
00730 00645 13 00108    	FTCHD	SETP_2	!ingevoerde setpoint honderdtallen
00731 00646 13 00109    	FTCHD	SETP_3	!ingevoerde setpoint duizendtallen
00732 00647 14 02100    	STRD	STP25_0	!setpoint 25 eenheden
00733 00648 14 02101    	STRD	STP25_1	!setpoint 25 tientallen
00734 00649 14 02102    	STRD	STP25_2	!setpoint 25 honderdtallen
00735 00650 14 02103    	STRD	STP25_3	!setpoint 25 duizendtallen
00736                   
00737 00651 17 00000.1  	ANDNT	000.1
00738 00652 00          	NOP	1
00739                   
00740 00653 16 00000.1  L00653	AND	000.1
00741 00654 13 00104    	FTCHD	DWS1_1	!eenheid DWS
00742 00655 13 00105    	FTCHD	DWS1_2	!tiental DWS
00743 00656 15 01506    	COMP	1506	!constante 6
00744 00657 15 01502    	COMP	1502	!constante 2
00745 00658 10 00003.1  	STRB	RESULT	!F=C
00746                   
00747 00659 16 00003.1  	AND	RESULT	!F=C
00748 00660 30 00013    	JFRF	L00673
00749                   
00750 00661 16 00003.1  	AND	RESULT	!F=C
00751 00662 16 00003.3  	AND	ENTER	!triggerpuls enterdrukkn.
00752 00663 13 00106    	FTCHD	SETP_0	!ingevoerde setpoint eenheden
00753 00664 13 00107    	FTCHD	SETP_1	!ingevoerde setpoint tientallen
00754 00665 13 00108    	FTCHD	SETP_2	!ingevoerde setpoint honderdtallen
00755 00666 13 00109    	FTCHD	SETP_3	!ingevoerde setpoint duizendtallen
00756 00667 14 02104    	STRD	STP26_0	!setpoint 26 eenheden
00757 00668 14 02105    	STRD	STP26_1	!setpoint 26 tientallen
00758 00669 14 02106    	STRD	STP26_2	!setpoint 26 honderdtallen
00759 00670 14 02107    	STRD	STP26_3	!setpoint 26 duizendtallen
00760                   
00761 00671 17 00000.1  	ANDNT	000.1
00762 00672 00          	NOP	1
00763                   
00764 00673 16 00000.1  L00673	AND	000.1
00765 00674 13 00104    	FTCHD	DWS1_1	!eenheid DWS
00766 00675 13 00105    	FTCHD	DWS1_2	!tiental DWS
00767 00676 15 01507    	COMP	1507	!constante 7
00768 00677 15 01502    	COMP	1502	!constante 2
00769 00678 10 00003.1  	STRB	RESULT	!F=C
00770                   
00771 00679 16 00003.1  	AND	RESULT	!F=C
00772 00680 30 00013    	JFRF	L00693
00773                   
00774 00681 16 00003.1  	AND	RESULT	!F=C
00775 00682 16 00003.3  	AND	ENTER	!triggerpuls enterdrukkn.
00776 00683 13 00106    	FTCHD	SETP_0	!ingevoerde setpoint eenheden
00777 00684 13 00107    	FTCHD	SETP_1	!ingevoerde setpoint tientallen
00778 00685 13 00108    	FTCHD	SETP_2	!ingevoerde setpoint honderdtallen
00779 00686 13 00109    	FTCHD	SETP_3	!ingevoerde setpoint duizendtallen
00780 00687 14 02108    	STRD	STP27_0	!setpoint 27 eenheden
00781 00688 14 02109    	STRD	STP27_1	!setpoint 27 tientallen
00782 00689 14 02110    	STRD	STP27_2	!setpoint 27 honderdtallen
00783 00690 14 02111    	STRD	STP27_3	!setpoint 27 duizendtallen
00784                   
00785 00691 17 00000.1  	ANDNT	000.1
00786 00692 00          	NOP	1
00787                   
00788 00693 16 00000.1  L00693	AND	000.1
00789 00694 13 00104    	FTCHD	DWS1_1	!eenheid DWS
00790 00695 13 00105    	FTCHD	DWS1_2	!tiental DWS
00791 00696 15 01508    	COMP	1508	!constante 8
00792 00697 15 01502    	COMP	1502	!constante 2
00793 00698 10 00003.1  	STRB	RESULT	!F=C
00794                   
00795 00699 16 00003.1  	AND	RESULT	!F=C
00796 00700 30 00013    	JFRF	L00713
00797                   
00798 00701 16 00003.1  	AND	RESULT	!F=C
00799 00702 16 00003.3  	AND	ENTER	!triggerpuls enterdrukkn.
00800 00703 13 00106    	FTCHD	SETP_0	!ingevoerde setpoint eenheden
00801 00704 13 00107    	FTCHD	SETP_1	!ingevoerde setpoint tientallen
00802 00705 13 00108    	FTCHD	SETP_2	!ingevoerde setpoint honderdtallen
00803 00706 13 00109    	FTCHD	SETP_3	!ingevoerde setpoint duizendtallen
00804 00707 14 02112    	STRD	STP28_0	!setpoint 28 eenheden
00805 00708 14 02113    	STRD	STP28_1	!setpoint 28 tientallen
00806 00709 14 02114    	STRD	STP28_2	!setpoint 28 honderdtallen
00807 00710 14 02115    	STRD	STP28_3	!setpoint 28 duizendtallen
00808                   
00809 00711 17 00000.1  	ANDNT	000.1
00810 00712 00          	NOP	1
00811                   
00812 00713 16 00000.1  L00713	AND	000.1
00813 00714 13 00104    	FTCHD	DWS1_1	!eenheid DWS
00814 00715 13 00105    	FTCHD	DWS1_2	!tiental DWS
00815 00716 15 01509    	COMP	1509	!constante 9
00816 00717 15 01502    	COMP	1502	!constante 2
00817 00718 10 00003.1  	STRB	RESULT	!F=C
00818                   
00819 00719 16 00003.1  	AND	RESULT	!F=C
00820 00720 30 00013    	JFRF	L00733
00821                   
00822 00721 16 00003.1  	AND	RESULT	!F=C
00823 00722 16 00003.3  	AND	ENTER	!triggerpuls enterdrukkn.
00824 00723 13 00106    	FTCHD	SETP_0	!ingevoerde setpoint eenheden
00825 00724 13 00107    	FTCHD	SETP_1	!ingevoerde setpoint tientallen
00826 00725 13 00108    	FTCHD	SETP_2	!ingevoerde setpoint honderdtallen
00827 00726 13 00109    	FTCHD	SETP_3	!ingevoerde setpoint duizendtallen
00828 00727 14 02116    	STRD	STP29_0	!setpoint 29 eenheden
00829 00728 14 02117    	STRD	STP29_1	!setpoint 29 tientallen
00830 00729 14 02118    	STRD	STP29_2	!setpoint 29 honderdtallen
00831 00730 14 02119    	STRD	STP29_3	!setpoint 29 duizendtallen
00832                   
00833 00731 17 00000.1  	ANDNT	000.1
00834 00732 00          	NOP	1
00835                   
00836 00733 16 00000.1  L00733	AND	000.1
00837 00734 13 00104    	FTCHD	DWS1_1	!eenheid DWS
00838 00735 13 00105    	FTCHD	DWS1_2	!tiental DWS
00839 00736 15 01500    	COMP	1500	!constante 0
00840 00737 15 01503    	COMP	1503	!constante 3
00841 00738 10 00003.1  	STRB	RESULT	!F=C
00842                   
00843 00739 16 00003.1  	AND	RESULT	!F=C
00844 00740 30 00013    	JFRF	L00753
00845                   
00846 00741 16 00003.1  	AND	RESULT	!F=C
00847 00742 16 00003.3  	AND	ENTER	!triggerpuls enterdrukkn.
00848 00743 13 00106    	FTCHD	SETP_0	!ingevoerde setpoint eenheden
00849 00744 13 00107    	FTCHD	SETP_1	!ingevoerde setpoint tientallen
00850 00745 13 00108    	FTCHD	SETP_2	!ingevoerde setpoint honderdtallen
00851 00746 13 00109    	FTCHD	SETP_3	!ingevoerde setpoint duizendtallen
00852 00747 14 02120    	STRD	STP30_0	!setpoint 30 eenheden
00853 00748 14 02121    	STRD	STP30_1	!setpoint 30 tientallen
00854 00749 14 02122    	STRD	STP30_2	!setpoint 30 honderdtallen
00855 00750 14 02123    	STRD	STP30_3	!setpoint 30 duizendtallen
00856                   
00857 00751 17 00000.1  	ANDNT	000.1
00858 00752 00          	NOP	1
00859                   
00860 00753 16 00000.1  L00753	AND	000.1
00861 00754 13 00104    	FTCHD	DWS1_1	!eenheid DWS
00862 00755 13 00105    	FTCHD	DWS1_2	!tiental DWS
00863 00756 15 01501    	COMP	1501	!constante 1
00864 00757 15 01503    	COMP	1503	!constante 3
00865 00758 10 00003.1  	STRB	RESULT	!F=C
00866                   
00867 00759 16 00003.1  	AND	RESULT	!F=C
00868 00760 30 00013    	JFRF	L00773
00869                   
00870 00761 16 00003.1  	AND	RESULT	!F=C
00871 00762 16 00003.3  	AND	ENTER	!triggerpuls enterdrukkn.
00872 00763 13 00106    	FTCHD	SETP_0	!ingevoerde setpoint eenheden
00873 00764 13 00107    	FTCHD	SETP_1	!ingevoerde setpoint tientallen
00874 00765 13 00108    	FTCHD	SETP_2	!ingevoerde setpoint honderdtallen
00875 00766 13 00109    	FTCHD	SETP_3	!ingevoerde setpoint duizendtallen
00876 00767 14 02124    	STRD	STP31_0	!setpoint 31 eenheden
00877 00768 14 02125    	STRD	STP31_1	!setpoint 31 tientallen
00878 00769 14 02126    	STRD	STP31_2	!setpoint 31 honderdtallen
00879 00770 14 02127    	STRD	STP31_3	!setpoint 31 duizendtallen
00880                   
00881 00771 17 00000.1  	ANDNT	000.1
00882 00772 00          	NOP	1
00883                   
00884 00773 16 00000.1  L00773	AND	000.1
00885 00774 13 00104    	FTCHD	DWS1_1	!eenheid DWS
00886 00775 13 00105    	FTCHD	DWS1_2	!tiental DWS
00887 00776 15 01502    	COMP	1502	!constante 2
00888 00777 15 01503    	COMP	1503	!constante 3
00889 00778 10 00003.1  	STRB	RESULT	!F=C
00890                   
00891 00779 16 00003.1  	AND	RESULT	!F=C
00892 00780 30 00013    	JFRF	L00793
00893                   
00894 00781 16 00003.1  	AND	RESULT	!F=C
00895 00782 16 00003.3  	AND	ENTER	!triggerpuls enterdrukkn.
00896 00783 13 00106    	FTCHD	SETP_0	!ingevoerde setpoint eenheden
00897 00784 13 00107    	FTCHD	SETP_1	!ingevoerde setpoint tientallen
00898 00785 13 00108    	FTCHD	SETP_2	!ingevoerde setpoint honderdtallen
00899 00786 13 00109    	FTCHD	SETP_3	!ingevoerde setpoint duizendtallen
00900 00787 14 02128    	STRD	STP32_0	!setpoint 32 eenheden
00901 00788 14 02129    	STRD	STP32_1	!setpoint 32 tientallen
00902 00789 14 02130    	STRD	STP32_2	!setpoint 32 honderdtallen
00903 00790 14 02131    	STRD	STP32_3	!setpoint 32 duizendtallen
00904                   
00905 00791 17 00000.1  	ANDNT	000.1
00906 00792 00          	NOP	1
00907                   
00908 00793 16 00000.1  L00793	AND	000.1
00909 00794 13 00104    	FTCHD	DWS1_1	!eenheid DWS
00910 00795 13 00105    	FTCHD	DWS1_2	!tiental DWS
00911 00796 15 01503    	COMP	1503	!constante 3
00912 00797 15 01503    	COMP	1503	!constante 3
00913 00798 10 00003.1  	STRB	RESULT	!F=C
00914                   
00915 00799 16 00003.1  	AND	RESULT	!F=C
00916 00800 30 00013    	JFRF	L00813
00917                   
00918 00801 16 00003.1  	AND	RESULT	!F=C
00919 00802 16 00003.3  	AND	ENTER	!triggerpuls enterdrukkn.
00920 00803 13 00106    	FTCHD	SETP_0	!ingevoerde setpoint eenheden
00921 00804 13 00107    	FTCHD	SETP_1	!ingevoerde setpoint tientallen
00922 00805 13 00108    	FTCHD	SETP_2	!ingevoerde setpoint honderdtallen
00923 00806 13 00109    	FTCHD	SETP_3	!ingevoerde setpoint duizendtallen
00924 00807 14 02132    	STRD	STP33_0	!setpoint 33 eenheden
00925 00808 14 02133    	STRD	STP33_1	!setpoint 33 tientallen
00926 00809 14 02134    	STRD	STP33_2	!setpoint 33 honderdtallen
00927 00810 14 02135    	STRD	STP33_3	!setpoint 33 duizendtallen
00928                   
00929 00811 17 00000.1  	ANDNT	000.1
00930 00812 00          	NOP	1
00931                   
00932 00813 16 00000.1  L00813	AND	000.1
00933 00814 13 00104    	FTCHD	DWS1_1	!eenheid DWS
00934 00815 13 00105    	FTCHD	DWS1_2	!tiental DWS
00935 00816 15 01504    	COMP	1504	!constante 4
00936 00817 15 01503    	COMP	1503	!constante 3
00937 00818 10 00003.1  	STRB	RESULT	!F=C
00938                   
00939 00819 16 00003.1  	AND	RESULT	!F=C
00940 00820 30 00013    	JFRF	L00833
00941                   
00942 00821 16 00003.1  	AND	RESULT	!F=C
00943 00822 16 00003.3  	AND	ENTER	!triggerpuls enterdrukkn.
00944 00823 13 00106    	FTCHD	SETP_0	!ingevoerde setpoint eenheden
00945 00824 13 00107    	FTCHD	SETP_1	!ingevoerde setpoint tientallen
00946 00825 13 00108    	FTCHD	SETP_2	!ingevoerde setpoint honderdtallen
00947 00826 13 00109    	FTCHD	SETP_3	!ingevoerde setpoint duizendtallen
00948 00827 14 02136    	STRD	STP34_0	!setpoint 34 eenheden
00949 00828 14 02137    	STRD	STP34_1	!setpoint 34 tientallen
00950 00829 14 02138    	STRD	STP34_2	!setpoint 34 honderdtallen
00951 00830 14 02139    	STRD	STP34_3	!setpoint 34 duizendtallen
00952                   
00953 00831 17 00000.1  	ANDNT	000.1
00954 00832 00          	NOP	1
00955                   
00956 00833 16 00000.1  L00833	AND	000.1
00957 00834 13 00104    	FTCHD	DWS1_1	!eenheid DWS
00958 00835 13 00105    	FTCHD	DWS1_2	!tiental DWS
00959 00836 15 01505    	COMP	1505	!constante 5
00960 00837 15 01503    	COMP	1503	!constante 3
00961 00838 10 00003.1  	STRB	RESULT	!F=C
00962                   
00963 00839 16 00003.1  	AND	RESULT	!F=C
00964 00840 30 00013    	JFRF	L00853
00965                   
00966 00841 16 00003.1  	AND	RESULT	!F=C
00967 00842 16 00003.3  	AND	ENTER	!triggerpuls enterdrukkn.
00968 00843 13 00106    	FTCHD	SETP_0	!ingevoerde setpoint eenheden
00969 00844 13 00107    	FTCHD	SETP_1	!ingevoerde setpoint tientallen
00970 00845 13 00108    	FTCHD	SETP_2	!ingevoerde setpoint honderdtallen
00971 00846 13 00109    	FTCHD	SETP_3	!ingevoerde setpoint duizendtallen
00972 00847 14 02140    	STRD	STP35_0	!setpoint 35 eenheden
00973 00848 14 02141    	STRD	STP35_1	!setpoint 35 tientallen
00974 00849 14 02142    	STRD	STP35_2	!setpoint 35 honderdtallen
00975 00850 14 02143    	STRD	STP35_3	!setpoint 35 duizendtallen
00976                   
00977 00851 17 00000.1  	ANDNT	000.1
00978 00852 00          	NOP	1
00979                   
00980 00853 16 00000.1  L00853	AND	000.1
00981 00854 13 00104    	FTCHD	DWS1_1	!eenheid DWS
00982 00855 13 00105    	FTCHD	DWS1_2	!tiental DWS
00983 00856 15 01506    	COMP	1506	!constante 6
00984 00857 15 01503    	COMP	1503	!constante 3
00985 00858 10 00003.1  	STRB	RESULT	!F=C
00986                   
00987 00859 16 00003.1  	AND	RESULT	!F=C
00988 00860 30 00013    	JFRF	L00873
00989                   
00990 00861 16 00003.1  	AND	RESULT	!F=C
00991 00862 16 00003.3  	AND	ENTER	!triggerpuls enterdrukkn.
00992 00863 13 00106    	FTCHD	SETP_0	!ingevoerde setpoint eenheden
00993 00864 13 00107    	FTCHD	SETP_1	!ingevoerde setpoint tientallen
00994 00865 13 00108    	FTCHD	SETP_2	!ingevoerde setpoint honderdtallen
00995 00866 13 00109    	FTCHD	SETP_3	!ingevoerde setpoint duizendtallen
00996 00867 14 02144    	STRD	STP36_0	!setpoint 36 eenheden
00997 00868 14 02145    	STRD	STP36_1	!setpoint 36 tientallen
00998 00869 14 02146    	STRD	STP36_2	!setpoint 36 honderdtallen
00999 00870 14 02147    	STRD	STP36_3	!setpoint 36 duizendtallen
01000                   
01001 00871 17 00000.1  	ANDNT	000.1
01002 00872 00          	NOP	1
01003                   
01004 00873 16 00000.1  L00873	AND	000.1
01005 00874 13 00104    	FTCHD	DWS1_1	!eenheid DWS
01006 00875 13 00105    	FTCHD	DWS1_2	!tiental DWS
01007 00876 15 01507    	COMP	1507	!constante 7
01008 00877 15 01503    	COMP	1503	!constante 3
01009 00878 10 00003.1  	STRB	RESULT	!F=C
01010                   
01011 00879 16 00003.1  	AND	RESULT	!F=C
01012 00880 30 00013    	JFRF	L00893
01013                   
01014 00881 16 00003.1  	AND	RESULT	!F=C
01015 00882 16 00003.3  	AND	ENTER	!triggerpuls enterdrukkn.
01016 00883 13 00106    	FTCHD	SETP_0	!ingevoerde setpoint eenheden
01017 00884 13 00107    	FTCHD	SETP_1	!ingevoerde setpoint tientallen
01018 00885 13 00108    	FTCHD	SETP_2	!ingevoerde setpoint honderdtallen
01019 00886 13 00109    	FTCHD	SETP_3	!ingevoerde setpoint duizendtallen
01020 00887 14 02148    	STRD	STP37_0	!setpoint 37 eenheden
01021 00888 14 02149    	STRD	STP37_1	!setpoint 37 tientallen
01022 00889 14 02150    	STRD	STP37_2	!setpoint 37 honderdtallen
01023 00890 14 02151    	STRD	STP37_3	!setpoint 37 duizendtallen
01024                   
01025 00891 17 00000.1  	ANDNT	000.1
01026 00892 00          	NOP	1
01027                   
01028 00893 16 00000.1  L00893	AND	000.1
01029 00894 13 00104    	FTCHD	DWS1_1	!eenheid DWS
01030 00895 13 00105    	FTCHD	DWS1_2	!tiental DWS
01031 00896 15 01508    	COMP	1508	!constante 8
01032 00897 15 01503    	COMP	1503	!constante 3
01033 00898 10 00003.1  	STRB	RESULT	!F=C
01034                   
01035 00899 16 00003.1  	AND	RESULT	!F=C
01036 00900 30 00013    	JFRF	L00913
01037                   
01038 00901 16 00003.1  	AND	RESULT	!F=C
01039 00902 16 00003.3  	AND	ENTER	!triggerpuls enterdrukkn.
01040 00903 13 00106    	FTCHD	SETP_0	!ingevoerde setpoint eenheden
01041 00904 13 00107    	FTCHD	SETP_1	!ingevoerde setpoint tientallen
01042 00905 13 00108    	FTCHD	SETP_2	!ingevoerde setpoint honderdtallen
01043 00906 13 00109    	FTCHD	SETP_3	!ingevoerde setpoint duizendtallen
01044 00907 14 02152    	STRD	STP38_0	!setpoint 38 eenheden
01045 00908 14 02153    	STRD	STP38_1	!setpoint 38 tientallen
01046 00909 14 02154    	STRD	STP38_2	!setpoint 38 honderdtallen
01047 00910 14 02155    	STRD	STP38_3	!setpoint 38 duizendtallen
01048                   
01049 00911 17 00000.1  	ANDNT	000.1
01050 00912 00          	NOP	1
01051                   
01052 00913 16 00000.1  L00913	AND	000.1
01053 00914 13 00104    	FTCHD	DWS1_1	!eenheid DWS
01054 00915 13 00105    	FTCHD	DWS1_2	!tiental DWS
01055 00916 15 01509    	COMP	1509	!constante 9
01056 00917 15 01503    	COMP	1503	!constante 3
01057 00918 10 00003.1  	STRB	RESULT	!F=C
01058                   
01059 00919 16 00003.1  	AND	RESULT	!F=C
01060 00920 30 00013    	JFRF	L00933
01061                   
01062 00921 16 00003.1  	AND	RESULT	!F=C
01063 00922 16 00003.3  	AND	ENTER	!triggerpuls enterdrukkn.
01064 00923 13 00106    	FTCHD	SETP_0	!ingevoerde setpoint eenheden
01065 00924 13 00107    	FTCHD	SETP_1	!ingevoerde setpoint tientallen
01066 00925 13 00108    	FTCHD	SETP_2	!ingevoerde setpoint honderdtallen
01067 00926 13 00109    	FTCHD	SETP_3	!ingevoerde setpoint duizendtallen
01068 00927 14 02156    	STRD	STP39_0	!setpoint 39 eenheden
01069 00928 14 02157    	STRD	STP39_1	!setpoint 39 tientallen
01070 00929 14 02158    	STRD	STP39_2	!setpoint 39 honderdtallen
01071 00930 14 02159    	STRD	STP39_3	!setpoint 39 duizendtallen
01072                   
01073 00931 17 00000.1  	ANDNT	000.1
01074 00932 00          	NOP	1
01075                   
01076 00933 16 00000.1  L00933	AND	000.1
01077 00934 13 00104    	FTCHD	DWS1_1	!eenheid DWS
01078 00935 13 00105    	FTCHD	DWS1_2	!tiental DWS
01079 00936 15 01500    	COMP	1500	!constante 0
01080 00937 15 01504    	COMP	1504	!constante 4
01081 00938 10 00003.1  	STRB	RESULT	!F=C
01082                   
01083 00939 16 00003.1  	AND	RESULT	!F=C
01084 00940 30 00013    	JFRF	L00953
01085                   
01086 00941 16 00003.1  	AND	RESULT	!F=C
01087 00942 16 00003.3  	AND	ENTER	!triggerpuls enterdrukkn.
01088 00943 13 00106    	FTCHD	SETP_0	!ingevoerde setpoint eenheden
01089 00944 13 00107    	FTCHD	SETP_1	!ingevoerde setpoint tientallen
01090 00945 13 00108    	FTCHD	SETP_2	!ingevoerde setpoint honderdtallen
01091 00946 13 00109    	FTCHD	SETP_3	!ingevoerde setpoint duizendtallen
01092 00947 14 02160    	STRD	STP40_0	!setpoint 40 eenheden
01093 00948 14 02161    	STRD	STP40_1	!setpoint 40 tientallen
01094 00949 14 02162    	STRD	STP40_2	!setpoint 40 honderdtallen
01095 00950 14 02163    	STRD	STP40_3	!setpoint 40 duizendtallen
01096                   
01097 00951 17 00000.1  	ANDNT	000.1
01098 00952 00          	NOP	1
01099                   
01100 00953 16 00000.1  L00953	AND	000.1
01101 00954 13 00104    	FTCHD	DWS1_1	!eenheid DWS
01102 00955 13 00105    	FTCHD	DWS1_2	!tiental DWS
01103 00956 15 01501    	COMP	1501	!constante 1
01104 00957 15 01504    	COMP	1504	!constante 4
01105 00958 10 00003.1  	STRB	RESULT	!F=C
01106                   
01107 00959 16 00003.1  	AND	RESULT	!F=C
01108 00960 30 00013    	JFRF	L00973
01109                   
01110 00961 16 00003.1  	AND	RESULT	!F=C
01111 00962 16 00003.3  	AND	ENTER	!triggerpuls enterdrukkn.
01112 00963 13 00106    	FTCHD	SETP_0	!ingevoerde setpoint eenheden
01113 00964 13 00107    	FTCHD	SETP_1	!ingevoerde setpoint tientallen
01114 00965 13 00108    	FTCHD	SETP_2	!ingevoerde setpoint honderdtallen
01115 00966 13 00109    	FTCHD	SETP_3	!ingevoerde setpoint duizendtallen
01116 00967 14 02164    	STRD	STP41_0	!setpoint 41 eenheden
01117 00968 14 02165    	STRD	STP41_1	!setpoint 41 tientallen
01118 00969 14 02166    	STRD	STP41_2	!setpoint 41 honderdtallen
01119 00970 14 02167    	STRD	STP41_3	!setpoint 41 duizendtallen
01120                   
01121 00971 17 00000.1  	ANDNT	000.1
01122 00972 00          	NOP	1
01123                   
01124 00973 16 00000.1  L00973	AND	000.1
01125 00974 13 00104    	FTCHD	DWS1_1	!eenheid DWS
01126 00975 13 00105    	FTCHD	DWS1_2	!tiental DWS
01127 00976 15 01502    	COMP	1502	!constante 2
01128 00977 15 01504    	COMP	1504	!constante 4
01129 00978 10 00003.1  	STRB	RESULT	!F=C
01130                   
01131 00979 16 00003.1  	AND	RESULT	!F=C
01132 00980 30 00013    	JFRF	L00993
01133                   
01134 00981 16 00003.1  	AND	RESULT	!F=C
01135 00982 16 00003.3  	AND	ENTER	!triggerpuls enterdrukkn.
01136 00983 13 00106    	FTCHD	SETP_0	!ingevoerde setpoint eenheden
01137 00984 13 00107    	FTCHD	SETP_1	!ingevoerde setpoint tientallen
01138 00985 13 00108    	FTCHD	SETP_2	!ingevoerde setpoint honderdtallen
01139 00986 13 00109    	FTCHD	SETP_3	!ingevoerde setpoint duizendtallen
01140 00987 14 02168    	STRD	STP42_0	!setpoint 42 eenheden
01141 00988 14 02169    	STRD	STP42_1	!setpoint 42 tientallen
01142 00989 14 02170    	STRD	STP42_2	!setpoint 42 honderdtallen
01143 00990 14 02171    	STRD	STP42_3	!setpoint 42 duizendtallen
01144                   
01145 00991 17 00000.1  	ANDNT	000.1
01146 00992 00          	NOP	1
01147                   
01148 00993 16 00000.1  L00993	AND	000.1
01149 00994 13 00104    	FTCHD	DWS1_1	!eenheid DWS
01150 00995 13 00105    	FTCHD	DWS1_2	!tiental DWS
01151 00996 15 01503    	COMP	1503	!constante 3
01152 00997 15 01504    	COMP	1504	!constante 4
01153 00998 10 00003.1  	STRB	RESULT	!F=C
01154                   
01155 00999 16 00003.1  	AND	RESULT	!F=C
01156 01000 30 00013    	JFRF	L01013
01157                   
01158 01001 16 00003.1  	AND	RESULT	!F=C
01159 01002 16 00003.3  	AND	ENTER	!triggerpuls enterdrukkn.
01160 01003 13 00106    	FTCHD	SETP_0	!ingevoerde setpoint eenheden
01161 01004 13 00107    	FTCHD	SETP_1	!ingevoerde setpoint tientallen
01162 01005 13 00108    	FTCHD	SETP_2	!ingevoerde setpoint honderdtallen
01163 01006 13 00109    	FTCHD	SETP_3	!ingevoerde setpoint duizendtallen
01164 01007 14 02172    	STRD	STP43_0	!setpoint 43 eenheden
01165 01008 14 02173    	STRD	STP43_1	!setpoint 43 tientallen
01166 01009 14 02174    	STRD	STP43_2	!setpoint 43 honderdtallen
01167 01010 14 02175    	STRD	STP43_3	!setpoint 43 duizendtallen
01168                   
01169 01011 17 00000.1  	ANDNT	000.1
01170 01012 00          	NOP	1
01171                   
01172 01013 16 00000.1  L01013	AND	000.1
01173 01014 13 00104    	FTCHD	DWS1_1	!eenheid DWS
01174 01015 13 00105    	FTCHD	DWS1_2	!tiental DWS
01175 01016 15 01504    	COMP	1504	!constante 4
01176 01017 15 01504    	COMP	1504	!constante 4
01177 01018 10 00003.1  	STRB	RESULT	!F=C
01178                   
01179 01019 16 00003.1  	AND	RESULT	!F=C
01180 01020 30 00013    	JFRF	L01033
01181                   
01182 01021 16 00003.1  	AND	RESULT	!F=C
01183 01022 16 00003.3  	AND	ENTER	!triggerpuls enterdrukkn.
01184 01023 13 00106    	FTCHD	SETP_0	!ingevoerde setpoint eenheden
01185 01024 13 00107    	FTCHD	SETP_1	!ingevoerde setpoint tientallen
01186 01025 13 00108    	FTCHD	SETP_2	!ingevoerde setpoint honderdtallen
01187 01026 13 00109    	FTCHD	SETP_3	!ingevoerde setpoint duizendtallen
01188 01027 14 02176    	STRD	STP44_0	!setpoint 44 eenheden
01189 01028 14 02177    	STRD	STP44_1	!setpoint 44 tientallen
01190 01029 14 02178    	STRD	STP44_2	!setpoint 44 honderdtallen
01191 01030 14 02179    	STRD	STP44_3	!setpoint 44 duizendtallen
01192                   
01193 01031 17 00000.1  	ANDNT	000.1
01194 01032 00          	NOP	1
01195                   
01196 01033 16 00000.1  L01033	AND	000.1
01197 01034 13 00104    	FTCHD	DWS1_1	!eenheid DWS
01198 01035 13 00105    	FTCHD	DWS1_2	!tiental DWS
01199 01036 15 01505    	COMP	1505	!constante 5
01200 01037 15 01504    	COMP	1504	!constante 4
01201 01038 10 00003.1  	STRB	RESULT	!F=C
01202                   
01203 01039 16 00003.1  	AND	RESULT	!F=C
01204 01040 30 00013    	JFRF	L01053
01205                   
01206 01041 16 00003.1  	AND	RESULT	!F=C
01207 01042 16 00003.3  	AND	ENTER	!triggerpuls enterdrukkn.
01208 01043 13 00106    	FTCHD	SETP_0	!ingevoerde setpoint eenheden
01209 01044 13 00107    	FTCHD	SETP_1	!ingevoerde setpoint tientallen
01210 01045 13 00108    	FTCHD	SETP_2	!ingevoerde setpoint honderdtallen
01211 01046 13 00109    	FTCHD	SETP_3	!ingevoerde setpoint duizendtallen
01212 01047 14 02180    	STRD	STP45_0	!setpoint 45 eenheden
01213 01048 14 02181    	STRD	STP45_1	!setpoint 45 tientallen
01214 01049 14 02182    	STRD	STP45_2	!setpoint 45 honderdtallen
01215 01050 14 02183    	STRD	STP45_3	!setpoint 45 duizendtallen
01216                   
01217 01051 17 00000.1  	ANDNT	000.1
01218 01052 00          	NOP	1
01219                   
01220 01053 16 00000.1  L01053	AND	000.1
01221 01054 13 00104    	FTCHD	DWS1_1	!eenheid DWS
01222 01055 13 00105    	FTCHD	DWS1_2	!tiental DWS
01223 01056 15 01506    	COMP	1506	!constante 6
01224 01057 15 01504    	COMP	1504	!constante 4
01225 01058 10 00003.1  	STRB	RESULT	!F=C
01226                   
01227 01059 16 00003.1  	AND	RESULT	!F=C
01228 01060 30 00013    	JFRF	L01073
01229                   
01230 01061 16 00003.1  	AND	RESULT	!F=C
01231 01062 16 00003.3  	AND	ENTER	!triggerpuls enterdrukkn.
01232 01063 13 00106    	FTCHD	SETP_0	!ingevoerde setpoint eenheden
01233 01064 13 00107    	FTCHD	SETP_1	!ingevoerde setpoint tientallen
01234 01065 13 00108    	FTCHD	SETP_2	!ingevoerde setpoint honderdtallen
01235 01066 13 00109    	FTCHD	SETP_3	!ingevoerde setpoint duizendtallen
01236 01067 14 02184    	STRD	STP46_0	!setpoint 46 eenheden
01237 01068 14 02185    	STRD	STP46_1	!setpoint 46 tientallen
01238 01069 14 02186    	STRD	STP46_2	!setpoint 46 honderdtallen
01239 01070 14 02187    	STRD	STP46_3	!setpoint 46 duizendtallen
01240                   
01241 01071 17 00000.1  	ANDNT	000.1
01242 01072 00          	NOP	1
01243                   
01244 01073 16 00000.1  L01073	AND	000.1
01245 01074 13 00104    	FTCHD	DWS1_1	!eenheid DWS
01246 01075 13 00105    	FTCHD	DWS1_2	!tiental DWS
01247 01076 15 01507    	COMP	1507	!constante 7
01248 01077 15 01504    	COMP	1504	!constante 4
01249 01078 10 00003.1  	STRB	RESULT	!F=C
01250                   
01251 01079 16 00003.1  	AND	RESULT	!F=C
01252 01080 30 00013    	JFRF	L01093
01253                   
01254 01081 16 00003.1  	AND	RESULT	!F=C
01255 01082 16 00003.3  	AND	ENTER	!triggerpuls enterdrukkn.
01256 01083 13 00106    	FTCHD	SETP_0	!ingevoerde setpoint eenheden
01257 01084 13 00107    	FTCHD	SETP_1	!ingevoerde setpoint tientallen
01258 01085 13 00108    	FTCHD	SETP_2	!ingevoerde setpoint honderdtallen
01259 01086 13 00109    	FTCHD	SETP_3	!ingevoerde setpoint duizendtallen
01260 01087 14 02188    	STRD	STP47_0	!setpoint 47 eenheden
01261 01088 14 02189    	STRD	STP47_1	!setpoint 47 tientallen
01262 01089 14 02190    	STRD	STP47_2	!setpoint 47 honderdtallen
01263 01090 14 02191    	STRD	STP47_3	!setpoint 47 duizendtallen
01264                   
01265 01091 17 00000.1  	ANDNT	000.1
01266 01092 00          	NOP	1
01267                   
01268 01093 16 00000.1  L01093	AND	000.1
01269 01094 13 00104    	FTCHD	DWS1_1	!eenheid DWS
01270 01095 13 00105    	FTCHD	DWS1_2	!tiental DWS
01271 01096 15 01508    	COMP	1508	!constante 8
01272 01097 15 01504    	COMP	1504	!constante 4
01273 01098 10 00003.1  	STRB	RESULT	!F=C
01274                   
01275 01099 16 00003.1  	AND	RESULT	!F=C
01276 01100 30 00013    	JFRF	L01113
01277                   
01278 01101 16 00003.1  	AND	RESULT	!F=C
01279 01102 16 00003.3  	AND	ENTER	!triggerpuls enterdrukkn.
01280 01103 13 00106    	FTCHD	SETP_0	!ingevoerde setpoint eenheden
01281 01104 13 00107    	FTCHD	SETP_1	!ingevoerde setpoint tientallen
01282 01105 13 00108    	FTCHD	SETP_2	!ingevoerde setpoint honderdtallen
01283 01106 13 00109    	FTCHD	SETP_3	!ingevoerde setpoint duizendtallen
01284 01107 14 02192    	STRD	STP48_0	!setpoint 48 eenheden
01285 01108 14 02193    	STRD	STP48_1	!setpoint 48 tientallen
01286 01109 14 02194    	STRD	STP48_2	!setpoint 48 honderdtallen
01287 01110 14 02195    	STRD	STP48_3	!setpoint 48 duizendtallen
01288                   
01289 01111 17 00000.1  	ANDNT	000.1
01290 01112 00          	NOP	1
01291                   
01292 01113 16 00000.1  L01113	AND	000.1
01293 01114 13 00104    	FTCHD	DWS1_1	!eenheid DWS
01294 01115 13 00105    	FTCHD	DWS1_2	!tiental DWS
01295 01116 15 01509    	COMP	1509	!constante 9
01296 01117 15 01504    	COMP	1504	!constante 4
01297 01118 10 00003.1  	STRB	RESULT	!F=C
01298                   
01299 01119 16 00003.1  	AND	RESULT	!F=C
01300 01120 30 00013    	JFRF	L01133
01301                   
01302 01121 16 00003.1  	AND	RESULT	!F=C
01303 01122 16 00003.3  	AND	ENTER	!triggerpuls enterdrukkn.
01304 01123 13 00106    	FTCHD	SETP_0	!ingevoerde setpoint eenheden
01305 01124 13 00107    	FTCHD	SETP_1	!ingevoerde setpoint tientallen
01306 01125 13 00108    	FTCHD	SETP_2	!ingevoerde setpoint honderdtallen
01307 01126 13 00109    	FTCHD	SETP_3	!ingevoerde setpoint duizendtallen
01308 01127 14 02196    	STRD	STP49_0	!setpoint 49 eenheden
01309 01128 14 02197    	STRD	STP49_1	!setpoint 49 tientallen
01310 01129 14 02198    	STRD	STP49_2	!setpoint 49 honderdtallen
01311 01130 14 02199    	STRD	STP49_3	!setpoint 49 duizendtallen
01312                   
01313 01131 17 00000.1  	ANDNT	000.1
01314 01132 00          	NOP	1
01315                   
01316 01133 16 00000.1  L01133	AND	000.1
01317 01134 13 00104    	FTCHD	DWS1_1	!eenheid DWS
01318 01135 13 00105    	FTCHD	DWS1_2	!tiental DWS
01319 01136 15 01500    	COMP	1500	!constante 0
01320 01137 15 01505    	COMP	1505	!constante 5
01321 01138 10 00003.1  	STRB	RESULT	!F=C
01322                   
01323 01139 16 00003.1  	AND	RESULT	!F=C
01324 01140 30 00013    	JFRF	L01153
01325                   
01326 01141 16 00003.1  	AND	RESULT	!F=C
01327 01142 16 00003.3  	AND	ENTER	!triggerpuls enterdrukkn.
01328 01143 13 00106    	FTCHD	SETP_0	!ingevoerde setpoint eenheden
01329 01144 13 00107    	FTCHD	SETP_1	!ingevoerde setpoint tientallen
01330 01145 13 00108    	FTCHD	SETP_2	!ingevoerde setpoint honderdtallen
01331 01146 13 00109    	FTCHD	SETP_3	!ingevoerde setpoint duizendtallen
01332 01147 14 02200    	STRD	STP50_0	!setpoint 50 eenheden
01333 01148 14 02201    	STRD	STP50_1	!setpoint 50 tientallen
01334 01149 14 02202    	STRD	STP50_2	!setpoint 50 honderdtallen
01335 01150 14 02203    	STRD	STP50_3	!setpoint 50 duizendtallen
01336                   
01337 01151 17 00000.1  	ANDNT	000.1
01338 01152 00          	NOP	1
01339                   
01340 01153 16 00000.1  L01153	AND	000.1
01341 01154 13 00104    	FTCHD	DWS1_1	!eenheid DWS
01342 01155 13 00105    	FTCHD	DWS1_2	!tiental DWS
01343 01156 15 01501    	COMP	1501	!constante 1
01344 01157 15 01505    	COMP	1505	!constante 5
01345 01158 10 00003.1  	STRB	RESULT	!F=C
01346                   
01347 01159 16 00003.1  	AND	RESULT	!F=C
01348 01160 30 00013    	JFRF	L01173
01349                   
01350 01161 16 00003.1  	AND	RESULT	!F=C
01351 01162 16 00003.3  	AND	ENTER	!triggerpuls enterdrukkn.
01352 01163 13 00106    	FTCHD	SETP_0	!ingevoerde setpoint eenheden
01353 01164 13 00107    	FTCHD	SETP_1	!ingevoerde setpoint tientallen
01354 01165 13 00108    	FTCHD	SETP_2	!ingevoerde setpoint honderdtallen
01355 01166 13 00109    	FTCHD	SETP_3	!ingevoerde setpoint duizendtallen
01356 01167 14 02204    	STRD	STP51_0	!setpoint 51 eenheden
01357 01168 14 02205    	STRD	STP51_1	!setpoint 51 tientallen
01358 01169 14 02206    	STRD	STP51_2	!setpoint 51 honderdtallen
01359 01170 14 02207    	STRD	STP51_3	!setpoint 51 duizendtallen
01360                   
01361 01171 17 00000.1  	ANDNT	000.1
01362 01172 00          	NOP	1
01363                   
01364 01173 16 00000.1  L01173	AND	000.1
01365 01174 13 00104    	FTCHD	DWS1_1	!eenheid DWS
01366 01175 13 00105    	FTCHD	DWS1_2	!tiental DWS
01367 01176 15 01502    	COMP	1502	!constante 2
01368 01177 15 01505    	COMP	1505	!constante 5
01369 01178 10 00003.1  	STRB	RESULT	!F=C
01370                   
01371 01179 16 00003.1  	AND	RESULT	!F=C
01372 01180 30 00013    	JFRF	L01193
01373                   
01374 01181 16 00003.1  	AND	RESULT	!F=C
01375 01182 16 00003.3  	AND	ENTER	!triggerpuls enterdrukkn.
01376 01183 13 00106    	FTCHD	SETP_0	!ingevoerde setpoint eenheden
01377 01184 13 00107    	FTCHD	SETP_1	!ingevoerde setpoint tientallen
01378 01185 13 00108    	FTCHD	SETP_2	!ingevoerde setpoint honderdtallen
01379 01186 13 00109    	FTCHD	SETP_3	!ingevoerde setpoint duizendtallen
01380 01187 14 02208    	STRD	STP52_0	!setpoint 52 eenheden
01381 01188 14 02209    	STRD	STP52_1	!setpoint 52 tientallen
01382 01189 14 02210    	STRD	STP52_2	!setpoint 52 honderdtallen
01383 01190 14 02211    	STRD	STP52_3	!setpoint 52 duizendtallen
01384                   
01385 01191 17 00000.1  	ANDNT	000.1
01386 01192 00          	NOP	1
01387                   
01388 01193 16 00000.1  L01193	AND	000.1
01389 01194 13 00104    	FTCHD	DWS1_1	!eenheid DWS
01390 01195 13 00105    	FTCHD	DWS1_2	!tiental DWS
01391 01196 15 01503    	COMP	1503	!constante 3
01392 01197 15 01505    	COMP	1505	!constante 5
01393 01198 10 00003.1  	STRB	RESULT	!F=C
01394                   
01395 01199 16 00003.1  	AND	RESULT	!F=C
01396 01200 30 00013    	JFRF	L01213
01397                   
01398 01201 16 00003.1  	AND	RESULT	!F=C
01399 01202 16 00003.3  	AND	ENTER	!triggerpuls enterdrukkn.
01400 01203 13 00106    	FTCHD	SETP_0	!ingevoerde setpoint eenheden
01401 01204 13 00107    	FTCHD	SETP_1	!ingevoerde setpoint tientallen
01402 01205 13 00108    	FTCHD	SETP_2	!ingevoerde setpoint honderdtallen
01403 01206 13 00109    	FTCHD	SETP_3	!ingevoerde setpoint duizendtallen
01404 01207 14 02212    	STRD	STP53_0	!setpoint 53 eenheden
01405 01208 14 02213    	STRD	STP53_1	!setpoint 53 tientallen
01406 01209 14 02214    	STRD	STP53_2	!setpoint 53 honderdtallen
01407 01210 14 02215    	STRD	STP53_3	!setpoint 53 duizendtallen
01408                   
01409 01211 17 00000.1  	ANDNT	000.1
01410 01212 00          	NOP	1
01411                   
01412 01213 16 00000.1  L01213	AND	000.1
01413 01214 13 00104    	FTCHD	DWS1_1	!eenheid DWS
01414 01215 13 00105    	FTCHD	DWS1_2	!tiental DWS
01415 01216 15 01504    	COMP	1504	!constante 4
01416 01217 15 01505    	COMP	1505	!constante 5
01417 01218 10 00003.1  	STRB	RESULT	!F=C
01418                   
01419 01219 16 00003.1  	AND	RESULT	!F=C
01420 01220 30 00013    	JFRF	L01233
01421                   
01422 01221 16 00003.1  	AND	RESULT	!F=C
01423 01222 16 00003.3  	AND	ENTER	!triggerpuls enterdrukkn.
01424 01223 13 00106    	FTCHD	SETP_0	!ingevoerde setpoint eenheden
01425 01224 13 00107    	FTCHD	SETP_1	!ingevoerde setpoint tientallen
01426 01225 13 00108    	FTCHD	SETP_2	!ingevoerde setpoint honderdtallen
01427 01226 13 00109    	FTCHD	SETP_3	!ingevoerde setpoint duizendtallen
01428 01227 14 02216    	STRD	STP54_0	!setpoint 54 eenheden
01429 01228 14 02217    	STRD	STP54_1	!setpoint 54 tientallen
01430 01229 14 02218    	STRD	STP54_2	!setpoint 54 honderdtallen
01431 01230 14 02219    	STRD	STP54_3	!setpoint 54 duizendtallen
01432                   
01433 01231 17 00000.1  	ANDNT	000.1
01434 01232 00          	NOP	1
01435                   
01436 01233 16 00000.1  L01233	AND	000.1
01437 01234 13 00104    	FTCHD	DWS1_1	!eenheid DWS
01438 01235 13 00105    	FTCHD	DWS1_2	!tiental DWS
01439 01236 15 01505    	COMP	1505	!constante 5
01440 01237 15 01505    	COMP	1505	!constante 5
01441 01238 10 00003.1  	STRB	RESULT	!F=C
01442                   
01443 01239 16 00003.1  	AND	RESULT	!F=C
01444 01240 30 00013    	JFRF	L01253
01445                   
01446 01241 16 00003.1  	AND	RESULT	!F=C
01447 01242 16 00003.3  	AND	ENTER	!triggerpuls enterdrukkn.
01448 01243 13 00106    	FTCHD	SETP_0	!ingevoerde setpoint eenheden
01449 01244 13 00107    	FTCHD	SETP_1	!ingevoerde setpoint tientallen
01450 01245 13 00108    	FTCHD	SETP_2	!ingevoerde setpoint honderdtallen
01451 01246 13 00109    	FTCHD	SETP_3	!ingevoerde setpoint duizendtallen
01452 01247 14 02220    	STRD	STP55_0	!setpoint 55 eenheden
01453 01248 14 02221    	STRD	STP55_1	!setpoint 55 tientallen
01454 01249 14 02222    	STRD	STP55_2	!setpoint 55 honderdtallen
01455 01250 14 02223    	STRD	STP55_3	!setpoint 55 duizendtallen
01456                   
01457 01251 17 00000.1  	ANDNT	000.1
01458 01252 00          	NOP	1
01459                   
01460 01253 16 00000.1  L01253	AND	000.1
01461 01254 13 00104    	FTCHD	DWS1_1	!eenheid DWS
01462 01255 13 00105    	FTCHD	DWS1_2	!tiental DWS
01463 01256 15 01506    	COMP	1506	!constante 6
01464 01257 15 01505    	COMP	1505	!constante 5
01465 01258 10 00003.1  	STRB	RESULT	!F=C
01466                   
01467 01259 16 00003.1  	AND	RESULT	!F=C
01468 01260 30 00013    	JFRF	L01273
01469                   
01470 01261 16 00003.1  	AND	RESULT	!F=C
01471 01262 16 00003.3  	AND	ENTER	!triggerpuls enterdrukkn.
01472 01263 13 00106    	FTCHD	SETP_0	!ingevoerde setpoint eenheden
01473 01264 13 00107    	FTCHD	SETP_1	!ingevoerde setpoint tientallen
01474 01265 13 00108    	FTCHD	SETP_2	!ingevoerde setpoint honderdtallen
01475 01266 13 00109    	FTCHD	SETP_3	!ingevoerde setpoint duizendtallen
01476 01267 14 02224    	STRD	STP56_0	!setpoint 56 eenheden
01477 01268 14 02225    	STRD	STP56_1	!setpoint 56 tientallen
01478 01269 14 02226    	STRD	STP56_2	!setpoint 56 honderdtallen
01479 01270 14 02227    	STRD	STP56_3	!setpoint 56 duizendtallen
01480                   
01481 01271 17 00000.1  	ANDNT	000.1
01482 01272 00          	NOP	1
01483                   
01484 01273 16 00000.1  L01273	AND	000.1
01485 01274 13 00104    	FTCHD	DWS1_1	!eenheid DWS
01486 01275 13 00105    	FTCHD	DWS1_2	!tiental DWS
01487 01276 15 01507    	COMP	1507	!constante 7
01488 01277 15 01505    	COMP	1505	!constante 5
01489 01278 10 00003.1  	STRB	RESULT	!F=C
01490                   
01491 01279 16 00003.1  	AND	RESULT	!F=C
01492 01280 30 00013    	JFRF	L01293
01493                   
01494 01281 16 00003.1  	AND	RESULT	!F=C
01495 01282 16 00003.3  	AND	ENTER	!triggerpuls enterdrukkn.
01496 01283 13 00106    	FTCHD	SETP_0	!ingevoerde setpoint eenheden
01497 01284 13 00107    	FTCHD	SETP_1	!ingevoerde setpoint tientallen
01498 01285 13 00108    	FTCHD	SETP_2	!ingevoerde setpoint honderdtallen
01499 01286 13 00109    	FTCHD	SETP_3	!ingevoerde setpoint duizendtallen
01500 01287 14 02228    	STRD	STP57_0	!setpoint 57 eenheden
01501 01288 14 02229    	STRD	STP57_1	!setpoint 57 tientallen
01502 01289 14 02230    	STRD	STP57_2	!setpoint 57 honderdtallen
01503 01290 14 02231    	STRD	STP57_3	!setpoint 57 duizendtallen
01504                   
01505 01291 17 00000.1  	ANDNT	000.1
01506 01292 00          	NOP	1
01507                   
01508 01293 16 00000.1  L01293	AND	000.1
01509 01294 13 00104    	FTCHD	DWS1_1	!eenheid DWS
01510 01295 13 00105    	FTCHD	DWS1_2	!tiental DWS
01511 01296 15 01508    	COMP	1508	!constante 8
01512 01297 15 01505    	COMP	1505	!constante 5
01513 01298 10 00003.1  	STRB	RESULT	!F=C
01514                   
01515 01299 16 00003.1  	AND	RESULT	!F=C
01516 01300 30 00013    	JFRF	L01313
01517                   
01518 01301 16 00003.1  	AND	RESULT	!F=C
01519 01302 16 00003.3  	AND	ENTER	!triggerpuls enterdrukkn.
01520 01303 13 00106    	FTCHD	SETP_0	!ingevoerde setpoint eenheden
01521 01304 13 00107    	FTCHD	SETP_1	!ingevoerde setpoint tientallen
01522 01305 13 00108    	FTCHD	SETP_2	!ingevoerde setpoint honderdtallen
01523 01306 13 00109    	FTCHD	SETP_3	!ingevoerde setpoint duizendtallen
01524 01307 14 02232    	STRD	STP58_0	!setpoint 58 eenheden
01525 01308 14 02233    	STRD	STP58_1	!setpoint 58 tientallen
01526 01309 14 02234    	STRD	STP58_2	!setpoint 58 honderdtallen
01527 01310 14 02235    	STRD	STP58_3	!setpoint 58 duizendtallen
01528                   
01529 01311 17 00000.1  	ANDNT	000.1
01530 01312 00          	NOP	1
01531                   
01532 01313 16 00000.1  L01313	AND	000.1
01533 01314 13 00104    	FTCHD	DWS1_1	!eenheid DWS
01534 01315 13 00105    	FTCHD	DWS1_2	!tiental DWS
01535 01316 15 01509    	COMP	1509	!constante 9
01536 01317 15 01505    	COMP	1505	!constante 5
01537 01318 10 00003.1  	STRB	RESULT	!F=C
01538                   
01539 01319 16 00003.1  	AND	RESULT	!F=C
01540 01320 30 00013    	JFRF	L01333
01541                   
01542 01321 16 00003.1  	AND	RESULT	!F=C
01543 01322 16 00003.3  	AND	ENTER	!triggerpuls enterdrukkn.
01544 01323 13 00106    	FTCHD	SETP_0	!ingevoerde setpoint eenheden
01545 01324 13 00107    	FTCHD	SETP_1	!ingevoerde setpoint tientallen
01546 01325 13 00108    	FTCHD	SETP_2	!ingevoerde setpoint honderdtallen
01547 01326 13 00109    	FTCHD	SETP_3	!ingevoerde setpoint duizendtallen
01548 01327 14 02236    	STRD	STP59_0	!setpoint 59 eenheden
01549 01328 14 02237    	STRD	STP59_1	!setpoint 59 tientallen
01550 01329 14 02238    	STRD	STP59_2	!setpoint 59 honderdtallen
01551 01330 14 02239    	STRD	STP59_3	!setpoint 59 duizendtallen
01552                   
01553 01331 17 00000.1  	ANDNT	000.1
01554 01332 00          	NOP	1
01555                   
01556 01333 16 00000.1  L01333	AND	000.1
01557 01334 13 00104    	FTCHD	DWS1_1	!eenheid DWS
01558 01335 13 00105    	FTCHD	DWS1_2	!tiental DWS
01559 01336 15 01500    	COMP	1500	!constante 0
01560 01337 15 01506    	COMP	1506	!constante 6
01561 01338 10 00003.1  	STRB	RESULT	!F=C
01562                   
01563 01339 16 00003.1  	AND	RESULT	!F=C
01564 01340 30 00013    	JFRF	L01353
01565                   
01566 01341 16 00003.1  	AND	RESULT	!F=C
01567 01342 16 00003.3  	AND	ENTER	!triggerpuls enterdrukkn.
01568 01343 13 00106    	FTCHD	SETP_0	!ingevoerde setpoint eenheden
01569 01344 13 00107    	FTCHD	SETP_1	!ingevoerde setpoint tientallen
01570 01345 13 00108    	FTCHD	SETP_2	!ingevoerde setpoint honderdtallen
01571 01346 13 00109    	FTCHD	SETP_3	!ingevoerde setpoint duizendtallen
01572 01347 14 02240    	STRD	STP60_0	!setpoint 60 eenheden
01573 01348 14 02241    	STRD	STP60_1	!setpoint 60 tientallen
01574 01349 14 02242    	STRD	STP60_2	!setpoint 60 honderdtallen
01575 01350 14 02243    	STRD	STP60_3	!setpoint 60 duizendtallen
01576                   
01577 01351 17 00000.1  	ANDNT	000.1
01578 01352 00          	NOP	1
01579                   
01580 01353 16 00000.1  L01353	AND	000.1
01581 01354 13 00104    	FTCHD	DWS1_1	!eenheid DWS
01582 01355 13 00105    	FTCHD	DWS1_2	!tiental DWS
01583 01356 15 01501    	COMP	1501	!constante 1
01584 01357 15 01506    	COMP	1506	!constante 6
01585 01358 10 00003.1  	STRB	RESULT	!F=C
01586                   
01587 01359 16 00003.1  	AND	RESULT	!F=C
01588 01360 30 00013    	JFRF	L01373
01589                   
01590 01361 16 00003.1  	AND	RESULT	!F=C
01591 01362 16 00003.3  	AND	ENTER	!triggerpuls enterdrukkn.
01592 01363 13 00106    	FTCHD	SETP_0	!ingevoerde setpoint eenheden
01593 01364 13 00107    	FTCHD	SETP_1	!ingevoerde setpoint tientallen
01594 01365 13 00108    	FTCHD	SETP_2	!ingevoerde setpoint honderdtallen
01595 01366 13 00109    	FTCHD	SETP_3	!ingevoerde setpoint duizendtallen
01596 01367 14 02244    	STRD	STP61_0	!setpoint 61 eenheden
01597 01368 14 02245    	STRD	STP61_1	!setpoint 61 tientallen
01598 01369 14 02246    	STRD	STP61_2	!setpoint 61 honderdtallen
01599 01370 14 02247    	STRD	STP61_3	!setpoint 61 duizendtallen
01600                   
01601 01371 17 00000.1  	ANDNT	000.1
01602 01372 00          	NOP	1
01603                   
01604 01373 16 00000.1  L01373	AND	000.1
01605 01374 13 00104    	FTCHD	DWS1_1	!eenheid DWS
01606 01375 13 00105    	FTCHD	DWS1_2	!tiental DWS
01607 01376 15 01502    	COMP	1502	!constante 2
01608 01377 15 01506    	COMP	1506	!constante 6
01609 01378 10 00003.1  	STRB	RESULT	!F=C
01610                   
01611 01379 16 00003.1  	AND	RESULT	!F=C
01612 01380 30 00013    	JFRF	L01393
01613                   
01614 01381 16 00003.1  	AND	RESULT	!F=C
01615 01382 16 00003.3  	AND	ENTER	!triggerpuls enterdrukkn.
01616 01383 13 00106    	FTCHD	SETP_0	!ingevoerde setpoint eenheden
01617 01384 13 00107    	FTCHD	SETP_1	!ingevoerde setpoint tientallen
01618 01385 13 00108    	FTCHD	SETP_2	!ingevoerde setpoint honderdtallen
01619 01386 13 00109    	FTCHD	SETP_3	!ingevoerde setpoint duizendtallen
01620 01387 14 02248    	STRD	STP62_0	!setpoint 62 eenheden
01621 01388 14 02249    	STRD	STP62_1	!setpoint 62 tientallen
01622 01389 14 02250    	STRD	STP62_2	!setpoint 62 honderdtallen
01623 01390 14 02251    	STRD	STP62_3	!setpoint 62 duizendtallen
01624                   
01625 01391 17 00000.1  	ANDNT	000.1
01626 01392 00          	NOP	1
01627                   
01628 01393 16 00000.1  L01393	AND	000.1
01629 01394 13 00104    	FTCHD	DWS1_1	!eenheid DWS
01630 01395 13 00105    	FTCHD	DWS1_2	!tiental DWS
01631 01396 15 01503    	COMP	1503	!constante 3
01632 01397 15 01506    	COMP	1506	!constante 6
01633 01398 10 00003.1  	STRB	RESULT	!F=C
01634                   
01635 01399 16 00003.1  	AND	RESULT	!F=C
01636 01400 30 00013    	JFRF	L01413
01637                   
01638 01401 16 00003.1  	AND	RESULT	!F=C
01639 01402 16 00003.3  	AND	ENTER	!triggerpuls enterdrukkn.
01640 01403 13 00106    	FTCHD	SETP_0	!ingevoerde setpoint eenheden
01641 01404 13 00107    	FTCHD	SETP_1	!ingevoerde setpoint tientallen
01642 01405 13 00108    	FTCHD	SETP_2	!ingevoerde setpoint honderdtallen
01643 01406 13 00109    	FTCHD	SETP_3	!ingevoerde setpoint duizendtallen
01644 01407 14 02252    	STRD	STP63_0	!setpoint 63 eenheden
01645 01408 14 02253    	STRD	STP63_1	!setpoint 63 tientallen
01646 01409 14 02254    	STRD	STP63_2	!setpoint 63 honderdtallen
01647 01410 14 02255    	STRD	STP63_3	!setpoint 63 duizendtallen
01648                   
01649 01411 17 00000.1  	ANDNT	000.1
01650 01412 00          	NOP	1
01651                   
01652 01413 16 00000.1  L01413	AND	000.1
01653 01414 13 00104    	FTCHD	DWS1_1	!eenheid DWS
01654 01415 13 00105    	FTCHD	DWS1_2	!tiental DWS
01655 01416 15 01504    	COMP	1504	!constante 4
01656 01417 15 01506    	COMP	1506	!constante 6
01657 01418 10 00003.1  	STRB	RESULT	!F=C
01658                   
01659 01419 16 00003.1  	AND	RESULT	!F=C
01660 01420 30 00013    	JFRF	L01433
01661                   
01662 01421 16 00003.1  	AND	RESULT	!F=C
01663 01422 16 00003.3  	AND	ENTER	!triggerpuls enterdrukkn.
01664 01423 13 00106    	FTCHD	SETP_0	!ingevoerde setpoint eenheden
01665 01424 13 00107    	FTCHD	SETP_1	!ingevoerde setpoint tientallen
01666 01425 13 00108    	FTCHD	SETP_2	!ingevoerde setpoint honderdtallen
01667 01426 13 00109    	FTCHD	SETP_3	!ingevoerde setpoint duizendtallen
01668 01427 14 02256    	STRD	STP64_0	!setpoint 64 eenheden
01669 01428 14 02257    	STRD	STP64_1	!setpoint 64 tientallen
01670 01429 14 02258    	STRD	STP64_2	!setpoint 64 honderdtallen
01671 01430 14 02259    	STRD	STP64_3	!setpoint 64 duizendtallen
01672                   
01673 01431 17 00000.1  	ANDNT	000.1
01674 01432 00          	NOP	1
01675                   
01676 01433 16 00000.1  L01433	AND	000.1
01677 01434 13 00104    	FTCHD	DWS1_1	!eenheid DWS
01678 01435 13 00105    	FTCHD	DWS1_2	!tiental DWS
01679 01436 15 01505    	COMP	1505	!constante 5
01680 01437 15 01506    	COMP	1506	!constante 6
01681 01438 10 00003.1  	STRB	RESULT	!F=C
01682                   
01683 01439 16 00003.1  	AND	RESULT	!F=C
01684 01440 30 00013    	JFRF	L01453
01685                   
01686 01441 16 00003.1  	AND	RESULT	!F=C
01687 01442 16 00003.3  	AND	ENTER	!triggerpuls enterdrukkn.
01688 01443 13 00106    	FTCHD	SETP_0	!ingevoerde setpoint eenheden
01689 01444 13 00107    	FTCHD	SETP_1	!ingevoerde setpoint tientallen
01690 01445 13 00108    	FTCHD	SETP_2	!ingevoerde setpoint honderdtallen
01691 01446 13 00109    	FTCHD	SETP_3	!ingevoerde setpoint duizendtallen
01692 01447 14 02260    	STRD	STP65_0	!setpoint 65 eenheden
01693 01448 14 02261    	STRD	STP65_1	!setpoint 65 tientallen
01694 01449 14 02262    	STRD	STP65_2	!setpoint 65 honderdtallen
01695 01450 14 02263    	STRD	STP65_3	!setpoint 65 duizendtallen
01696                   
01697 01451 17 00000.1  	ANDNT	000.1
01698 01452 00          	NOP	1
01699                   
01700 01453 16 00000.1  L01453	AND	000.1
01701 01454 13 00104    	FTCHD	DWS1_1	!eenheid DWS
01702 01455 13 00105    	FTCHD	DWS1_2	!tiental DWS
01703 01456 15 01506    	COMP	1506	!constante 6
01704 01457 15 01506    	COMP	1506	!constante 6
01705 01458 10 00003.1  	STRB	RESULT	!F=C
01706                   
01707 01459 16 00003.1  	AND	RESULT	!F=C
01708 01460 30 00013    	JFRF	L01473
01709                   
01710 01461 16 00003.1  	AND	RESULT	!F=C
01711 01462 16 00003.3  	AND	ENTER	!triggerpuls enterdrukkn.
01712 01463 13 00106    	FTCHD	SETP_0	!ingevoerde setpoint eenheden
01713 01464 13 00107    	FTCHD	SETP_1	!ingevoerde setpoint tientallen
01714 01465 13 00108    	FTCHD	SETP_2	!ingevoerde setpoint honderdtallen
01715 01466 13 00109    	FTCHD	SETP_3	!ingevoerde setpoint duizendtallen
01716 01467 14 02264    	STRD	STP66_0	!setpoint 66 eenheden
01717 01468 14 02265    	STRD	STP66_1	!setpoint 66 tientallen
01718 01469 14 02266    	STRD	STP66_2	!setpoint 66 honderdtallen
01719 01470 14 02267    	STRD	STP66_3	!setpoint 66 duizendtallen
01720                   
01721 01471 17 00000.1  	ANDNT	000.1
01722 01472 00          	NOP	1
01723                   
01724 01473 16 00000.1  L01473	AND	000.1
01725 01474 13 00104    	FTCHD	DWS1_1	!eenheid DWS
01726 01475 13 00105    	FTCHD	DWS1_2	!tiental DWS
01727 01476 15 01507    	COMP	1507	!constante 7
01728 01477 15 01506    	COMP	1506	!constante 6
01729 01478 10 00003.1  	STRB	RESULT	!F=C
01730                   
01731 01479 16 00003.1  	AND	RESULT	!F=C
01732 01480 30 00013    	JFRF	L01493
01733                   
01734 01481 16 00003.1  	AND	RESULT	!F=C
01735 01482 16 00003.3  	AND	ENTER	!triggerpuls enterdrukkn.
01736 01483 13 00106    	FTCHD	SETP_0	!ingevoerde setpoint eenheden
01737 01484 13 00107    	FTCHD	SETP_1	!ingevoerde setpoint tientallen
01738 01485 13 00108    	FTCHD	SETP_2	!ingevoerde setpoint honderdtallen
01739 01486 13 00109    	FTCHD	SETP_3	!ingevoerde setpoint duizendtallen
01740 01487 14 02268    	STRD	STP67_0	!setpoint 67 eenheden
01741 01488 14 02269    	STRD	STP67_1	!setpoint 67 tientallen
01742 01489 14 02270    	STRD	STP67_2	!setpoint 67 honderdtallen
01743 01490 14 02271    	STRD	STP67_3	!setpoint 67 duizendtallen
01744                   
01745 01491 17 00000.1  	ANDNT	000.1
01746 01492 00          	NOP	1
01747                   
01748 01493 16 00000.1  L01493	AND	000.1
01749 01494 13 00104    	FTCHD	DWS1_1	!eenheid DWS
01750 01495 13 00105    	FTCHD	DWS1_2	!tiental DWS
01751 01496 15 01508    	COMP	1508	!constante 8
01752 01497 15 01506    	COMP	1506	!constante 6
01753 01498 10 00003.1  	STRB	RESULT	!F=C
01754                   
01755 01499 16 00003.1  	AND	RESULT	!F=C
01756 01500 30 00013    	JFRF	L01513
01757                   
01758 01501 16 00003.1  	AND	RESULT	!F=C
01759 01502 16 00003.3  	AND	ENTER	!triggerpuls enterdrukkn.
01760 01503 13 00106    	FTCHD	SETP_0	!ingevoerde setpoint eenheden
01761 01504 13 00107    	FTCHD	SETP_1	!ingevoerde setpoint tientallen
01762 01505 13 00108    	FTCHD	SETP_2	!ingevoerde setpoint honderdtallen
01763 01506 13 00109    	FTCHD	SETP_3	!ingevoerde setpoint duizendtallen
01764 01507 14 02272    	STRD	STP68_0	!setpoint 68 eenheden
01765 01508 14 02273    	STRD	STP68_1	!setpoint 68 tientallen
01766 01509 14 02274    	STRD	STP68_2	!setpoint 68 honderdtallen
01767 01510 14 02275    	STRD	STP68_3	!setpoint 68 duizendtallen
01768                   
01769 01511 17 00000.1  	ANDNT	000.1
01770 01512 00          	NOP	1
01771                   
01772 01513 16 00000.1  L01513	AND	000.1
01773 01514 13 00104    	FTCHD	DWS1_1	!eenheid DWS
01774 01515 13 00105    	FTCHD	DWS1_2	!tiental DWS
01775 01516 15 01509    	COMP	1509	!constante 9
01776 01517 15 01506    	COMP	1506	!constante 6
01777 01518 10 00003.1  	STRB	RESULT	!F=C
01778                   
01779 01519 16 00003.1  	AND	RESULT	!F=C
01780 01520 30 00013    	JFRF	L01533
01781                   
01782 01521 16 00003.1  	AND	RESULT	!F=C
01783 01522 16 00003.3  	AND	ENTER	!triggerpuls enterdrukkn.
01784 01523 13 00106    	FTCHD	SETP_0	!ingevoerde setpoint eenheden
01785 01524 13 00107    	FTCHD	SETP_1	!ingevoerde setpoint tientallen
01786 01525 13 00108    	FTCHD	SETP_2	!ingevoerde setpoint honderdtallen
01787 01526 13 00109    	FTCHD	SETP_3	!ingevoerde setpoint duizendtallen
01788 01527 14 02276    	STRD	STP69_0	!setpoint 69 eenheden
01789 01528 14 02277    	STRD	STP69_1	!setpoint 69 tientallen
01790 01529 14 02278    	STRD	STP69_2	!setpoint 69 honderdtallen
01791 01530 14 02279    	STRD	STP69_3	!setpoint 69 duizendtallen
01792                   
01793 01531 17 00000.1  	ANDNT	000.1
01794 01532 00          	NOP	1
01795                   
01796 01533 16 00000.1  L01533	AND	000.1
01797 01534 13 00104    	FTCHD	DWS1_1	!eenheid DWS
01798 01535 13 00105    	FTCHD	DWS1_2	!tiental DWS
01799 01536 15 01500    	COMP	1500	!constante 0
01800 01537 15 01507    	COMP	1507	!constante 7
01801 01538 10 00003.1  	STRB	RESULT	!F=C
01802                   
01803 01539 16 00003.1  	AND	RESULT	!F=C
01804 01540 30 00013    	JFRF	L01553
01805                   
01806 01541 16 00003.1  	AND	RESULT	!F=C
01807 01542 16 00003.3  	AND	ENTER	!triggerpuls enterdrukkn.
01808 01543 13 00106    	FTCHD	SETP_0	!ingevoerde setpoint eenheden
01809 01544 13 00107    	FTCHD	SETP_1	!ingevoerde setpoint tientallen
01810 01545 13 00108    	FTCHD	SETP_2	!ingevoerde setpoint honderdtallen
01811 01546 13 00109    	FTCHD	SETP_3	!ingevoerde setpoint duizendtallen
01812 01547 14 02280    	STRD	STP70_0	!setpoint 70 eenheden
01813 01548 14 02281    	STRD	STP70_1	!setpoint 70 tientallen
01814 01549 14 02282    	STRD	STP70_2	!setpoint 70 honderdtallen
01815 01550 14 02283    	STRD	STP70_3	!setpoint 70 duizendtallen
01816                   
01817 01551 17 00000.1  	ANDNT	000.1
01818 01552 00          	NOP	1
01819                   
01820 01553 16 00000.1  L01553	AND	000.1
01821 01554 13 00104    	FTCHD	DWS1_1	!eenheid DWS
01822 01555 13 00105    	FTCHD	DWS1_2	!tiental DWS
01823 01556 15 01501    	COMP	1501	!constante 1
01824 01557 15 01507    	COMP	1507	!constante 7
01825 01558 10 00003.1  	STRB	RESULT	!F=C
01826                   
01827 01559 16 00003.1  	AND	RESULT	!F=C
01828 01560 30 00013    	JFRF	L01573
01829                   
01830 01561 16 00003.1  	AND	RESULT	!F=C
01831 01562 16 00003.3  	AND	ENTER	!triggerpuls enterdrukkn.
01832 01563 13 00106    	FTCHD	SETP_0	!ingevoerde setpoint eenheden
01833 01564 13 00107    	FTCHD	SETP_1	!ingevoerde setpoint tientallen
01834 01565 13 00108    	FTCHD	SETP_2	!ingevoerde setpoint honderdtallen
01835 01566 13 00109    	FTCHD	SETP_3	!ingevoerde setpoint duizendtallen
01836 01567 14 02284    	STRD	STP71_0	!setpoint 71 eenheden
01837 01568 14 02285    	STRD	STP71_1	!setpoint 71 tientallen
01838 01569 14 02286    	STRD	STP71_2	!setpoint 71 honderdtallen
01839 01570 14 02287    	STRD	STP71_3	!setpoint 71 duizendtallen
01840                   
01841 01571 17 00000.1  	ANDNT	000.1
01842 01572 00          	NOP	1
01843                   
01844 01573 16 00000.1  L01573	AND	000.1
01845 01574 13 00104    	FTCHD	DWS1_1	!eenheid DWS
01846 01575 13 00105    	FTCHD	DWS1_2	!tiental DWS
01847 01576 15 01502    	COMP	1502	!constante 2
01848 01577 15 01507    	COMP	1507	!constante 7
01849 01578 10 00003.1  	STRB	RESULT	!F=C
01850                   
01851 01579 16 00003.1  	AND	RESULT	!F=C
01852 01580 30 00013    	JFRF	L01593
01853                   
01854 01581 16 00003.1  	AND	RESULT	!F=C
01855 01582 16 00003.3  	AND	ENTER	!triggerpuls enterdrukkn.
01856 01583 13 00106    	FTCHD	SETP_0	!ingevoerde setpoint eenheden
01857 01584 13 00107    	FTCHD	SETP_1	!ingevoerde setpoint tientallen
01858 01585 13 00108    	FTCHD	SETP_2	!ingevoerde setpoint honderdtallen
01859 01586 13 00109    	FTCHD	SETP_3	!ingevoerde setpoint duizendtallen
01860 01587 14 02288    	STRD	STP72_0	!setpoint 72 eenheden
01861 01588 14 02289    	STRD	STP72_1	!setpoint 72 tientallen
01862 01589 14 02290    	STRD	STP72_2	!setpoint 72 honderdtallen
01863 01590 14 02291    	STRD	STP72_3	!setpoint 72 duizendtallen
01864                   
01865 01591 17 00000.1  	ANDNT	000.1
01866 01592 00          	NOP	1
01867                   
01868 01593 16 00000.1  L01593	AND	000.1
01869 01594 13 00104    	FTCHD	DWS1_1	!eenheid DWS
01870 01595 13 00105    	FTCHD	DWS1_2	!tiental DWS
01871 01596 15 01503    	COMP	1503	!constante 3
01872 01597 15 01507    	COMP	1507	!constante 7
01873 01598 10 00003.1  	STRB	RESULT	!F=C
01874                   
01875 01599 16 00003.1  	AND	RESULT	!F=C
01876 01600 30 00013    	JFRF	L01613
01877                   
01878 01601 16 00003.1  	AND	RESULT	!F=C
01879 01602 16 00003.3  	AND	ENTER	!triggerpuls enterdrukkn.
01880 01603 13 00106    	FTCHD	SETP_0	!ingevoerde setpoint eenheden
01881 01604 13 00107    	FTCHD	SETP_1	!ingevoerde setpoint tientallen
01882 01605 13 00108    	FTCHD	SETP_2	!ingevoerde setpoint honderdtallen
01883 01606 13 00109    	FTCHD	SETP_3	!ingevoerde setpoint duizendtallen
01884 01607 14 02292    	STRD	STP73_0	!setpoint 73 eenheden
01885 01608 14 02293    	STRD	STP73_1	!setpoint 73 tientallen
01886 01609 14 02294    	STRD	STP73_2	!setpoint 73 honderdtallen
01887 01610 14 02295    	STRD	STP73_3	!setpoint 73 duizendtallen
01888                   
01889 01611 17 00000.1  	ANDNT	000.1
01890 01612 00          	NOP	1
01891                   
01892 01613 16 00000.1  L01613	AND	000.1
01893 01614 13 00104    	FTCHD	DWS1_1	!eenheid DWS
01894 01615 13 00105    	FTCHD	DWS1_2	!tiental DWS
01895 01616 15 01504    	COMP	1504	!constante 4
01896 01617 15 01507    	COMP	1507	!constante 7
01897 01618 10 00003.1  	STRB	RESULT	!F=C
01898                   
01899 01619 16 00003.1  	AND	RESULT	!F=C
01900 01620 30 00013    	JFRF	L01633
01901                   
01902 01621 16 00003.1  	AND	RESULT	!F=C
01903 01622 16 00003.3  	AND	ENTER	!triggerpuls enterdrukkn.
01904 01623 13 00106    	FTCHD	SETP_0	!ingevoerde setpoint eenheden
01905 01624 13 00107    	FTCHD	SETP_1	!ingevoerde setpoint tientallen
01906 01625 13 00108    	FTCHD	SETP_2	!ingevoerde setpoint honderdtallen
01907 01626 13 00109    	FTCHD	SETP_3	!ingevoerde setpoint duizendtallen
01908 01627 14 02296    	STRD	STP74_0	!setpoint 74 eenheden
01909 01628 14 02297    	STRD	STP74_1	!setpoint 74 tientallen
01910 01629 14 02298    	STRD	STP74_2	!setpoint 74 honderdtallen
01911 01630 14 02299    	STRD	STP74_3	!setpoint 74 duizendtallen
01912                   
01913 01631 17 00000.1  	ANDNT	000.1
01914 01632 00          	NOP	1
01915                   
01916 01633 16 00000.1  L01633	AND	000.1
01917 01634 13 00104    	FTCHD	DWS1_1	!eenheid DWS
01918 01635 13 00105    	FTCHD	DWS1_2	!tiental DWS
01919 01636 15 01505    	COMP	1505	!constante 5
01920 01637 15 01507    	COMP	1507	!constante 7
01921 01638 10 00003.1  	STRB	RESULT	!F=C
01922                   
01923 01639 16 00003.1  	AND	RESULT	!F=C
01924 01640 30 00013    	JFRF	L01653
01925                   
01926 01641 16 00003.1  	AND	RESULT	!F=C
01927 01642 16 00003.3  	AND	ENTER	!triggerpuls enterdrukkn.
01928 01643 13 00106    	FTCHD	SETP_0	!ingevoerde setpoint eenheden
01929 01644 13 00107    	FTCHD	SETP_1	!ingevoerde setpoint tientallen
01930 01645 13 00108    	FTCHD	SETP_2	!ingevoerde setpoint honderdtallen
01931 01646 13 00109    	FTCHD	SETP_3	!ingevoerde setpoint duizendtallen
01932 01647 14 02300    	STRD	STP75_0	!setpoint 75 eenheden
01933 01648 14 02301    	STRD	STP75_1	!setpoint 75 tientallen
01934 01649 14 02302    	STRD	STP75_2	!setpoint 75 honderdtallen
01935 01650 14 02303    	STRD	STP75_3	!setpoint 75 duizendtallen
01936                   
01937 01651 17 00000.1  	ANDNT	000.1
01938 01652 00          	NOP	1
01939                   
01940 01653 16 00000.1  L01653	AND	000.1
01941 01654 13 00104    	FTCHD	DWS1_1	!eenheid DWS
01942 01655 13 00105    	FTCHD	DWS1_2	!tiental DWS
01943 01656 15 01506    	COMP	1506	!constante 6
01944 01657 15 01507    	COMP	1507	!constante 7
01945 01658 10 00003.1  	STRB	RESULT	!F=C
01946                   
01947 01659 16 00003.1  	AND	RESULT	!F=C
01948 01660 30 00013    	JFRF	L01673
01949                   
01950 01661 16 00003.1  	AND	RESULT	!F=C
01951 01662 16 00003.3  	AND	ENTER	!triggerpuls enterdrukkn.
01952 01663 13 00106    	FTCHD	SETP_0	!ingevoerde setpoint eenheden
01953 01664 13 00107    	FTCHD	SETP_1	!ingevoerde setpoint tientallen
01954 01665 13 00108    	FTCHD	SETP_2	!ingevoerde setpoint honderdtallen
01955 01666 13 00109    	FTCHD	SETP_3	!ingevoerde setpoint duizendtallen
01956 01667 14 02304    	STRD	STP76_0	!setpoint 76 eenheden
01957 01668 14 02305    	STRD	STP76_1	!setpoint 76 tientallen
01958 01669 14 02306    	STRD	STP76_2	!setpoint 76 honderdtallen
01959 01670 14 02307    	STRD	STP76_3	!setpoint 76 duizendtallen
01960                   
01961 01671 17 00000.1  	ANDNT	000.1
01962 01672 00          	NOP	1
01963                   
01964 01673 16 00000.1  L01673	AND	000.1
01965 01674 13 00104    	FTCHD	DWS1_1	!eenheid DWS
01966 01675 13 00105    	FTCHD	DWS1_2	!tiental DWS
01967 01676 15 01507    	COMP	1507	!constante 7
01968 01677 15 01507    	COMP	1507	!constante 7
01969 01678 10 00003.1  	STRB	RESULT	!F=C
01970                   
01971 01679 16 00003.1  	AND	RESULT	!F=C
01972 01680 30 00013    	JFRF	L01693
01973                   
01974 01681 16 00003.1  	AND	RESULT	!F=C
01975 01682 16 00003.3  	AND	ENTER	!triggerpuls enterdrukkn.
01976 01683 13 00106    	FTCHD	SETP_0	!ingevoerde setpoint eenheden
01977 01684 13 00107    	FTCHD	SETP_1	!ingevoerde setpoint tientallen
01978 01685 13 00108    	FTCHD	SETP_2	!ingevoerde setpoint honderdtallen
01979 01686 13 00109    	FTCHD	SETP_3	!ingevoerde setpoint duizendtallen
01980 01687 14 02308    	STRD	STP77_0	!setpoint 77 eenheden
01981 01688 14 02309    	STRD	STP77_1	!setpoint 77 tientallen
01982 01689 14 02310    	STRD	STP77_2	!setpoint 77 honderdtallen
01983 01690 14 02311    	STRD	STP77_3	!setpoint 77 duizendtallen
01984                   
01985 01691 17 00000.1  	ANDNT	000.1
01986 01692 00          	NOP	1
01987                   
01988 01693 16 00000.1  L01693	AND	000.1
01989 01694 13 00104    	FTCHD	DWS1_1	!eenheid DWS
01990 01695 13 00105    	FTCHD	DWS1_2	!tiental DWS
01991 01696 15 01508    	COMP	1508	!constante 8
01992 01697 15 01507    	COMP	1507	!constante 7
01993 01698 10 00003.1  	STRB	RESULT	!F=C
01994                   
01995 01699 16 00003.1  	AND	RESULT	!F=C
01996 01700 30 00013    	JFRF	L01713
01997                   
01998 01701 16 00003.1  	AND	RESULT	!F=C
01999 01702 16 00003.3  	AND	ENTER	!triggerpuls enterdrukkn.
02000 01703 13 00106    	FTCHD	SETP_0	!ingevoerde setpoint eenheden
02001 01704 13 00107    	FTCHD	SETP_1	!ingevoerde setpoint tientallen
02002 01705 13 00108    	FTCHD	SETP_2	!ingevoerde setpoint honderdtallen
02003 01706 13 00109    	FTCHD	SETP_3	!ingevoerde setpoint duizendtallen
02004 01707 14 02312    	STRD	STP78_0	!setpoint 78 eenheden
02005 01708 14 02313    	STRD	STP78_1	!setpoint 78 tientallen
02006 01709 14 02314    	STRD	STP78_2	!setpoint 78 honderdtallen
02007 01710 14 02315    	STRD	STP78_3	!setpoint 78 duizendtallen
02008                   
02009 01711 17 00000.1  	ANDNT	000.1
02010 01712 00          	NOP	1
02011                   
02012 01713 16 00000.1  L01713	AND	000.1
02013 01714 13 00104    	FTCHD	DWS1_1	!eenheid DWS
02014 01715 13 00105    	FTCHD	DWS1_2	!tiental DWS
02015 01716 15 01509    	COMP	1509	!constante 9
02016 01717 15 01507    	COMP	1507	!constante 7
02017 01718 10 00003.1  	STRB	RESULT	!F=C
02018                   
02019 01719 16 00003.1  	AND	RESULT	!F=C
02020 01720 30 00013    	JFRF	L01733
02021                   
02022 01721 16 00003.1  	AND	RESULT	!F=C
02023 01722 16 00003.3  	AND	ENTER	!triggerpuls enterdrukkn.
02024 01723 13 00106    	FTCHD	SETP_0	!ingevoerde setpoint eenheden
02025 01724 13 00107    	FTCHD	SETP_1	!ingevoerde setpoint tientallen
02026 01725 13 00108    	FTCHD	SETP_2	!ingevoerde setpoint honderdtallen
02027 01726 13 00109    	FTCHD	SETP_3	!ingevoerde setpoint duizendtallen
02028 01727 14 02316    	STRD	STP79_0	!setpoint 79 eenheden
02029 01728 14 02317    	STRD	STP79_1	!setpoint 79 tientallen
02030 01729 14 02318    	STRD	STP79_2	!setpoint 79 honderdtallen
02031 01730 14 02319    	STRD	STP79_3	!setpoint 79 duizendtallen
02032                   
02033 01731 17 00000.1  	ANDNT	000.1
02034 01732 00          	NOP	1
02035                   
02036 01733 16 00000.1  L01733	AND	000.1
02037 01734 13 00104    	FTCHD	DWS1_1	!eenheid DWS
02038 01735 13 00105    	FTCHD	DWS1_2	!tiental DWS
02039 01736 15 01500    	COMP	1500	!constante 0
02040 01737 15 01508    	COMP	1508	!constante 8
02041 01738 10 00003.1  	STRB	RESULT	!F=C
02042                   
02043 01739 16 00003.1  	AND	RESULT	!F=C
02044 01740 30 00013    	JFRF	L01753
02045                   
02046 01741 16 00003.1  	AND	RESULT	!F=C
02047 01742 16 00003.3  	AND	ENTER	!triggerpuls enterdrukkn.
02048 01743 13 00106    	FTCHD	SETP_0	!ingevoerde setpoint eenheden
02049 01744 13 00107    	FTCHD	SETP_1	!ingevoerde setpoint tientallen
02050 01745 13 00108    	FTCHD	SETP_2	!ingevoerde setpoint honderdtallen
02051 01746 13 00109    	FTCHD	SETP_3	!ingevoerde setpoint duizendtallen
02052 01747 14 02320    	STRD	STP80_0	!setpoint 80 eenheden
02053 01748 14 02321    	STRD	STP80_1	!setpoint 80 tientallen
02054 01749 14 02322    	STRD	STP80_2	!setpoint 80 honderdtallen
02055 01750 14 02323    	STRD	STP80_3	!setpoint 80 duizendtallen
02056                   
02057 01751 17 00000.1  	ANDNT	000.1
02058 01752 00          	NOP	1
02059                   
02060 01753 16 00000.1  L01753	AND	000.1
02061 01754 13 00104    	FTCHD	DWS1_1	!eenheid DWS
02062 01755 13 00105    	FTCHD	DWS1_2	!tiental DWS
02063 01756 15 01501    	COMP	1501	!constante 1
02064 01757 15 01508    	COMP	1508	!constante 8
02065 01758 10 00003.1  	STRB	RESULT	!F=C
02066                   
02067 01759 16 00003.1  	AND	RESULT	!F=C
02068 01760 30 00013    	JFRF	L01773
02069                   
02070 01761 16 00003.1  	AND	RESULT	!F=C
02071 01762 16 00003.3  	AND	ENTER	!triggerpuls enterdrukkn.
02072 01763 13 00106    	FTCHD	SETP_0	!ingevoerde setpoint eenheden
02073 01764 13 00107    	FTCHD	SETP_1	!ingevoerde setpoint tientallen
02074 01765 13 00108    	FTCHD	SETP_2	!ingevoerde setpoint honderdtallen
02075 01766 13 00109    	FTCHD	SETP_3	!ingevoerde setpoint duizendtallen
02076 01767 14 02324    	STRD	STP81_0	!setpoint 81 eenheden
02077 01768 14 02325    	STRD	STP81_1	!setpoint 81 tientallen
02078 01769 14 02326    	STRD	STP81_2	!setpoint 81 honderdtallen
02079 01770 14 02327    	STRD	STP81_3	!setpoint 81 duizendtallen
02080                   
02081 01771 17 00000.1  	ANDNT	000.1
02082 01772 00          	NOP	1
02083                   
02084 01773 16 00000.1  L01773	AND	000.1
02085 01774 13 00104    	FTCHD	DWS1_1	!eenheid DWS
02086 01775 13 00105    	FTCHD	DWS1_2	!tiental DWS
02087 01776 15 01502    	COMP	1502	!constante 2
02088 01777 15 01508    	COMP	1508	!constante 8
02089 01778 10 00003.1  	STRB	RESULT	!F=C
02090                   
02091 01779 16 00003.1  	AND	RESULT	!F=C
02092 01780 30 00013    	JFRF	L01793
02093                   
02094 01781 16 00003.1  	AND	RESULT	!F=C
02095 01782 16 00003.3  	AND	ENTER	!triggerpuls enterdrukkn.
02096 01783 13 00106    	FTCHD	SETP_0	!ingevoerde setpoint eenheden
02097 01784 13 00107    	FTCHD	SETP_1	!ingevoerde setpoint tientallen
02098 01785 13 00108    	FTCHD	SETP_2	!ingevoerde setpoint honderdtallen
02099 01786 13 00109    	FTCHD	SETP_3	!ingevoerde setpoint duizendtallen
02100 01787 14 02328    	STRD	STP82_0	!setpoint 82 eenheden
02101 01788 14 02329    	STRD	STP82_1	!setpoint 82 tientallen
02102 01789 14 02330    	STRD	STP82_2	!setpoint 82 honderdtallen
02103 01790 14 02331    	STRD	STP82_3	!setpoint 82 duizendtallen
02104                   
02105 01791 17 00000.1  	ANDNT	000.1
02106 01792 00          	NOP	1
02107                   
02108 01793 16 00000.1  L01793	AND	000.1
02109 01794 13 00104    	FTCHD	DWS1_1	!eenheid DWS
02110 01795 13 00105    	FTCHD	DWS1_2	!tiental DWS
02111 01796 15 01503    	COMP	1503	!constante 3
02112 01797 15 01508    	COMP	1508	!constante 8
02113 01798 10 00003.1  	STRB	RESULT	!F=C
02114                   
02115 01799 16 00003.1  	AND	RESULT	!F=C
02116 01800 30 00013    	JFRF	L01813
02117                   
02118 01801 16 00003.1  	AND	RESULT	!F=C
02119 01802 16 00003.3  	AND	ENTER	!triggerpuls enterdrukkn.
02120 01803 13 00106    	FTCHD	SETP_0	!ingevoerde setpoint eenheden
02121 01804 13 00107    	FTCHD	SETP_1	!ingevoerde setpoint tientallen
02122 01805 13 00108    	FTCHD	SETP_2	!ingevoerde setpoint honderdtallen
02123 01806 13 00109    	FTCHD	SETP_3	!ingevoerde setpoint duizendtallen
02124 01807 14 02332    	STRD	STP83_0	!setpoint 83 eenheden
02125 01808 14 02333    	STRD	STP83_1	!setpoint 83 tientallen
02126 01809 14 02334    	STRD	STP83_2	!setpoint 83 honderdtallen
02127 01810 14 02335    	STRD	STP83_3	!setpoint 83 duizendtallen
02128                   
02129 01811 17 00000.1  	ANDNT	000.1
02130 01812 00          	NOP	1
02131                   
02132 01813 16 00000.1  L01813	AND	000.1
02133 01814 13 00104    	FTCHD	DWS1_1	!eenheid DWS
02134 01815 13 00105    	FTCHD	DWS1_2	!tiental DWS
02135 01816 15 01504    	COMP	1504	!constante 4
02136 01817 15 01508    	COMP	1508	!constante 8
02137 01818 10 00003.1  	STRB	RESULT	!F=C
02138                   
02139 01819 16 00003.1  	AND	RESULT	!F=C
02140 01820 30 00013    	JFRF	L01833
02141                   
02142 01821 16 00003.1  	AND	RESULT	!F=C
02143 01822 16 00003.3  	AND	ENTER	!triggerpuls enterdrukkn.
02144 01823 13 00106    	FTCHD	SETP_0	!ingevoerde setpoint eenheden
02145 01824 13 00107    	FTCHD	SETP_1	!ingevoerde setpoint tientallen
02146 01825 13 00108    	FTCHD	SETP_2	!ingevoerde setpoint honderdtallen
02147 01826 13 00109    	FTCHD	SETP_3	!ingevoerde setpoint duizendtallen
02148 01827 14 02336    	STRD	STP84_0	!setpoint 84 eenheden
02149 01828 14 02337    	STRD	STP84_1	!setpoint 84 tientallen
02150 01829 14 02338    	STRD	STP84_2	!setpoint 84 honderdtallen
02151 01830 14 02339    	STRD	STP84_3	!setpoint 84 duizendtallen
02152                   
02153 01831 17 00000.1  	ANDNT	000.1
02154 01832 00          	NOP	1
02155                   
02156 01833 16 00000.1  L01833	AND	000.1
02157 01834 13 00104    	FTCHD	DWS1_1	!eenheid DWS
02158 01835 13 00105    	FTCHD	DWS1_2	!tiental DWS
02159 01836 15 01505    	COMP	1505	!constante 5
02160 01837 15 01508    	COMP	1508	!constante 8
02161 01838 10 00003.1  	STRB	RESULT	!F=C
02162                   
02163 01839 16 00003.1  	AND	RESULT	!F=C
02164 01840 30 00013    	JFRF	L01853
02165                   
02166 01841 16 00003.1  	AND	RESULT	!F=C
02167 01842 16 00003.3  	AND	ENTER	!triggerpuls enterdrukkn.
02168 01843 13 00106    	FTCHD	SETP_0	!ingevoerde setpoint eenheden
02169 01844 13 00107    	FTCHD	SETP_1	!ingevoerde setpoint tientallen
02170 01845 13 00108    	FTCHD	SETP_2	!ingevoerde setpoint honderdtallen
02171 01846 13 00109    	FTCHD	SETP_3	!ingevoerde setpoint duizendtallen
02172 01847 14 02340    	STRD	STP85_0	!setpoint 85 eenheden
02173 01848 14 02341    	STRD	STP85_1	!setpoint 85 tientallen
02174 01849 14 02342    	STRD	STP85_2	!setpoint 85 honderdtallen
02175 01850 14 02343    	STRD	STP85_3	!setpoint 85 duizendtallen
02176                   
02177 01851 17 00000.1  	ANDNT	000.1
02178 01852 00          	NOP	1
02179                   
02180 01853 16 00000.1  L01853	AND	000.1
02181 01854 13 00104    	FTCHD	DWS1_1	!eenheid DWS
02182 01855 13 00105    	FTCHD	DWS1_2	!tiental DWS
02183 01856 15 01506    	COMP	1506	!constante 6
02184 01857 15 01508    	COMP	1508	!constante 8
02185 01858 10 00003.1  	STRB	RESULT	!F=C
02186                   
02187 01859 16 00003.1  	AND	RESULT	!F=C
02188 01860 30 00013    	JFRF	L01873
02189                   
02190 01861 16 00003.1  	AND	RESULT	!F=C
02191 01862 16 00003.3  	AND	ENTER	!triggerpuls enterdrukkn.
02192 01863 13 00106    	FTCHD	SETP_0	!ingevoerde setpoint eenheden
02193 01864 13 00107    	FTCHD	SETP_1	!ingevoerde setpoint tientallen
02194 01865 13 00108    	FTCHD	SETP_2	!ingevoerde setpoint honderdtallen
02195 01866 13 00109    	FTCHD	SETP_3	!ingevoerde setpoint duizendtallen
02196 01867 14 02344    	STRD	STP86_0	!setpoint 86 eenheden
02197 01868 14 02345    	STRD	STP86_1	!setpoint 86 tientallen
02198 01869 14 02346    	STRD	STP86_2	!setpoint 86 honderdtallen
02199 01870 14 02347    	STRD	STP86_3	!setpoint 86 duizendtallen
02200                   
02201 01871 17 00000.1  	ANDNT	000.1
02202 01872 00          	NOP	1
02203                   
02204 01873 16 00000.1  L01873	AND	000.1
02205 01874 13 00104    	FTCHD	DWS1_1	!eenheid DWS
02206 01875 13 00105    	FTCHD	DWS1_2	!tiental DWS
02207 01876 15 01507    	COMP	1507	!constante 7
02208 01877 15 01508    	COMP	1508	!constante 8
02209 01878 10 00003.1  	STRB	RESULT	!F=C
02210                   
02211 01879 16 00003.1  	AND	RESULT	!F=C
02212 01880 30 00013    	JFRF	L01893
02213                   
02214 01881 16 00003.1  	AND	RESULT	!F=C
02215 01882 16 00003.3  	AND	ENTER	!triggerpuls enterdrukkn.
02216 01883 13 00106    	FTCHD	SETP_0	!ingevoerde setpoint eenheden
02217 01884 13 00107    	FTCHD	SETP_1	!ingevoerde setpoint tientallen
02218 01885 13 00108    	FTCHD	SETP_2	!ingevoerde setpoint honderdtallen
02219 01886 13 00109    	FTCHD	SETP_3	!ingevoerde setpoint duizendtallen
02220 01887 14 02348    	STRD	STP87_0	!setpoint 87 eenheden
02221 01888 14 02349    	STRD	STP87_1	!setpoint 87 tientallen
02222 01889 14 02350    	STRD	STP87_2	!setpoint 87 honderdtallen
02223 01890 14 02351    	STRD	STP87_3	!setpoint 87 duizendtallen
02224                   
02225 01891 17 00000.1  	ANDNT	000.1
02226 01892 00          	NOP	1
02227                   
02228 01893 16 00000.1  L01893	AND	000.1
02229 01894 13 00104    	FTCHD	DWS1_1	!eenheid DWS
02230 01895 13 00105    	FTCHD	DWS1_2	!tiental DWS
02231 01896 15 01508    	COMP	1508	!constante 8
02232 01897 15 01508    	COMP	1508	!constante 8
02233 01898 10 00003.1  	STRB	RESULT	!F=C
02234                   
02235 01899 16 00003.1  	AND	RESULT	!F=C
02236 01900 30 00013    	JFRF	L01913
02237                   
02238 01901 16 00003.1  	AND	RESULT	!F=C
02239 01902 16 00003.3  	AND	ENTER	!triggerpuls enterdrukkn.
02240 01903 13 00106    	FTCHD	SETP_0	!ingevoerde setpoint eenheden
02241 01904 13 00107    	FTCHD	SETP_1	!ingevoerde setpoint tientallen
02242 01905 13 00108    	FTCHD	SETP_2	!ingevoerde setpoint honderdtallen
02243 01906 13 00109    	FTCHD	SETP_3	!ingevoerde setpoint duizendtallen
02244 01907 14 02352    	STRD	STP88_0	!setpoint 88 eenheden
02245 01908 14 02353    	STRD	STP88_1	!setpoint 88 tientallen
02246 01909 14 02354    	STRD	STP88_2	!setpoint 88 honderdtallen
02247 01910 14 02355    	STRD	STP88_3	!setpoint 88 duizendtallen
02248                   
02249 01911 17 00000.1  	ANDNT	000.1
02250 01912 00          	NOP	1
02251                   
02252 01913 16 00000.1  L01913	AND	000.1
02253 01914 13 00104    	FTCHD	DWS1_1	!eenheid DWS
02254 01915 13 00105    	FTCHD	DWS1_2	!tiental DWS
02255 01916 15 01509    	COMP	1509	!constante 9
02256 01917 15 01508    	COMP	1508	!constante 8
02257 01918 10 00003.1  	STRB	RESULT	!F=C
02258                   
02259 01919 16 00003.1  	AND	RESULT	!F=C
02260 01920 30 00013    	JFRF	L01933
02261                   
02262 01921 16 00003.1  	AND	RESULT	!F=C
02263 01922 16 00003.3  	AND	ENTER	!triggerpuls enterdrukkn.
02264 01923 13 00106    	FTCHD	SETP_0	!ingevoerde setpoint eenheden
02265 01924 13 00107    	FTCHD	SETP_1	!ingevoerde setpoint tientallen
02266 01925 13 00108    	FTCHD	SETP_2	!ingevoerde setpoint honderdtallen
02267 01926 13 00109    	FTCHD	SETP_3	!ingevoerde setpoint duizendtallen
02268 01927 14 02356    	STRD	STP89_0	!setpoint 89 eenheden
02269 01928 14 02357    	STRD	STP89_1	!setpoint 89 tientallen
02270 01929 14 02358    	STRD	STP89_2	!setpoint 89 honderdtallen
02271 01930 14 02359    	STRD	STP89_3	!setpoint 89 duizendtallen
02272                   
02273 01931 17 00000.1  	ANDNT	000.1
02274 01932 00          	NOP	1
02275                   
02276 01933 16 00000.1  L01933	AND	000.1
02277 01934 13 00104    	FTCHD	DWS1_1	!eenheid DWS
02278 01935 13 00105    	FTCHD	DWS1_2	!tiental DWS
02279 01936 15 01500    	COMP	1500	!constante 0
02280 01937 15 01509    	COMP	1509	!constante 9
02281 01938 10 00003.1  	STRB	RESULT	!F=C
02282                   
02283 01939 16 00003.1  	AND	RESULT	!F=C
02284 01940 30 00013    	JFRF	L01953
02285                   
02286 01941 16 00003.1  	AND	RESULT	!F=C
02287 01942 16 00003.3  	AND	ENTER	!triggerpuls enterdrukkn.
02288 01943 13 00106    	FTCHD	SETP_0	!ingevoerde setpoint eenheden
02289 01944 13 00107    	FTCHD	SETP_1	!ingevoerde setpoint tientallen
02290 01945 13 00108    	FTCHD	SETP_2	!ingevoerde setpoint honderdtallen
02291 01946 13 00109    	FTCHD	SETP_3	!ingevoerde setpoint duizendtallen
02292 01947 14 02360    	STRD	STP90_0	!setpoint 90 eenheden
02293 01948 14 02361    	STRD	STP90_1	!setpoint 90 tientallen
02294 01949 14 02362    	STRD	STP90_2	!setpoint 90 honderdtallen
02295 01950 14 02363    	STRD	STP90_3	!setpoint 90 duizendtallen
02296                   
02297 01951 17 00000.1  	ANDNT	000.1
02298 01952 00          	NOP	1
02299                   
02300 01953 16 00000.1  L01953	AND	000.1
02301 01954 13 00104    	FTCHD	DWS1_1	!eenheid DWS
02302 01955 13 00105    	FTCHD	DWS1_2	!tiental DWS
02303 01956 15 01501    	COMP	1501	!constante 1
02304 01957 15 01509    	COMP	1509	!constante 9
02305 01958 10 00003.1  	STRB	RESULT	!F=C
02306                   
02307 01959 16 00003.1  	AND	RESULT	!F=C
02308 01960 30 00013    	JFRF	L01973
02309                   
02310 01961 16 00003.1  	AND	RESULT	!F=C
02311 01962 16 00003.3  	AND	ENTER	!triggerpuls enterdrukkn.
02312 01963 13 00106    	FTCHD	SETP_0	!ingevoerde setpoint eenheden
02313 01964 13 00107    	FTCHD	SETP_1	!ingevoerde setpoint tientallen
02314 01965 13 00108    	FTCHD	SETP_2	!ingevoerde setpoint honderdtallen
02315 01966 13 00109    	FTCHD	SETP_3	!ingevoerde setpoint duizendtallen
02316 01967 14 02364    	STRD	STP91_0	!setpoint 91 eenheden
02317 01968 14 02365    	STRD	STP91_1	!setpoint 91 tientallen
02318 01969 14 02366    	STRD	STP91_2	!setpoint 91 honderdtallen
02319 01970 14 02367    	STRD	STP91_3	!setpoint 91 duizendtallen
02320                   
02321 01971 17 00000.1  	ANDNT	000.1
02322 01972 00          	NOP	1
02323                   
02324 01973 16 00000.1  L01973	AND	000.1
02325 01974 13 00104    	FTCHD	DWS1_1	!eenheid DWS
02326 01975 13 00105    	FTCHD	DWS1_2	!tiental DWS
02327 01976 15 01502    	COMP	1502	!constante 2
02328 01977 15 01509    	COMP	1509	!constante 9
02329 01978 10 00003.1  	STRB	RESULT	!F=C
02330                   
02331 01979 16 00003.1  	AND	RESULT	!F=C
02332 01980 30 00013    	JFRF	L01993
02333                   
02334 01981 16 00003.1  	AND	RESULT	!F=C
02335 01982 16 00003.3  	AND	ENTER	!triggerpuls enterdrukkn.
02336 01983 13 00106    	FTCHD	SETP_0	!ingevoerde setpoint eenheden
02337 01984 13 00107    	FTCHD	SETP_1	!ingevoerde setpoint tientallen
02338 01985 13 00108    	FTCHD	SETP_2	!ingevoerde setpoint honderdtallen
02339 01986 13 00109    	FTCHD	SETP_3	!ingevoerde setpoint duizendtallen
02340 01987 14 02368    	STRD	STP92_0	!setpoint 92 eenheden
02341 01988 14 02369    	STRD	STP92_1	!setpoint 92 tientallen
02342 01989 14 02370    	STRD	STP92_2	!setpoint 92 honderdtallen
02343 01990 14 02371    	STRD	STP92_3	!setpoint 92 duizendtallen
02344                   
02345 01991 17 00000.1  	ANDNT	000.1
02346 01992 00          	NOP	1
02347                   
02348 01993 16 00000.1  L01993	AND	000.1
02349 01994 13 00104    	FTCHD	DWS1_1	!eenheid DWS
02350 01995 13 00105    	FTCHD	DWS1_2	!tiental DWS
02351 01996 15 01503    	COMP	1503	!constante 3
02352 01997 15 01509    	COMP	1509	!constante 9
02353 01998 10 00003.1  	STRB	RESULT	!F=C
02354                   
02355 01999 16 00003.1  	AND	RESULT	!F=C
02356 02000 30 00013    	JFRF	L02013
02357                   
02358 02001 16 00003.1  	AND	RESULT	!F=C
02359 02002 16 00003.3  	AND	ENTER	!triggerpuls enterdrukkn.
02360 02003 13 00106    	FTCHD	SETP_0	!ingevoerde setpoint eenheden
02361 02004 13 00107    	FTCHD	SETP_1	!ingevoerde setpoint tientallen
02362 02005 13 00108    	FTCHD	SETP_2	!ingevoerde setpoint honderdtallen
02363 02006 13 00109    	FTCHD	SETP_3	!ingevoerde setpoint duizendtallen
02364 02007 14 02372    	STRD	STP93_0	!setpoint 93 eenheden
02365 02008 14 02373    	STRD	STP93_1	!setpoint 93 tientallen
02366 02009 14 02374    	STRD	STP93_2	!setpoint 93 honderdtallen
02367 02010 14 02375    	STRD	STP93_3	!setpoint 93 duizendtallen
02368                   
02369 02011 17 00000.1  	ANDNT	000.1
02370 02012 00          	NOP	1
02371                   
02372 02013 16 00000.1  L02013	AND	000.1
02373 02014 13 00104    	FTCHD	DWS1_1	!eenheid DWS
02374 02015 13 00105    	FTCHD	DWS1_2	!tiental DWS
02375 02016 15 01504    	COMP	1504	!constante 4
02376 02017 15 01509    	COMP	1509	!constante 9
02377 02018 10 00003.1  	STRB	RESULT	!F=C
02378                   
02379 02019 16 00003.1  	AND	RESULT	!F=C
02380 02020 30 00013    	JFRF	L02033
02381                   
02382 02021 16 00003.1  	AND	RESULT	!F=C
02383 02022 16 00003.3  	AND	ENTER	!triggerpuls enterdrukkn.
02384 02023 13 00106    	FTCHD	SETP_0	!ingevoerde setpoint eenheden
02385 02024 13 00107    	FTCHD	SETP_1	!ingevoerde setpoint tientallen
02386 02025 13 00108    	FTCHD	SETP_2	!ingevoerde setpoint honderdtallen
02387 02026 13 00109    	FTCHD	SETP_3	!ingevoerde setpoint duizendtallen
02388 02027 14 02376    	STRD	STP94_0	!setpoint 94 eenheden
02389 02028 14 02377    	STRD	STP94_1	!setpoint 94 tientallen
02390 02029 14 02378    	STRD	STP94_2	!setpoint 94 honderdtallen
02391 02030 14 02379    	STRD	STP94_3	!setpoint 94 duizendtallen
02392                   
02393 02031 17 00000.1  	ANDNT	000.1
02394 02032 00          	NOP	1
02395                   
02396 02033 16 00000.1  L02033	AND	000.1
02397 02034 13 00104    	FTCHD	DWS1_1	!eenheid DWS
02398 02035 13 00105    	FTCHD	DWS1_2	!tiental DWS
02399 02036 15 01505    	COMP	1505	!constante 5
02400 02037 15 01509    	COMP	1509	!constante 9
02401 02038 10 00003.1  	STRB	RESULT	!F=C
02402                   
02403 02039 16 00003.1  	AND	RESULT	!F=C
02404 02040 30 00013    	JFRF	L02053
02405                   
02406 02041 16 00003.1  	AND	RESULT	!F=C
02407 02042 16 00003.3  	AND	ENTER	!triggerpuls enterdrukkn.
02408 02043 13 00106    	FTCHD	SETP_0	!ingevoerde setpoint eenheden
02409 02044 13 00107    	FTCHD	SETP_1	!ingevoerde setpoint tientallen
02410 02045 13 00108    	FTCHD	SETP_2	!ingevoerde setpoint honderdtallen
02411 02046 13 00109    	FTCHD	SETP_3	!ingevoerde setpoint duizendtallen
02412 02047 14 02380    	STRD	STP95_0	!setpoint 95 eenheden
02413 02048 14 02381    	STRD	STP95_1	!setpoint 95 tientallen
02414 02049 14 02382    	STRD	STP95_2	!setpoint 95 honderdtallen
02415 02050 14 02383    	STRD	STP95_3	!setpoint 95 duizendtallen
02416                   
02417 02051 17 00000.1  	ANDNT	000.1
02418 02052 00          	NOP	1
02419                   
02420 02053 16 00000.1  L02053	AND	000.1
02421 02054 13 00104    	FTCHD	DWS1_1	!eenheid DWS
02422 02055 13 00105    	FTCHD	DWS1_2	!tiental DWS
02423 02056 15 01506    	COMP	1506	!constante 6
02424 02057 15 01509    	COMP	1509	!constante 9
02425 02058 10 00003.1  	STRB	RESULT	!F=C
02426                   
02427 02059 16 00003.1  	AND	RESULT	!F=C
02428 02060 30 00013    	JFRF	L02073
02429                   
02430 02061 16 00003.1  	AND	RESULT	!F=C
02431 02062 16 00003.3  	AND	ENTER	!triggerpuls enterdrukkn.
02432 02063 13 00106    	FTCHD	SETP_0	!ingevoerde setpoint eenheden
02433 02064 13 00107    	FTCHD	SETP_1	!ingevoerde setpoint tientallen
02434 02065 13 00108    	FTCHD	SETP_2	!ingevoerde setpoint honderdtallen
02435 02066 13 00109    	FTCHD	SETP_3	!ingevoerde setpoint duizendtallen
02436 02067 14 02384    	STRD	STP96_0	!setpoint 96 eenheden
02437 02068 14 02385    	STRD	STP96_1	!setpoint 96 tientallen
02438 02069 14 02386    	STRD	STP96_2	!setpoint 96 honderdtallen
02439 02070 14 02387    	STRD	STP96_3	!setpoint 96 duizendtallen
02440                   
02441 02071 17 00000.1  	ANDNT	000.1
02442 02072 00          	NOP	1
02443                   
02444 02073 16 00000.1  L02073	AND	000.1
02445 02074 13 00104    	FTCHD	DWS1_1	!eenheid DWS
02446 02075 13 00105    	FTCHD	DWS1_2	!tiental DWS
02447 02076 15 01507    	COMP	1507	!constante 7
02448 02077 15 01509    	COMP	1509	!constante 9
02449 02078 10 00003.1  	STRB	RESULT	!F=C
02450                   
02451 02079 16 00003.1  	AND	RESULT	!F=C
02452 02080 30 00013    	JFRF	L02093
02453                   
02454 02081 16 00003.1  	AND	RESULT	!F=C
02455 02082 16 00003.3  	AND	ENTER	!triggerpuls enterdrukkn.
02456 02083 13 00106    	FTCHD	SETP_0	!ingevoerde setpoint eenheden
02457 02084 13 00107    	FTCHD	SETP_1	!ingevoerde setpoint tientallen
02458 02085 13 00108    	FTCHD	SETP_2	!ingevoerde setpoint honderdtallen
02459 02086 13 00109    	FTCHD	SETP_3	!ingevoerde setpoint duizendtallen
02460 02087 14 02388    	STRD	STP97_0	!setpoint 97 eenheden
02461 02088 14 02389    	STRD	STP97_1	!setpoint 97 tientallen
02462 02089 14 02390    	STRD	STP97_2	!setpoint 97 honderdtallen
02463 02090 14 02391    	STRD	STP97_3	!setpoint 97 duizendtallen
02464                   
02465 02091 17 00000.1  	ANDNT	000.1
02466 02092 00          	NOP	1
02467                   
02468 02093 16 00000.1  L02093	AND	000.1
02469 02094 13 00104    	FTCHD	DWS1_1	!eenheid DWS
02470 02095 13 00105    	FTCHD	DWS1_2	!tiental DWS
02471 02096 15 01509    	COMP	1509	!constante 9
02472 02097 15 01509    	COMP	1509	!constante 9
02473 02098 10 00003.1  	STRB	RESULT	!F=C
02474                   
02475 02099 16 00003.1  	AND	RESULT	!F=C
02476 02100 00          	NOP	1
02477                   
02478 02101 16 00003.1  	AND	RESULT	!F=C
02479 02102 16 00003.3  	AND	ENTER	!triggerpuls enterdrukkn.
02480 02103 13 00106    	FTCHD	SETP_0	!ingevoerde setpoint eenheden
02481 02104 13 00107    	FTCHD	SETP_1	!ingevoerde setpoint tientallen
02482 02105 13 00108    	FTCHD	SETP_2	!ingevoerde setpoint honderdtallen
02483 02106 13 00109    	FTCHD	SETP_3	!ingevoerde setpoint duizendtallen
02484 02107 14 02396    	STRD	STP99_0	!setpoint 99 eenheden
02485 02108 14 02397    	STRD	STP99_1	!setpoint 99 tientallen
02486 02109 14 02398    	STRD	STP99_2	!setpoint 99 honderdtallen
02487 02110 14 02399    	STRD	STP99_3	!setpoint 99 duizendtallen
02488 02111 00          	NOP	89
02488 02112 00 
02488 02113 00 
02488 02114 00 
02488 02115 00 
02488 02116 00 
02488 02117 00 
02488 02118 00 
02488 02119 00 
02488 02120 00 
02488 02121 00 
02488 02122 00 
02488 02123 00 
02488 02124 00 
02488 02125 00 
02488 02126 00 
02488 02127 00 
02488 02128 00 
02488 02129 00 
02488 02130 00 
02488 02131 00 
02488 02132 00 
02488 02133 00 
02488 02134 00 
02488 02135 00 
02488 02136 00 
02488 02137 00 
02488 02138 00 
02488 02139 00 
02488 02140 00 
02488 02141 00 
02488 02142 00 
02488 02143 00 
02488 02144 00 
02488 02145 00 
02488 02146 00 
02488 02147 00 
02488 02148 00 
02488 02149 00 
02488 02150 00 
02488 02151 00 
02488 02152 00 
02488 02153 00 
02488 02154 00 
02488 02155 00 
02488 02156 00 
02488 02157 00 
02488 02158 00 
02488 02159 00 
02488 02160 00 
02488 02161 00 
02488 02162 00 
02488 02163 00 
02488 02164 00 
02488 02165 00 
02488 02166 00 
02488 02167 00 
02488 02168 00 
02488 02169 00 
02488 02170 00 
02488 02171 00 
02488 02172 00 
02488 02173 00 
02488 02174 00 
02488 02175 00 
02488 02176 00 
02488 02177 00 
02488 02178 00 
02488 02179 00 
02488 02180 00 
02488 02181 00 
02488 02182 00 
02488 02183 00 
02488 02184 00 
02488 02185 00 
02488 02186 00 
02488 02187 00 
02488 02188 00 
02488 02189 00 
02488 02190 00 
02488 02191 00 
02488 02192 00 
02488 02193 00 
02488 02194 00 
02488 02195 00 
02488 02196 00 
02488 02197 00 
02488 02198 00 
02488 02199 00 
02489                   !                               DR_DSP
02490                   !				******
02491                   !
02492 02200 16 00000.1  	AND	000.1
02493 02201 12 00000    	FTCHC	00
02494 02202 14 01500    	STRD	1500	!constante 0
02495                   
02496 02203 16 00000.1  	AND	000.1
02497 02204 12 00001    	FTCHC	01
02498 02205 14 01501    	STRD	1501	!constante 1
02499                   
02500 02206 16 00000.1  	AND	000.1
02501 02207 12 00002    	FTCHC	02
02502 02208 14 01502    	STRD	1502	!constante 2
02503                   
02504 02209 16 00000.1  	AND	000.1
02505 02210 12 00003    	FTCHC	03
02506 02211 14 01503    	STRD	1503	!constante 3
02507                   
02508 02212 16 00000.1  	AND	000.1
02509 02213 12 00004    	FTCHC	04
02510 02214 14 01504    	STRD	1504	!constante 4
02511                   
02512 02215 16 00000.1  	AND	000.1
02513 02216 12 00005    	FTCHC	05
02514 02217 14 01505    	STRD	1505	!constante 5
02515                   
02516 02218 16 00000.1  	AND	000.1
02517 02219 12 00006    	FTCHC	06
02518 02220 14 01506    	STRD	1506	!constante 6
02519                   
02520 02221 16 00000.1  	AND	000.1
02521 02222 12 00007    	FTCHC	07
02522 02223 14 01507    	STRD	1507	!constante 7
02523                   
02524 02224 16 00000.1  	AND	000.1
02525 02225 12 00008    	FTCHC	08
02526 02226 14 01508    	STRD	1508	!constante 8
02527                   
02528 02227 16 00000.1  	AND	000.1
02529 02228 12 00009    	FTCHC	09
02530 02229 14 01509    	STRD	1509	!constante 9
02531                   
02532 02230 17 00121.2  	ANDNT	LAMPTEST	!lampentest "8"
02533 02231 30 01900    	JFRF	L04131
02534                   
02535 02232 16 00000.1  	AND	000.1
02536 02233 13 00110    	FTCHD	DWS2_1	!eenheid DWS
02537 02234 13 00111    	FTCHD	DWS2_2	!tiental DWS
02538 02235 15 01500    	COMP	1500	!constante 0
02539 02236 15 01500    	COMP	1500	!constante 0
02540 02237 10 00003.0  	STRB	RESULT1	!F=C
02541                   
02542 02238 16 00003.0  	AND	RESULT1	!F=C
02543 02239 30 00012    	JFRF	L02251
02544                   
02545 02240 16 00003.0  	AND	RESULT1	!F=C
02546 02241 13 01100    	FTCHD	DSP00_0	!display 00 eenheden
02547 02242 13 01101    	FTCHD	DSP00_1	!display 00 tientallen
02548 02243 13 01102    	FTCHD	DSP00_2	!display 00 honderdtallen
02549 02244 13 01103    	FTCHD	DSP00_3	!display 00 duizendtallen
02550 02245 14 00160    	STRD	DISPL_0	!display aansturing eenh.
02551 02246 14 00161    	STRD	DISPL_1	!display aansturing tiental.
02552 02247 14 00162    	STRD	DISPL_2	!display aansturing honderdt.
02553 02248 14 00163    	STRD	DISPL_3	!display aansturing duizendt.
02554                   
02555 02249 17 00000.1  	ANDNT	000.1
02556 02250 30 01880    	JFRF	L04130
02557                   
02558 02251 16 00000.1  L02251	AND	000.1
02559 02252 13 00110    	FTCHD	DWS2_1	!eenheid DWS
02560 02253 13 00111    	FTCHD	DWS2_2	!tiental DWS
02561 02254 15 01501    	COMP	1501	!constante 1
02562 02255 15 01500    	COMP	1500	!constante 0
02563 02256 10 00003.0  	STRB	RESULT1	!F=C
02564                   
02565 02257 16 00003.0  	AND	RESULT1	!F=C
02566 02258 30 00012    	JFRF	L02270
02567                   
02568 02259 16 00003.0  	AND	RESULT1	!F=C
02569 02260 13 01104    	FTCHD	DSP01_0	!display 01 eenheden
02570 02261 13 01105    	FTCHD	DSP01_1	!display 01 tientallen
02571 02262 13 01106    	FTCHD	DSP01_2	!display 01 honderdtallen
02572 02263 13 01107    	FTCHD	DSP01_3	!display 01 duizendtallen
02573 02264 14 00160    	STRD	DISPL_0	!display aansturing eenh.
02574 02265 14 00161    	STRD	DISPL_1	!display aansturing tiental.
02575 02266 14 00162    	STRD	DISPL_2	!display aansturing honderdt.
02576 02267 14 00163    	STRD	DISPL_3	!display aansturing duizendt.
02577                   
02578 02268 17 00000.1  	ANDNT	000.1
02579 02269 30 01861    	JFRF	L04130
02580                   
02581 02270 16 00000.1  L02270	AND	000.1
02582 02271 13 00110    	FTCHD	DWS2_1	!eenheid DWS
02583 02272 13 00111    	FTCHD	DWS2_2	!tiental DWS
02584 02273 15 01502    	COMP	1502	!constante 2
02585 02274 15 01500    	COMP	1500	!constante 0
02586 02275 10 00003.0  	STRB	RESULT1	!F=C
02587                   
02588 02276 16 00003.0  	AND	RESULT1	!F=C
02589 02277 30 00012    	JFRF	L02289
02590                   
02591 02278 16 00003.0  	AND	RESULT1	!F=C
02592 02279 13 01108    	FTCHD	DSP02_0	!display 02 eenheden
02593 02280 13 01109    	FTCHD	DSP02_1	!display 02 tientallen
02594 02281 13 01110    	FTCHD	DSP02_2	!display 02 honderdtallen
02595 02282 13 01111    	FTCHD	DSP02_3	!display 02 duizendtallen
02596 02283 14 00160    	STRD	DISPL_0	!display aansturing eenh.
02597 02284 14 00161    	STRD	DISPL_1	!display aansturing tiental.
02598 02285 14 00162    	STRD	DISPL_2	!display aansturing honderdt.
02599 02286 14 00163    	STRD	DISPL_3	!display aansturing duizendt.
02600                   
02601 02287 17 00000.1  	ANDNT	000.1
02602 02288 30 01842    	JFRF	L04130
02603                   
02604 02289 16 00000.1  L02289	AND	000.1
02605 02290 13 00110    	FTCHD	DWS2_1	!eenheid DWS
02606 02291 13 00111    	FTCHD	DWS2_2	!tiental DWS
02607 02292 15 01503    	COMP	1503	!constante 3
02608 02293 15 01500    	COMP	1500	!constante 0
02609 02294 10 00003.0  	STRB	RESULT1	!F=C
02610                   
02611 02295 16 00003.0  	AND	RESULT1	!F=C
02612 02296 30 00012    	JFRF	L02308
02613                   
02614 02297 16 00003.0  	AND	RESULT1	!F=C
02615 02298 13 01112    	FTCHD	DSP03_0	!display 03 eenheden
02616 02299 13 01113    	FTCHD	DSP03_1	!display 03 tientallen
02617 02300 13 01114    	FTCHD	DSP03_2	!display 03 honderdtallen
02618 02301 13 01115    	FTCHD	DSP03_3	!display 03 duizendtallen
02619 02302 14 00160    	STRD	DISPL_0	!display aansturing eenh.
02620 02303 14 00161    	STRD	DISPL_1	!display aansturing tiental.
02621 02304 14 00162    	STRD	DISPL_2	!display aansturing honderdt.
02622 02305 14 00163    	STRD	DISPL_3	!display aansturing duizendt.
02623                   
02624 02306 17 00000.1  	ANDNT	000.1
02625 02307 30 01823    	JFRF	L04130
02626                   
02627 02308 16 00000.1  L02308	AND	000.1
02628 02309 13 00110    	FTCHD	DWS2_1	!eenheid DWS
02629 02310 13 00111    	FTCHD	DWS2_2	!tiental DWS
02630 02311 15 01504    	COMP	1504	!constante 4
02631 02312 15 01500    	COMP	1500	!constante 0
02632 02313 10 00003.0  	STRB	RESULT1	!F=C
02633                   
02634 02314 16 00003.0  	AND	RESULT1	!F=C
02635 02315 30 00012    	JFRF	L02327
02636                   
02637 02316 16 00003.0  	AND	RESULT1	!F=C
02638 02317 13 01116    	FTCHD	DSP04_0	!display 04 eenheden
02639 02318 13 01117    	FTCHD	DSP04_1	!display 04 tientallen
02640 02319 13 01118    	FTCHD	DSP04_2	!display 04 honderdtallen
02641 02320 13 01119    	FTCHD	DSP04_3	!display 04 duizendtallen
02642 02321 14 00160    	STRD	DISPL_0	!display aansturing eenh.
02643 02322 14 00161    	STRD	DISPL_1	!display aansturing tiental.
02644 02323 14 00162    	STRD	DISPL_2	!display aansturing honderdt.
02645 02324 14 00163    	STRD	DISPL_3	!display aansturing duizendt.
02646                   
02647 02325 17 00000.1  	ANDNT	000.1
02648 02326 30 01804    	JFRF	L04130
02649                   
02650 02327 16 00000.1  L02327	AND	000.1
02651 02328 13 00110    	FTCHD	DWS2_1	!eenheid DWS
02652 02329 13 00111    	FTCHD	DWS2_2	!tiental DWS
02653 02330 15 01505    	COMP	1505	!constante 5
02654 02331 15 01500    	COMP	1500	!constante 0
02655 02332 10 00003.0  	STRB	RESULT1	!F=C
02656                   
02657 02333 16 00003.0  	AND	RESULT1	!F=C
02658 02334 30 00012    	JFRF	L02346
02659                   
02660 02335 16 00003.0  	AND	RESULT1	!F=C
02661 02336 13 01120    	FTCHD	DSP05_0	!display 05 eenheden
02662 02337 13 01121    	FTCHD	DSP05_1	!display 05 tientallen
02663 02338 13 01122    	FTCHD	DSP05_2	!display 05 honderdtallen
02664 02339 13 01123    	FTCHD	DSP05_3	!display 05 duizendtallen
02665 02340 14 00160    	STRD	DISPL_0	!display aansturing eenh.
02666 02341 14 00161    	STRD	DISPL_1	!display aansturing tiental.
02667 02342 14 00162    	STRD	DISPL_2	!display aansturing honderdt.
02668 02343 14 00163    	STRD	DISPL_3	!display aansturing duizendt.
02669                   
02670 02344 17 00000.1  	ANDNT	000.1
02671 02345 30 01785    	JFRF	L04130
02672                   
02673 02346 16 00000.1  L02346	AND	000.1
02674 02347 13 00110    	FTCHD	DWS2_1	!eenheid DWS
02675 02348 13 00111    	FTCHD	DWS2_2	!tiental DWS
02676 02349 15 01506    	COMP	1506	!constante 6
02677 02350 15 01500    	COMP	1500	!constante 0
02678 02351 10 00003.0  	STRB	RESULT1	!F=C
02679                   
02680 02352 16 00003.0  	AND	RESULT1	!F=C
02681 02353 30 00012    	JFRF	L02365
02682                   
02683 02354 16 00003.0  	AND	RESULT1	!F=C
02684 02355 13 01124    	FTCHD	DSP06_0	!display 06 eenheden
02685 02356 13 01125    	FTCHD	DSP06_1	!display 06 tientallen
02686 02357 13 01126    	FTCHD	DSP06_2	!display 06 honderdtallen
02687 02358 13 01127    	FTCHD	DSP06_3	!display 06 duizendtallen
02688 02359 14 00160    	STRD	DISPL_0	!display aansturing eenh.
02689 02360 14 00161    	STRD	DISPL_1	!display aansturing tiental.
02690 02361 14 00162    	STRD	DISPL_2	!display aansturing honderdt.
02691 02362 14 00163    	STRD	DISPL_3	!display aansturing duizendt.
02692                   
02693 02363 17 00000.1  	ANDNT	000.1
02694 02364 30 01766    	JFRF	L04130
02695                   
02696 02365 16 00000.1  L02365	AND	000.1
02697 02366 13 00110    	FTCHD	DWS2_1	!eenheid DWS
02698 02367 13 00111    	FTCHD	DWS2_2	!tiental DWS
02699 02368 15 01507    	COMP	1507	!constante 7
02700 02369 15 01500    	COMP	1500	!constante 0
02701 02370 10 00003.0  	STRB	RESULT1	!F=C
02702                   
02703 02371 16 00003.0  	AND	RESULT1	!F=C
02704 02372 30 00012    	JFRF	L02384
02705                   
02706 02373 16 00003.0  	AND	RESULT1	!F=C
02707 02374 13 01128    	FTCHD	DSP07_0	!display 07 eenheden
02708 02375 13 01129    	FTCHD	DSP07_1	!display 07 tientallen
02709 02376 13 01130    	FTCHD	DSP07_2	!display 07 honderdtallen
02710 02377 13 01131    	FTCHD	DSP07_3	!display 07 duizendtallen
02711 02378 14 00160    	STRD	DISPL_0	!display aansturing eenh.
02712 02379 14 00161    	STRD	DISPL_1	!display aansturing tiental.
02713 02380 14 00162    	STRD	DISPL_2	!display aansturing honderdt.
02714 02381 14 00163    	STRD	DISPL_3	!display aansturing duizendt.
02715                   
02716 02382 17 00000.1  	ANDNT	000.1
02717 02383 30 01747    	JFRF	L04130
02718                   
02719 02384 16 00000.1  L02384	AND	000.1
02720 02385 13 00110    	FTCHD	DWS2_1	!eenheid DWS
02721 02386 13 00111    	FTCHD	DWS2_2	!tiental DWS
02722 02387 15 01508    	COMP	1508	!constante 8
02723 02388 15 01500    	COMP	1500	!constante 0
02724 02389 10 00003.0  	STRB	RESULT1	!F=C
02725                   
02726 02390 16 00003.0  	AND	RESULT1	!F=C
02727 02391 30 00012    	JFRF	L02403
02728                   
02729 02392 16 00003.0  	AND	RESULT1	!F=C
02730 02393 13 01132    	FTCHD	DSP08_0	!display 08 eenheden
02731 02394 13 01133    	FTCHD	DSP08_1	!display 08 tientallen
02732 02395 13 01134    	FTCHD	DSP08_2	!display 08 honderdtallen
02733 02396 13 01135    	FTCHD	DSP08_3	!display 08 duizendtallen
02734 02397 14 00160    	STRD	DISPL_0	!display aansturing eenh.
02735 02398 14 00161    	STRD	DISPL_1	!display aansturing tiental.
02736 02399 14 00162    	STRD	DISPL_2	!display aansturing honderdt.
02737 02400 14 00163    	STRD	DISPL_3	!display aansturing duizendt.
02738                   
02739 02401 17 00000.1  	ANDNT	000.1
02740 02402 30 01728    	JFRF	L04130
02741                   
02742 02403 16 00000.1  L02403	AND	000.1
02743 02404 13 00110    	FTCHD	DWS2_1	!eenheid DWS
02744 02405 13 00111    	FTCHD	DWS2_2	!tiental DWS
02745 02406 15 01509    	COMP	1509	!constante 9
02746 02407 15 01500    	COMP	1500	!constante 0
02747 02408 10 00003.0  	STRB	RESULT1	!F=C
02748                   
02749 02409 16 00003.0  	AND	RESULT1	!F=C
02750 02410 30 00012    	JFRF	L02422
02751                   
02752 02411 16 00003.0  	AND	RESULT1	!F=C
02753 02412 13 01136    	FTCHD	DSP09_0	!display 09 eenheden
02754 02413 13 01137    	FTCHD	DSP09_1	!display 09 tientallen
02755 02414 13 01138    	FTCHD	DSP09_2	!display 09 honderdtallen
02756 02415 13 01139    	FTCHD	DSP09_3	!display 09 duizendtallen
02757 02416 14 00160    	STRD	DISPL_0	!display aansturing eenh.
02758 02417 14 00161    	STRD	DISPL_1	!display aansturing tiental.
02759 02418 14 00162    	STRD	DISPL_2	!display aansturing honderdt.
02760 02419 14 00163    	STRD	DISPL_3	!display aansturing duizendt.
02761                   
02762 02420 17 00000.1  	ANDNT	000.1
02763 02421 30 01709    	JFRF	L04130
02764                   
02765 02422 16 00000.1  L02422	AND	000.1
02766 02423 13 00110    	FTCHD	DWS2_1	!eenheid DWS
02767 02424 13 00111    	FTCHD	DWS2_2	!tiental DWS
02768 02425 15 01500    	COMP	1500	!constante 0
02769 02426 15 01501    	COMP	1501	!constante 1
02770 02427 10 00003.0  	STRB	RESULT1	!F=C
02771                   
02772 02428 16 00003.0  	AND	RESULT1	!F=C
02773 02429 30 00012    	JFRF	L02441
02774                   
02775 02430 16 00003.0  	AND	RESULT1	!F=C
02776 02431 13 01140    	FTCHD	DSP10_0	!display 10 eenheden
02777 02432 13 01141    	FTCHD	DSP10_1	!display 10 tientallen
02778 02433 13 01142    	FTCHD	DSP10_2	!display 10 honderdtallen
02779 02434 13 01143    	FTCHD	DSP10_3	!display 10 duizendtallen
02780 02435 14 00160    	STRD	DISPL_0	!display aansturing eenh.
02781 02436 14 00161    	STRD	DISPL_1	!display aansturing tiental.
02782 02437 14 00162    	STRD	DISPL_2	!display aansturing honderdt.
02783 02438 14 00163    	STRD	DISPL_3	!display aansturing duizendt.
02784                   
02785 02439 17 00000.1  	ANDNT	000.1
02786 02440 30 01690    	JFRF	L04130
02787                   
02788 02441 16 00000.1  L02441	AND	000.1
02789 02442 13 00110    	FTCHD	DWS2_1	!eenheid DWS
02790 02443 13 00111    	FTCHD	DWS2_2	!tiental DWS
02791 02444 15 01501    	COMP	1501	!constante 1
02792 02445 15 01501    	COMP	1501	!constante 1
02793 02446 10 00003.0  	STRB	RESULT1	!F=C
02794                   
02795 02447 16 00003.0  	AND	RESULT1	!F=C
02796 02448 30 00012    	JFRF	L02460
02797                   
02798 02449 16 00003.0  	AND	RESULT1	!F=C
02799 02450 13 01144    	FTCHD	DSP11_0	!display 11 eenheden
02800 02451 13 01145    	FTCHD	DSP11_1	!display 11 tientallen
02801 02452 13 01146    	FTCHD	DSP11_2	!display 11 honderdtallen
02802 02453 13 01147    	FTCHD	DSP11_3	!display 11 duizendtallen
02803 02454 14 00160    	STRD	DISPL_0	!display aansturing eenh.
02804 02455 14 00161    	STRD	DISPL_1	!display aansturing tiental.
02805 02456 14 00162    	STRD	DISPL_2	!display aansturing honderdt.
02806 02457 14 00163    	STRD	DISPL_3	!display aansturing duizendt.
02807                   
02808 02458 17 00000.1  	ANDNT	000.1
02809 02459 30 01671    	JFRF	L04130
02810                   
02811 02460 16 00000.1  L02460	AND	000.1
02812 02461 13 00110    	FTCHD	DWS2_1	!eenheid DWS
02813 02462 13 00111    	FTCHD	DWS2_2	!tiental DWS
02814 02463 15 01502    	COMP	1502	!constante 2
02815 02464 15 01501    	COMP	1501	!constante 1
02816 02465 10 00003.0  	STRB	RESULT1	!F=C
02817                   
02818 02466 16 00003.0  	AND	RESULT1	!F=C
02819 02467 30 00012    	JFRF	L02479
02820                   
02821 02468 16 00003.0  	AND	RESULT1	!F=C
02822 02469 13 01148    	FTCHD	DSP12_0	!display 12 eenheden
02823 02470 13 01149    	FTCHD	DSP12_1	!display 12 tientallen
02824 02471 13 01150    	FTCHD	DSP12_2	!display 12 honderdtallen
02825 02472 13 01151    	FTCHD	DSP12_3	!display 12 duizendtallen
02826 02473 14 00160    	STRD	DISPL_0	!display aansturing eenh.
02827 02474 14 00161    	STRD	DISPL_1	!display aansturing tiental.
02828 02475 14 00162    	STRD	DISPL_2	!display aansturing honderdt.
02829 02476 14 00163    	STRD	DISPL_3	!display aansturing duizendt.
02830                   
02831 02477 17 00000.1  	ANDNT	000.1
02832 02478 30 01652    	JFRF	L04130
02833                   
02834 02479 16 00000.1  L02479	AND	000.1
02835 02480 13 00110    	FTCHD	DWS2_1	!eenheid DWS
02836 02481 13 00111    	FTCHD	DWS2_2	!tiental DWS
02837 02482 15 01503    	COMP	1503	!constante 3
02838 02483 15 01501    	COMP	1501	!constante 1
02839 02484 10 00003.0  	STRB	RESULT1	!F=C
02840                   
02841 02485 16 00003.0  	AND	RESULT1	!F=C
02842 02486 30 00012    	JFRF	L02498
02843                   
02844 02487 16 00003.0  	AND	RESULT1	!F=C
02845 02488 13 01152    	FTCHD	DSP13_0	!display 13 eenheden
02846 02489 13 01153    	FTCHD	DSP13_1	!display 13 tientallen
02847 02490 13 01154    	FTCHD	DSP13_2	!display 13 honderdtallen
02848 02491 13 01155    	FTCHD	DSP13_3	!display 13 duizendtallen
02849 02492 14 00160    	STRD	DISPL_0	!display aansturing eenh.
02850 02493 14 00161    	STRD	DISPL_1	!display aansturing tiental.
02851 02494 14 00162    	STRD	DISPL_2	!display aansturing honderdt.
02852 02495 14 00163    	STRD	DISPL_3	!display aansturing duizendt.
02853                   
02854 02496 17 00000.1  	ANDNT	000.1
02855 02497 30 01633    	JFRF	L04130
02856                   
02857 02498 16 00000.1  L02498	AND	000.1
02858 02499 13 00110    	FTCHD	DWS2_1	!eenheid DWS
02859 02500 13 00111    	FTCHD	DWS2_2	!tiental DWS
02860 02501 15 01504    	COMP	1504	!constante 4
02861 02502 15 01501    	COMP	1501	!constante 1
02862 02503 10 00003.0  	STRB	RESULT1	!F=C
02863                   
02864 02504 16 00003.0  	AND	RESULT1	!F=C
02865 02505 30 00012    	JFRF	L02517
02866                   
02867 02506 16 00003.0  	AND	RESULT1	!F=C
02868 02507 13 01156    	FTCHD	DSP14_0	!display 14 eenheden
02869 02508 13 01157    	FTCHD	DSP14_1	!display 14 tientallen
02870 02509 13 01158    	FTCHD	DSP14_2	!display 14 honderdtallen
02871 02510 13 01159    	FTCHD	DSP14_3	!display 14 duizendtallen
02872 02511 14 00160    	STRD	DISPL_0	!display aansturing eenh.
02873 02512 14 00161    	STRD	DISPL_1	!display aansturing tiental.
02874 02513 14 00162    	STRD	DISPL_2	!display aansturing honderdt.
02875 02514 14 00163    	STRD	DISPL_3	!display aansturing duizendt.
02876                   
02877 02515 17 00000.1  	ANDNT	000.1
02878 02516 30 01614    	JFRF	L04130
02879                   
02880 02517 16 00000.1  L02517	AND	000.1
02881 02518 13 00110    	FTCHD	DWS2_1	!eenheid DWS
02882 02519 13 00111    	FTCHD	DWS2_2	!tiental DWS
02883 02520 15 01505    	COMP	1505	!constante 5
02884 02521 15 01501    	COMP	1501	!constante 1
02885 02522 10 00003.0  	STRB	RESULT1	!F=C
02886                   
02887 02523 16 00003.0  	AND	RESULT1	!F=C
02888 02524 30 00012    	JFRF	L02536
02889                   
02890 02525 16 00003.0  	AND	RESULT1	!F=C
02891 02526 13 01160    	FTCHD	DSP15_0	!display 15 eenheden
02892 02527 13 01161    	FTCHD	DSP15_1	!display 15 tientallen
02893 02528 13 01162    	FTCHD	DSP15_2	!display 15 honderdtallen
02894 02529 13 01163    	FTCHD	DSP15_3	!display 15 duizendtallen
02895 02530 14 00160    	STRD	DISPL_0	!display aansturing eenh.
02896 02531 14 00161    	STRD	DISPL_1	!display aansturing tiental.
02897 02532 14 00162    	STRD	DISPL_2	!display aansturing honderdt.
02898 02533 14 00163    	STRD	DISPL_3	!display aansturing duizendt.
02899                   
02900 02534 17 00000.1  	ANDNT	000.1
02901 02535 30 01595    	JFRF	L04130
02902                   
02903 02536 16 00000.1  L02536	AND	000.1
02904 02537 13 00110    	FTCHD	DWS2_1	!eenheid DWS
02905 02538 13 00111    	FTCHD	DWS2_2	!tiental DWS
02906 02539 15 01506    	COMP	1506	!constante 6
02907 02540 15 01501    	COMP	1501	!constante 1
02908 02541 10 00003.0  	STRB	RESULT1	!F=C
02909                   
02910 02542 16 00003.0  	AND	RESULT1	!F=C
02911 02543 30 00012    	JFRF	L02555
02912                   
02913 02544 16 00003.0  	AND	RESULT1	!F=C
02914 02545 13 01164    	FTCHD	DSP16_0	!display 16 eenheden
02915 02546 13 01165    	FTCHD	DSP16_1	!display 16 tientallen
02916 02547 13 01166    	FTCHD	DSP16_2	!display 16 honderdtallen
02917 02548 13 01167    	FTCHD	DSP16_3	!display 16 duizendtallen
02918 02549 14 00160    	STRD	DISPL_0	!display aansturing eenh.
02919 02550 14 00161    	STRD	DISPL_1	!display aansturing tiental.
02920 02551 14 00162    	STRD	DISPL_2	!display aansturing honderdt.
02921 02552 14 00163    	STRD	DISPL_3	!display aansturing duizendt.
02922                   
02923 02553 17 00000.1  	ANDNT	000.1
02924 02554 30 01576    	JFRF	L04130
02925                   
02926 02555 16 00000.1  L02555	AND	000.1
02927 02556 13 00110    	FTCHD	DWS2_1	!eenheid DWS
02928 02557 13 00111    	FTCHD	DWS2_2	!tiental DWS
02929 02558 15 01507    	COMP	1507	!constante 7
02930 02559 15 01501    	COMP	1501	!constante 1
02931 02560 10 00003.0  	STRB	RESULT1	!F=C
02932                   
02933 02561 16 00003.0  	AND	RESULT1	!F=C
02934 02562 30 00012    	JFRF	L02574
02935                   
02936 02563 16 00003.0  	AND	RESULT1	!F=C
02937 02564 13 01168    	FTCHD	DSP17_0	!display 17 eenheden
02938 02565 13 01169    	FTCHD	DSP17_1	!display 17 tientallen
02939 02566 13 01170    	FTCHD	DSP17_2	!display 17 honderdtallen
02940 02567 13 01171    	FTCHD	DSP17_3	!display 17 duizendtallen
02941 02568 14 00160    	STRD	DISPL_0	!display aansturing eenh.
02942 02569 14 00161    	STRD	DISPL_1	!display aansturing tiental.
02943 02570 14 00162    	STRD	DISPL_2	!display aansturing honderdt.
02944 02571 14 00163    	STRD	DISPL_3	!display aansturing duizendt.
02945                   
02946 02572 17 00000.1  	ANDNT	000.1
02947 02573 30 01557    	JFRF	L04130
02948                   
02949 02574 16 00000.1  L02574	AND	000.1
02950 02575 13 00110    	FTCHD	DWS2_1	!eenheid DWS
02951 02576 13 00111    	FTCHD	DWS2_2	!tiental DWS
02952 02577 15 01508    	COMP	1508	!constante 8
02953 02578 15 01501    	COMP	1501	!constante 1
02954 02579 10 00003.0  	STRB	RESULT1	!F=C
02955                   
02956 02580 16 00003.0  	AND	RESULT1	!F=C
02957 02581 30 00012    	JFRF	L02593
02958                   
02959 02582 16 00003.0  	AND	RESULT1	!F=C
02960 02583 13 01172    	FTCHD	DSP18_0	!display 18 eenheden
02961 02584 13 01173    	FTCHD	DSP18_1	!display 18 tientallen
02962 02585 13 01174    	FTCHD	DSP18_2	!display 18 honderdtallen
02963 02586 13 01175    	FTCHD	DSP18_3	!display 18 duizendtallen
02964 02587 14 00160    	STRD	DISPL_0	!display aansturing eenh.
02965 02588 14 00161    	STRD	DISPL_1	!display aansturing tiental.
02966 02589 14 00162    	STRD	DISPL_2	!display aansturing honderdt.
02967 02590 14 00163    	STRD	DISPL_3	!display aansturing duizendt.
02968                   
02969 02591 17 00000.1  	ANDNT	000.1
02970 02592 30 01538    	JFRF	L04130
02971                   
02972 02593 16 00000.1  L02593	AND	000.1
02973 02594 13 00110    	FTCHD	DWS2_1	!eenheid DWS
02974 02595 13 00111    	FTCHD	DWS2_2	!tiental DWS
02975 02596 15 01509    	COMP	1509	!constante 9
02976 02597 15 01501    	COMP	1501	!constante 1
02977 02598 10 00003.0  	STRB	RESULT1	!F=C
02978                   
02979 02599 16 00003.0  	AND	RESULT1	!F=C
02980 02600 30 00012    	JFRF	L02612
02981                   
02982 02601 16 00003.0  	AND	RESULT1	!F=C
02983 02602 13 01176    	FTCHD	DSP19_0	!display 19 eenheden
02984 02603 13 01177    	FTCHD	DSP19_1	!display 19 tientallen
02985 02604 13 01178    	FTCHD	DSP19_2	!display 19 honderdtallen
02986 02605 13 01179    	FTCHD	DSP19_3	!display 19 duizendtallen
02987 02606 14 00160    	STRD	DISPL_0	!display aansturing eenh.
02988 02607 14 00161    	STRD	DISPL_1	!display aansturing tiental.
02989 02608 14 00162    	STRD	DISPL_2	!display aansturing honderdt.
02990 02609 14 00163    	STRD	DISPL_3	!display aansturing duizendt.
02991                   
02992 02610 17 00000.1  	ANDNT	000.1
02993 02611 30 01519    	JFRF	L04130
02994                   
02995 02612 16 00000.1  L02612	AND	000.1
02996 02613 13 00110    	FTCHD	DWS2_1	!eenheid DWS
02997 02614 13 00111    	FTCHD	DWS2_2	!tiental DWS
02998 02615 15 01500    	COMP	1500	!constante 0
02999 02616 15 01502    	COMP	1502	!constante 2
03000 02617 10 00003.0  	STRB	RESULT1	!F=C
03001                   
03002 02618 16 00003.0  	AND	RESULT1	!F=C
03003 02619 30 00012    	JFRF	L02631
03004                   
03005 02620 16 00003.0  	AND	RESULT1	!F=C
03006 02621 13 01180    	FTCHD	DSP20_0	!display 20 eenheden
03007 02622 13 01181    	FTCHD	DSP20_1	!display 20 tientallen
03008 02623 13 01182    	FTCHD	DSP20_2	!display 20 honderdtallen
03009 02624 13 01183    	FTCHD	DSP20_3	!display 20 duizendtallen
03010 02625 14 00160    	STRD	DISPL_0	!display aansturing eenh.
03011 02626 14 00161    	STRD	DISPL_1	!display aansturing tiental.
03012 02627 14 00162    	STRD	DISPL_2	!display aansturing honderdt.
03013 02628 14 00163    	STRD	DISPL_3	!display aansturing duizendt.
03014                   
03015 02629 17 00000.1  	ANDNT	000.1
03016 02630 30 01500    	JFRF	L04130
03017                   
03018 02631 16 00000.1  L02631	AND	000.1
03019 02632 13 00110    	FTCHD	DWS2_1	!eenheid DWS
03020 02633 13 00111    	FTCHD	DWS2_2	!tiental DWS
03021 02634 15 01501    	COMP	1501	!constante 1
03022 02635 15 01502    	COMP	1502	!constante 2
03023 02636 10 00003.0  	STRB	RESULT1	!F=C
03024                   
03025 02637 16 00003.0  	AND	RESULT1	!F=C
03026 02638 30 00012    	JFRF	L02650
03027                   
03028 02639 16 00003.0  	AND	RESULT1	!F=C
03029 02640 13 01184    	FTCHD	DSP21_0	!display 21 eenheden
03030 02641 13 01185    	FTCHD	DSP21_1	!display 21 tientallen
03031 02642 13 01186    	FTCHD	DSP21_2	!display 21 honderdtallen
03032 02643 13 01187    	FTCHD	DSP21_3	!display 21 duizendtallen
03033 02644 14 00160    	STRD	DISPL_0	!display aansturing eenh.
03034 02645 14 00161    	STRD	DISPL_1	!display aansturing tiental.
03035 02646 14 00162    	STRD	DISPL_2	!display aansturing honderdt.
03036 02647 14 00163    	STRD	DISPL_3	!display aansturing duizendt.
03037                   
03038 02648 17 00000.1  	ANDNT	000.1
03039 02649 30 01481    	JFRF	L04130
03040                   
03041 02650 16 00000.1  L02650	AND	000.1
03042 02651 13 00110    	FTCHD	DWS2_1	!eenheid DWS
03043 02652 13 00111    	FTCHD	DWS2_2	!tiental DWS
03044 02653 15 01502    	COMP	1502	!constante 2
03045 02654 15 01502    	COMP	1502	!constante 2
03046 02655 10 00003.0  	STRB	RESULT1	!F=C
03047                   
03048 02656 16 00003.0  	AND	RESULT1	!F=C
03049 02657 30 00012    	JFRF	L02669
03050                   
03051 02658 16 00003.0  	AND	RESULT1	!F=C
03052 02659 13 01188    	FTCHD	DSP22_0	!display 22 eenheden
03053 02660 13 01189    	FTCHD	DSP22_1	!display 22 tientallen
03054 02661 13 01190    	FTCHD	DSP22_2	!display 22 honderdtallen
03055 02662 13 01191    	FTCHD	DSP22_3	!display 22 duizendtallen
03056 02663 14 00160    	STRD	DISPL_0	!display aansturing eenh.
03057 02664 14 00161    	STRD	DISPL_1	!display aansturing tiental.
03058 02665 14 00162    	STRD	DISPL_2	!display aansturing honderdt.
03059 02666 14 00163    	STRD	DISPL_3	!display aansturing duizendt.
03060                   
03061 02667 17 00000.1  	ANDNT	000.1
03062 02668 30 01462    	JFRF	L04130
03063                   
03064 02669 16 00000.1  L02669	AND	000.1
03065 02670 13 00110    	FTCHD	DWS2_1	!eenheid DWS
03066 02671 13 00111    	FTCHD	DWS2_2	!tiental DWS
03067 02672 15 01503    	COMP	1503	!constante 3
03068 02673 15 01502    	COMP	1502	!constante 2
03069 02674 10 00003.0  	STRB	RESULT1	!F=C
03070                   
03071 02675 16 00003.0  	AND	RESULT1	!F=C
03072 02676 30 00012    	JFRF	L02688
03073                   
03074 02677 16 00003.0  	AND	RESULT1	!F=C
03075 02678 13 01192    	FTCHD	DSP23_0	!display 23 eenheden
03076 02679 13 01193    	FTCHD	DSP23_1	!display 23 tientallen
03077 02680 13 01194    	FTCHD	DSP23_2	!display 23 honderdtallen
03078 02681 13 01195    	FTCHD	DSP23_3	!display 23 duizendtallen
03079 02682 14 00160    	STRD	DISPL_0	!display aansturing eenh.
03080 02683 14 00161    	STRD	DISPL_1	!display aansturing tiental.
03081 02684 14 00162    	STRD	DISPL_2	!display aansturing honderdt.
03082 02685 14 00163    	STRD	DISPL_3	!display aansturing duizendt.
03083                   
03084 02686 17 00000.1  	ANDNT	000.1
03085 02687 30 01443    	JFRF	L04130
03086                   
03087 02688 16 00000.1  L02688	AND	000.1
03088 02689 13 00110    	FTCHD	DWS2_1	!eenheid DWS
03089 02690 13 00111    	FTCHD	DWS2_2	!tiental DWS
03090 02691 15 01504    	COMP	1504	!constante 4
03091 02692 15 01502    	COMP	1502	!constante 2
03092 02693 10 00003.0  	STRB	RESULT1	!F=C
03093                   
03094 02694 16 00003.0  	AND	RESULT1	!F=C
03095 02695 30 00012    	JFRF	L02707
03096                   
03097 02696 16 00003.0  	AND	RESULT1	!F=C
03098 02697 13 01196    	FTCHD	DSP24_0	!display 24 eenheden
03099 02698 13 01197    	FTCHD	DSP24_1	!display 24 tientallen
03100 02699 13 01198    	FTCHD	DSP24_2	!display 24 honderdtallen
03101 02700 13 01199    	FTCHD	DSP24_3	!display 24 duizendtallen
03102 02701 14 00160    	STRD	DISPL_0	!display aansturing eenh.
03103 02702 14 00161    	STRD	DISPL_1	!display aansturing tiental.
03104 02703 14 00162    	STRD	DISPL_2	!display aansturing honderdt.
03105 02704 14 00163    	STRD	DISPL_3	!display aansturing duizendt.
03106                   
03107 02705 17 00000.1  	ANDNT	000.1
03108 02706 30 01424    	JFRF	L04130
03109                   
03110 02707 16 00000.1  L02707	AND	000.1
03111 02708 13 00110    	FTCHD	DWS2_1	!eenheid DWS
03112 02709 13 00111    	FTCHD	DWS2_2	!tiental DWS
03113 02710 15 01505    	COMP	1505	!constante 5
03114 02711 15 01502    	COMP	1502	!constante 2
03115 02712 10 00003.0  	STRB	RESULT1	!F=C
03116                   
03117 02713 16 00003.0  	AND	RESULT1	!F=C
03118 02714 30 00012    	JFRF	L02726
03119                   
03120 02715 16 00003.0  	AND	RESULT1	!F=C
03121 02716 13 01200    	FTCHD	DSP25_0	!display 25 eenheden
03122 02717 13 01201    	FTCHD	DSP25_1	!display 25 tientallen
03123 02718 13 01202    	FTCHD	DSP25_2	!display 25 honderdtallen
03124 02719 13 01203    	FTCHD	DSP25_3	!display 25 duizendtallen
03125 02720 14 00160    	STRD	DISPL_0	!display aansturing eenh.
03126 02721 14 00161    	STRD	DISPL_1	!display aansturing tiental.
03127 02722 14 00162    	STRD	DISPL_2	!display aansturing honderdt.
03128 02723 14 00163    	STRD	DISPL_3	!display aansturing duizendt.
03129                   
03130 02724 17 00000.1  	ANDNT	000.1
03131 02725 30 01405    	JFRF	L04130
03132                   
03133 02726 16 00000.1  L02726	AND	000.1
03134 02727 13 00110    	FTCHD	DWS2_1	!eenheid DWS
03135 02728 13 00111    	FTCHD	DWS2_2	!tiental DWS
03136 02729 15 01506    	COMP	1506	!constante 6
03137 02730 15 01502    	COMP	1502	!constante 2
03138 02731 10 00003.0  	STRB	RESULT1	!F=C
03139                   
03140 02732 16 00003.0  	AND	RESULT1	!F=C
03141 02733 30 00012    	JFRF	L02745
03142                   
03143 02734 16 00003.0  	AND	RESULT1	!F=C
03144 02735 13 01204    	FTCHD	DSP26_0	!display 26 eenheden
03145 02736 13 01205    	FTCHD	DSP26_1	!display 26 tientallen
03146 02737 13 01206    	FTCHD	DSP26_2	!display 26 honderdtallen
03147 02738 13 01207    	FTCHD	DSP26_3	!display 26 duizendtallen
03148 02739 14 00160    	STRD	DISPL_0	!display aansturing eenh.
03149 02740 14 00161    	STRD	DISPL_1	!display aansturing tiental.
03150 02741 14 00162    	STRD	DISPL_2	!display aansturing honderdt.
03151 02742 14 00163    	STRD	DISPL_3	!display aansturing duizendt.
03152                   
03153 02743 17 00000.1  	ANDNT	000.1
03154 02744 30 01386    	JFRF	L04130
03155                   
03156 02745 16 00000.1  L02745	AND	000.1
03157 02746 13 00110    	FTCHD	DWS2_1	!eenheid DWS
03158 02747 13 00111    	FTCHD	DWS2_2	!tiental DWS
03159 02748 15 01507    	COMP	1507	!constante 7
03160 02749 15 01502    	COMP	1502	!constante 2
03161 02750 10 00003.0  	STRB	RESULT1	!F=C
03162                   
03163 02751 16 00003.0  	AND	RESULT1	!F=C
03164 02752 30 00012    	JFRF	L02764
03165                   
03166 02753 16 00003.0  	AND	RESULT1	!F=C
03167 02754 13 01208    	FTCHD	DSP27_0	!display 27 eenheden
03168 02755 13 01209    	FTCHD	DSP27_1	!display 27 tientallen
03169 02756 13 01210    	FTCHD	DSP27_2	!display 27 honderdtallen
03170 02757 13 01211    	FTCHD	DSP27_3	!display 27 duizendtallen
03171 02758 14 00160    	STRD	DISPL_0	!display aansturing eenh.
03172 02759 14 00161    	STRD	DISPL_1	!display aansturing tiental.
03173 02760 14 00162    	STRD	DISPL_2	!display aansturing honderdt.
03174 02761 14 00163    	STRD	DISPL_3	!display aansturing duizendt.
03175                   
03176 02762 17 00000.1  	ANDNT	000.1
03177 02763 30 01367    	JFRF	L04130
03178                   
03179 02764 16 00000.1  L02764	AND	000.1
03180 02765 13 00110    	FTCHD	DWS2_1	!eenheid DWS
03181 02766 13 00111    	FTCHD	DWS2_2	!tiental DWS
03182 02767 15 01508    	COMP	1508	!constante 8
03183 02768 15 01502    	COMP	1502	!constante 2
03184 02769 10 00003.0  	STRB	RESULT1	!F=C
03185                   
03186 02770 16 00003.0  	AND	RESULT1	!F=C
03187 02771 30 00012    	JFRF	L02783
03188                   
03189 02772 16 00003.0  	AND	RESULT1	!F=C
03190 02773 13 01212    	FTCHD	DSP28_0	!display 28 eenheden
03191 02774 13 01213    	FTCHD	DSP28_1	!display 28 tientallen
03192 02775 13 01214    	FTCHD	DSP28_2	!display 28 honderdtallen
03193 02776 13 01215    	FTCHD	DSP28_3	!display 28 duizendtallen
03194 02777 14 00160    	STRD	DISPL_0	!display aansturing eenh.
03195 02778 14 00161    	STRD	DISPL_1	!display aansturing tiental.
03196 02779 14 00162    	STRD	DISPL_2	!display aansturing honderdt.
03197 02780 14 00163    	STRD	DISPL_3	!display aansturing duizendt.
03198                   
03199 02781 17 00000.1  	ANDNT	000.1
03200 02782 30 01348    	JFRF	L04130
03201                   
03202 02783 16 00000.1  L02783	AND	000.1
03203 02784 13 00110    	FTCHD	DWS2_1	!eenheid DWS
03204 02785 13 00111    	FTCHD	DWS2_2	!tiental DWS
03205 02786 15 01509    	COMP	1509	!constante 9
03206 02787 15 01502    	COMP	1502	!constante 2
03207 02788 10 00003.0  	STRB	RESULT1	!F=C
03208                   
03209 02789 16 00003.0  	AND	RESULT1	!F=C
03210 02790 30 00012    	JFRF	L02802
03211                   
03212 02791 16 00003.0  	AND	RESULT1	!F=C
03213 02792 13 01216    	FTCHD	DSP29_0	!display 29 eenheden
03214 02793 13 01217    	FTCHD	DSP29_1	!display 29 tientallen
03215 02794 13 01218    	FTCHD	DSP29_2	!display 29 honderdtallen
03216 02795 13 01219    	FTCHD	DSP29_3	!display 29 duizendtallen
03217 02796 14 00160    	STRD	DISPL_0	!display aansturing eenh.
03218 02797 14 00161    	STRD	DISPL_1	!display aansturing tiental.
03219 02798 14 00162    	STRD	DISPL_2	!display aansturing honderdt.
03220 02799 14 00163    	STRD	DISPL_3	!display aansturing duizendt.
03221                   
03222 02800 17 00000.1  	ANDNT	000.1
03223 02801 30 01329    	JFRF	L04130
03224                   
03225 02802 16 00000.1  L02802	AND	000.1
03226 02803 13 00110    	FTCHD	DWS2_1	!eenheid DWS
03227 02804 13 00111    	FTCHD	DWS2_2	!tiental DWS
03228 02805 15 01500    	COMP	1500	!constante 0
03229 02806 15 01503    	COMP	1503	!constante 3
03230 02807 10 00003.0  	STRB	RESULT1	!F=C
03231                   
03232 02808 16 00003.0  	AND	RESULT1	!F=C
03233 02809 30 00012    	JFRF	L02821
03234                   
03235 02810 16 00003.0  	AND	RESULT1	!F=C
03236 02811 13 01220    	FTCHD	DSP30_0	!display 30 eenheden
03237 02812 13 01221    	FTCHD	DSP30_1	!display 30 tientallen
03238 02813 13 01222    	FTCHD	DSP30_2	!display 30 honderdtallen
03239 02814 13 01223    	FTCHD	DSP30_3	!display 30 duizendtallen
03240 02815 14 00160    	STRD	DISPL_0	!display aansturing eenh.
03241 02816 14 00161    	STRD	DISPL_1	!display aansturing tiental.
03242 02817 14 00162    	STRD	DISPL_2	!display aansturing honderdt.
03243 02818 14 00163    	STRD	DISPL_3	!display aansturing duizendt.
03244                   
03245 02819 17 00000.1  	ANDNT	000.1
03246 02820 30 01310    	JFRF	L04130
03247                   
03248 02821 16 00000.1  L02821	AND	000.1
03249 02822 13 00110    	FTCHD	DWS2_1	!eenheid DWS
03250 02823 13 00111    	FTCHD	DWS2_2	!tiental DWS
03251 02824 15 01501    	COMP	1501	!constante 1
03252 02825 15 01503    	COMP	1503	!constante 3
03253 02826 10 00003.0  	STRB	RESULT1	!F=C
03254                   
03255 02827 16 00003.0  	AND	RESULT1	!F=C
03256 02828 30 00012    	JFRF	L02840
03257                   
03258 02829 16 00003.0  	AND	RESULT1	!F=C
03259 02830 13 01224    	FTCHD	DSP31_0	!display 31 eenheden
03260 02831 13 01225    	FTCHD	DSP31_1	!display 31 tientallen
03261 02832 13 01226    	FTCHD	DSP31_2	!display 31 honderdtallen
03262 02833 13 01227    	FTCHD	DSP31_3	!display 31 duizendtallen
03263 02834 14 00160    	STRD	DISPL_0	!display aansturing eenh.
03264 02835 14 00161    	STRD	DISPL_1	!display aansturing tiental.
03265 02836 14 00162    	STRD	DISPL_2	!display aansturing honderdt.
03266 02837 14 00163    	STRD	DISPL_3	!display aansturing duizendt.
03267                   
03268 02838 17 00000.1  	ANDNT	000.1
03269 02839 30 01291    	JFRF	L04130
03270                   
03271 02840 16 00000.1  L02840	AND	000.1
03272 02841 13 00110    	FTCHD	DWS2_1	!eenheid DWS
03273 02842 13 00111    	FTCHD	DWS2_2	!tiental DWS
03274 02843 15 01502    	COMP	1502	!constante 2
03275 02844 15 01503    	COMP	1503	!constante 3
03276 02845 10 00003.0  	STRB	RESULT1	!F=C
03277                   
03278 02846 16 00003.0  	AND	RESULT1	!F=C
03279 02847 30 00012    	JFRF	L02859
03280                   
03281 02848 16 00003.0  	AND	RESULT1	!F=C
03282 02849 13 01228    	FTCHD	DSP32_0	!display 32 eenheden
03283 02850 13 01229    	FTCHD	DSP32_1	!display 32 tientallen
03284 02851 13 01230    	FTCHD	DSP32_2	!display 32 honderdtallen
03285 02852 13 01231    	FTCHD	DSP32_3	!display 32 duizendtallen
03286 02853 14 00160    	STRD	DISPL_0	!display aansturing eenh.
03287 02854 14 00161    	STRD	DISPL_1	!display aansturing tiental.
03288 02855 14 00162    	STRD	DISPL_2	!display aansturing honderdt.
03289 02856 14 00163    	STRD	DISPL_3	!display aansturing duizendt.
03290                   
03291 02857 17 00000.1  	ANDNT	000.1
03292 02858 30 01272    	JFRF	L04130
03293                   
03294 02859 16 00000.1  L02859	AND	000.1
03295 02860 13 00110    	FTCHD	DWS2_1	!eenheid DWS
03296 02861 13 00111    	FTCHD	DWS2_2	!tiental DWS
03297 02862 15 01503    	COMP	1503	!constante 3
03298 02863 15 01503    	COMP	1503	!constante 3
03299 02864 10 00003.0  	STRB	RESULT1	!F=C
03300                   
03301 02865 16 00003.0  	AND	RESULT1	!F=C
03302 02866 30 00012    	JFRF	L02878
03303                   
03304 02867 16 00003.0  	AND	RESULT1	!F=C
03305 02868 13 01232    	FTCHD	DSP33_0	!display 33 eenheden
03306 02869 13 01233    	FTCHD	DSP33_1	!display 33 tientallen
03307 02870 13 01234    	FTCHD	DSP33_2	!display 33 honderdtallen
03308 02871 13 01235    	FTCHD	DSP33_3	!display 33 duizendtallen
03309 02872 14 00160    	STRD	DISPL_0	!display aansturing eenh.
03310 02873 14 00161    	STRD	DISPL_1	!display aansturing tiental.
03311 02874 14 00162    	STRD	DISPL_2	!display aansturing honderdt.
03312 02875 14 00163    	STRD	DISPL_3	!display aansturing duizendt.
03313                   
03314 02876 17 00000.1  	ANDNT	000.1
03315 02877 30 01253    	JFRF	L04130
03316                   
03317 02878 16 00000.1  L02878	AND	000.1
03318 02879 13 00110    	FTCHD	DWS2_1	!eenheid DWS
03319 02880 13 00111    	FTCHD	DWS2_2	!tiental DWS
03320 02881 15 01504    	COMP	1504	!constante 4
03321 02882 15 01503    	COMP	1503	!constante 3
03322 02883 10 00003.0  	STRB	RESULT1	!F=C
03323                   
03324 02884 16 00003.0  	AND	RESULT1	!F=C
03325 02885 30 00012    	JFRF	L02897
03326                   
03327 02886 16 00003.0  	AND	RESULT1	!F=C
03328 02887 13 01236    	FTCHD	DSP34_0	!display 34 eenheden
03329 02888 13 01237    	FTCHD	DSP34_1	!display 34 tientallen
03330 02889 13 01238    	FTCHD	DSP34_2	!display 34 honderdtallen
03331 02890 13 01239    	FTCHD	DSP34_3	!display 34 duizendtallen
03332 02891 14 00160    	STRD	DISPL_0	!display aansturing eenh.
03333 02892 14 00161    	STRD	DISPL_1	!display aansturing tiental.
03334 02893 14 00162    	STRD	DISPL_2	!display aansturing honderdt.
03335 02894 14 00163    	STRD	DISPL_3	!display aansturing duizendt.
03336                   
03337 02895 17 00000.1  	ANDNT	000.1
03338 02896 30 01234    	JFRF	L04130
03339                   
03340 02897 16 00000.1  L02897	AND	000.1
03341 02898 13 00110    	FTCHD	DWS2_1	!eenheid DWS
03342 02899 13 00111    	FTCHD	DWS2_2	!tiental DWS
03343 02900 15 01505    	COMP	1505	!constante 5
03344 02901 15 01503    	COMP	1503	!constante 3
03345 02902 10 00003.0  	STRB	RESULT1	!F=C
03346                   
03347 02903 16 00003.0  	AND	RESULT1	!F=C
03348 02904 30 00012    	JFRF	L02916
03349                   
03350 02905 16 00003.0  	AND	RESULT1	!F=C
03351 02906 13 01240    	FTCHD	DSP35_0	!display 35 eenheden
03352 02907 13 01241    	FTCHD	DSP35_1	!display 35 tientallen
03353 02908 13 01242    	FTCHD	DSP35_2	!display 35 honderdtallen
03354 02909 13 01243    	FTCHD	DSP35_3	!display 35 duizendtallen
03355 02910 14 00160    	STRD	DISPL_0	!display aansturing eenh.
03356 02911 14 00161    	STRD	DISPL_1	!display aansturing tiental.
03357 02912 14 00162    	STRD	DISPL_2	!display aansturing honderdt.
03358 02913 14 00163    	STRD	DISPL_3	!display aansturing duizendt.
03359                   
03360 02914 17 00000.1  	ANDNT	000.1
03361 02915 30 01215    	JFRF	L04130
03362                   
03363 02916 16 00000.1  L02916	AND	000.1
03364 02917 13 00110    	FTCHD	DWS2_1	!eenheid DWS
03365 02918 13 00111    	FTCHD	DWS2_2	!tiental DWS
03366 02919 15 01506    	COMP	1506	!constante 6
03367 02920 15 01503    	COMP	1503	!constante 3
03368 02921 10 00003.0  	STRB	RESULT1	!F=C
03369                   
03370 02922 16 00003.0  	AND	RESULT1	!F=C
03371 02923 30 00012    	JFRF	L02935
03372                   
03373 02924 16 00003.0  	AND	RESULT1	!F=C
03374 02925 13 01244    	FTCHD	DSP36_0	!display 36 eenheden
03375 02926 13 01245    	FTCHD	DSP36_1	!display 36 tientallen
03376 02927 13 01246    	FTCHD	DSP36_2	!display 36 honderdtallen
03377 02928 13 01247    	FTCHD	DSP36_3	!display 36 duizendtallen
03378 02929 14 00160    	STRD	DISPL_0	!display aansturing eenh.
03379 02930 14 00161    	STRD	DISPL_1	!display aansturing tiental.
03380 02931 14 00162    	STRD	DISPL_2	!display aansturing honderdt.
03381 02932 14 00163    	STRD	DISPL_3	!display aansturing duizendt.
03382                   
03383 02933 17 00000.1  	ANDNT	000.1
03384 02934 30 01196    	JFRF	L04130
03385                   
03386 02935 16 00000.1  L02935	AND	000.1
03387 02936 13 00110    	FTCHD	DWS2_1	!eenheid DWS
03388 02937 13 00111    	FTCHD	DWS2_2	!tiental DWS
03389 02938 15 01507    	COMP	1507	!constante 7
03390 02939 15 01503    	COMP	1503	!constante 3
03391 02940 10 00003.0  	STRB	RESULT1	!F=C
03392                   
03393 02941 16 00003.0  	AND	RESULT1	!F=C
03394 02942 30 00012    	JFRF	L02954
03395                   
03396 02943 16 00003.0  	AND	RESULT1	!F=C
03397 02944 13 01248    	FTCHD	DSP37_0	!display 37 eenheden
03398 02945 13 01249    	FTCHD	DSP37_1	!display 37 tientallen
03399 02946 13 01250    	FTCHD	DSP37_2	!display 37 honderdtallen
03400 02947 13 01251    	FTCHD	DSP37_3	!display 37 duizendtallen
03401 02948 14 00160    	STRD	DISPL_0	!display aansturing eenh.
03402 02949 14 00161    	STRD	DISPL_1	!display aansturing tiental.
03403 02950 14 00162    	STRD	DISPL_2	!display aansturing honderdt.
03404 02951 14 00163    	STRD	DISPL_3	!display aansturing duizendt.
03405                   
03406 02952 17 00000.1  	ANDNT	000.1
03407 02953 30 01177    	JFRF	L04130
03408                   
03409 02954 16 00000.1  L02954	AND	000.1
03410 02955 13 00110    	FTCHD	DWS2_1	!eenheid DWS
03411 02956 13 00111    	FTCHD	DWS2_2	!tiental DWS
03412 02957 15 01508    	COMP	1508	!constante 8
03413 02958 15 01503    	COMP	1503	!constante 3
03414 02959 10 00003.0  	STRB	RESULT1	!F=C
03415                   
03416 02960 16 00003.0  	AND	RESULT1	!F=C
03417 02961 30 00012    	JFRF	L02973
03418                   
03419 02962 16 00003.0  	AND	RESULT1	!F=C
03420 02963 13 01252    	FTCHD	DSP38_0	!display 38 eenheden
03421 02964 13 01253    	FTCHD	DSP38_1	!display 38 tientallen
03422 02965 13 01254    	FTCHD	DSP38_2	!display 38 honderdtallen
03423 02966 13 01255    	FTCHD	DSP38_3	!display 38 duizendtallen
03424 02967 14 00160    	STRD	DISPL_0	!display aansturing eenh.
03425 02968 14 00161    	STRD	DISPL_1	!display aansturing tiental.
03426 02969 14 00162    	STRD	DISPL_2	!display aansturing honderdt.
03427 02970 14 00163    	STRD	DISPL_3	!display aansturing duizendt.
03428                   
03429 02971 17 00000.1  	ANDNT	000.1
03430 02972 30 01158    	JFRF	L04130
03431                   
03432 02973 16 00000.1  L02973	AND	000.1
03433 02974 13 00110    	FTCHD	DWS2_1	!eenheid DWS
03434 02975 13 00111    	FTCHD	DWS2_2	!tiental DWS
03435 02976 15 01509    	COMP	1509	!constante 9
03436 02977 15 01503    	COMP	1503	!constante 3
03437 02978 10 00003.0  	STRB	RESULT1	!F=C
03438                   
03439 02979 16 00003.0  	AND	RESULT1	!F=C
03440 02980 30 00012    	JFRF	L02992
03441                   
03442 02981 16 00003.0  	AND	RESULT1	!F=C
03443 02982 13 01256    	FTCHD	DSP39_0	!display 39 eenheden
03444 02983 13 01257    	FTCHD	DSP39_1	!display 39 tientallen
03445 02984 13 01258    	FTCHD	DSP39_2	!display 39 honderdtallen
03446 02985 13 01259    	FTCHD	DSP39_3	!display 39 duizendtallen
03447 02986 14 00160    	STRD	DISPL_0	!display aansturing eenh.
03448 02987 14 00161    	STRD	DISPL_1	!display aansturing tiental.
03449 02988 14 00162    	STRD	DISPL_2	!display aansturing honderdt.
03450 02989 14 00163    	STRD	DISPL_3	!display aansturing duizendt.
03451                   
03452 02990 17 00000.1  	ANDNT	000.1
03453 02991 30 01139    	JFRF	L04130
03454                   
03455 02992 16 00000.1  L02992	AND	000.1
03456 02993 13 00110    	FTCHD	DWS2_1	!eenheid DWS
03457 02994 13 00111    	FTCHD	DWS2_2	!tiental DWS
03458 02995 15 01500    	COMP	1500	!constante 0
03459 02996 15 01504    	COMP	1504	!constante 4
03460 02997 10 00003.0  	STRB	RESULT1	!F=C
03461                   
03462 02998 16 00003.0  	AND	RESULT1	!F=C
03463 02999 30 00012    	JFRF	L03011
03464                   
03465 03000 16 00003.0  	AND	RESULT1	!F=C
03466 03001 13 01260    	FTCHD	DSP40_0	!display 40 eenheden
03467 03002 13 01261    	FTCHD	DSP40_1	!display 40 tientallen
03468 03003 13 01262    	FTCHD	DSP40_2	!display 40 honderdtallen
03469 03004 13 01263    	FTCHD	DSP40_3	!display 40 duizendtallen
03470 03005 14 00160    	STRD	DISPL_0	!display aansturing eenh.
03471 03006 14 00161    	STRD	DISPL_1	!display aansturing tiental.
03472 03007 14 00162    	STRD	DISPL_2	!display aansturing honderdt.
03473 03008 14 00163    	STRD	DISPL_3	!display aansturing duizendt.
03474                   
03475 03009 17 00000.1  	ANDNT	000.1
03476 03010 30 01120    	JFRF	L04130
03477                   
03478 03011 16 00000.1  L03011	AND	000.1
03479 03012 13 00110    	FTCHD	DWS2_1	!eenheid DWS
03480 03013 13 00111    	FTCHD	DWS2_2	!tiental DWS
03481 03014 15 01501    	COMP	1501	!constante 1
03482 03015 15 01504    	COMP	1504	!constante 4
03483 03016 10 00003.0  	STRB	RESULT1	!F=C
03484                   
03485 03017 16 00003.0  	AND	RESULT1	!F=C
03486 03018 30 00012    	JFRF	L03030
03487                   
03488 03019 16 00003.0  	AND	RESULT1	!F=C
03489 03020 13 01264    	FTCHD	DSP41_0	!display 41 eenheden
03490 03021 13 01265    	FTCHD	DSP41_1	!display 41 tientallen
03491 03022 13 01266    	FTCHD	DSP41_2	!display 41 honderdtallen
03492 03023 13 01267    	FTCHD	DSP41_3	!display 41 duizendtallen
03493 03024 14 00160    	STRD	DISPL_0	!display aansturing eenh.
03494 03025 14 00161    	STRD	DISPL_1	!display aansturing tiental.
03495 03026 14 00162    	STRD	DISPL_2	!display aansturing honderdt.
03496 03027 14 00163    	STRD	DISPL_3	!display aansturing duizendt.
03497                   
03498 03028 17 00000.1  	ANDNT	000.1
03499 03029 30 01101    	JFRF	L04130
03500                   
03501 03030 16 00000.1  L03030	AND	000.1
03502 03031 13 00110    	FTCHD	DWS2_1	!eenheid DWS
03503 03032 13 00111    	FTCHD	DWS2_2	!tiental DWS
03504 03033 15 01502    	COMP	1502	!constante 2
03505 03034 15 01504    	COMP	1504	!constante 4
03506 03035 10 00003.0  	STRB	RESULT1	!F=C
03507                   
03508 03036 16 00003.0  	AND	RESULT1	!F=C
03509 03037 30 00012    	JFRF	L03049
03510                   
03511 03038 16 00003.0  	AND	RESULT1	!F=C
03512 03039 13 01268    	FTCHD	DSP42_0	!display 42 eenheden
03513 03040 13 01269    	FTCHD	DSP42_1	!display 42 tientallen
03514 03041 13 01270    	FTCHD	DSP42_2	!display 42 honderdtallen
03515 03042 13 01271    	FTCHD	DSP42_3	!display 42 duizendtallen
03516 03043 14 00160    	STRD	DISPL_0	!display aansturing eenh.
03517 03044 14 00161    	STRD	DISPL_1	!display aansturing tiental.
03518 03045 14 00162    	STRD	DISPL_2	!display aansturing honderdt.
03519 03046 14 00163    	STRD	DISPL_3	!display aansturing duizendt.
03520                   
03521 03047 17 00000.1  	ANDNT	000.1
03522 03048 30 01082    	JFRF	L04130
03523                   
03524 03049 16 00000.1  L03049	AND	000.1
03525 03050 13 00110    	FTCHD	DWS2_1	!eenheid DWS
03526 03051 13 00111    	FTCHD	DWS2_2	!tiental DWS
03527 03052 15 01503    	COMP	1503	!constante 3
03528 03053 15 01504    	COMP	1504	!constante 4
03529 03054 10 00003.0  	STRB	RESULT1	!F=C
03530                   
03531 03055 16 00003.0  	AND	RESULT1	!F=C
03532 03056 30 00012    	JFRF	L03068
03533                   
03534 03057 16 00003.0  	AND	RESULT1	!F=C
03535 03058 13 01272    	FTCHD	DSP43_0	!display 43 eenheden
03536 03059 13 01273    	FTCHD	DSP43_1	!display 43 tientallen
03537 03060 13 01274    	FTCHD	DSP43_2	!display 43 honderdtallen
03538 03061 13 01275    	FTCHD	DSP43_3	!display 43 duizendtallen
03539 03062 14 00160    	STRD	DISPL_0	!display aansturing eenh.
03540 03063 14 00161    	STRD	DISPL_1	!display aansturing tiental.
03541 03064 14 00162    	STRD	DISPL_2	!display aansturing honderdt.
03542 03065 14 00163    	STRD	DISPL_3	!display aansturing duizendt.
03543                   
03544 03066 17 00000.1  	ANDNT	000.1
03545 03067 30 01063    	JFRF	L04130
03546                   
03547 03068 16 00000.1  L03068	AND	000.1
03548 03069 13 00110    	FTCHD	DWS2_1	!eenheid DWS
03549 03070 13 00111    	FTCHD	DWS2_2	!tiental DWS
03550 03071 15 01504    	COMP	1504	!constante 4
03551 03072 15 01504    	COMP	1504	!constante 4
03552 03073 10 00003.0  	STRB	RESULT1	!F=C
03553                   
03554 03074 16 00003.0  	AND	RESULT1	!F=C
03555 03075 30 00012    	JFRF	L03087
03556                   
03557 03076 16 00003.0  	AND	RESULT1	!F=C
03558 03077 13 01276    	FTCHD	DSP44_0	!display 44 eenheden
03559 03078 13 01277    	FTCHD	DSP44_1	!display 44 tientallen
03560 03079 13 01278    	FTCHD	DSP44_2	!display 44 honderdtallen
03561 03080 13 01279    	FTCHD	DSP44_3	!display 44 duizendtallen
03562 03081 14 00160    	STRD	DISPL_0	!display aansturing eenh.
03563 03082 14 00161    	STRD	DISPL_1	!display aansturing tiental.
03564 03083 14 00162    	STRD	DISPL_2	!display aansturing honderdt.
03565 03084 14 00163    	STRD	DISPL_3	!display aansturing duizendt.
03566                   
03567 03085 17 00000.1  	ANDNT	000.1
03568 03086 30 01044    	JFRF	L04130
03569                   
03570 03087 16 00000.1  L03087	AND	000.1
03571 03088 13 00110    	FTCHD	DWS2_1	!eenheid DWS
03572 03089 13 00111    	FTCHD	DWS2_2	!tiental DWS
03573 03090 15 01505    	COMP	1505	!constante 5
03574 03091 15 01504    	COMP	1504	!constante 4
03575 03092 10 00003.0  	STRB	RESULT1	!F=C
03576                   
03577 03093 16 00003.0  	AND	RESULT1	!F=C
03578 03094 30 00012    	JFRF	L03106
03579                   
03580 03095 16 00003.0  	AND	RESULT1	!F=C
03581 03096 13 01280    	FTCHD	DSP45_0	!display 45 eenheden
03582 03097 13 01281    	FTCHD	DSP45_1	!display 45 tientallen
03583 03098 13 01282    	FTCHD	DSP45_2	!display 45 honderdtallen
03584 03099 13 01283    	FTCHD	DSP45_3	!display 45 duizendtallen
03585 03100 14 00160    	STRD	DISPL_0	!display aansturing eenh.
03586 03101 14 00161    	STRD	DISPL_1	!display aansturing tiental.
03587 03102 14 00162    	STRD	DISPL_2	!display aansturing honderdt.
03588 03103 14 00163    	STRD	DISPL_3	!display aansturing duizendt.
03589                   
03590 03104 17 00000.1  	ANDNT	000.1
03591 03105 30 01025    	JFRF	L04130
03592                   
03593 03106 16 00000.1  L03106	AND	000.1
03594 03107 13 00110    	FTCHD	DWS2_1	!eenheid DWS
03595 03108 13 00111    	FTCHD	DWS2_2	!tiental DWS
03596 03109 15 01506    	COMP	1506	!constante 6
03597 03110 15 01504    	COMP	1504	!constante 4
03598 03111 10 00003.0  	STRB	RESULT1	!F=C
03599                   
03600 03112 16 00003.0  	AND	RESULT1	!F=C
03601 03113 30 00012    	JFRF	L03125
03602                   
03603 03114 16 00003.0  	AND	RESULT1	!F=C
03604 03115 13 01284    	FTCHD	DSP46_0	!display 46 eenheden
03605 03116 13 01285    	FTCHD	DSP46_1	!display 46 tientallen
03606 03117 13 01286    	FTCHD	DSP46_2	!display 46 honderdtallen
03607 03118 13 01287    	FTCHD	DSP46_3	!display 46 duizendtallen
03608 03119 14 00160    	STRD	DISPL_0	!display aansturing eenh.
03609 03120 14 00161    	STRD	DISPL_1	!display aansturing tiental.
03610 03121 14 00162    	STRD	DISPL_2	!display aansturing honderdt.
03611 03122 14 00163    	STRD	DISPL_3	!display aansturing duizendt.
03612                   
03613 03123 17 00000.1  	ANDNT	000.1
03614 03124 30 01006    	JFRF	L04130
03615                   
03616 03125 16 00000.1  L03125	AND	000.1
03617 03126 13 00110    	FTCHD	DWS2_1	!eenheid DWS
03618 03127 13 00111    	FTCHD	DWS2_2	!tiental DWS
03619 03128 15 01507    	COMP	1507	!constante 7
03620 03129 15 01504    	COMP	1504	!constante 4
03621 03130 10 00003.0  	STRB	RESULT1	!F=C
03622                   
03623 03131 16 00003.0  	AND	RESULT1	!F=C
03624 03132 30 00012    	JFRF	L03144
03625                   
03626 03133 16 00003.0  	AND	RESULT1	!F=C
03627 03134 13 01288    	FTCHD	DSP47_0	!display 47 eenheden
03628 03135 13 01289    	FTCHD	DSP47_1	!display 47 tientallen
03629 03136 13 01290    	FTCHD	DSP47_2	!display 47 honderdtallen
03630 03137 13 01291    	FTCHD	DSP47_3	!display 47 duizendtallen
03631 03138 14 00160    	STRD	DISPL_0	!display aansturing eenh.
03632 03139 14 00161    	STRD	DISPL_1	!display aansturing tiental.
03633 03140 14 00162    	STRD	DISPL_2	!display aansturing honderdt.
03634 03141 14 00163    	STRD	DISPL_3	!display aansturing duizendt.
03635                   
03636 03142 17 00000.1  	ANDNT	000.1
03637 03143 30 00987    	JFRF	L04130
03638                   
03639 03144 16 00000.1  L03144	AND	000.1
03640 03145 13 00110    	FTCHD	DWS2_1	!eenheid DWS
03641 03146 13 00111    	FTCHD	DWS2_2	!tiental DWS
03642 03147 15 01508    	COMP	1508	!constante 8
03643 03148 15 01504    	COMP	1504	!constante 4
03644 03149 10 00003.0  	STRB	RESULT1	!F=C
03645                   
03646 03150 16 00003.0  	AND	RESULT1	!F=C
03647 03151 30 00012    	JFRF	L03163
03648                   
03649 03152 16 00003.0  	AND	RESULT1	!F=C
03650 03153 13 01292    	FTCHD	DSP48_0	!display 48 eenheden
03651 03154 13 01293    	FTCHD	DSP48_1	!display 48 tientallen
03652 03155 13 01294    	FTCHD	DSP48_2	!display 48 honderdtallen
03653 03156 13 01295    	FTCHD	DSP48_3	!display 48 duizendtallen
03654 03157 14 00160    	STRD	DISPL_0	!display aansturing eenh.
03655 03158 14 00161    	STRD	DISPL_1	!display aansturing tiental.
03656 03159 14 00162    	STRD	DISPL_2	!display aansturing honderdt.
03657 03160 14 00163    	STRD	DISPL_3	!display aansturing duizendt.
03658                   
03659 03161 17 00000.1  	ANDNT	000.1
03660 03162 30 00968    	JFRF	L04130
03661                   
03662 03163 16 00000.1  L03163	AND	000.1
03663 03164 13 00110    	FTCHD	DWS2_1	!eenheid DWS
03664 03165 13 00111    	FTCHD	DWS2_2	!tiental DWS
03665 03166 15 01509    	COMP	1509	!constante 9
03666 03167 15 01504    	COMP	1504	!constante 4
03667 03168 10 00003.0  	STRB	RESULT1	!F=C
03668                   
03669 03169 16 00003.0  	AND	RESULT1	!F=C
03670 03170 30 00012    	JFRF	L03182
03671                   
03672 03171 16 00003.0  	AND	RESULT1	!F=C
03673 03172 13 01296    	FTCHD	DSP49_0	!display 49 eenheden
03674 03173 13 01297    	FTCHD	DSP49_1	!display 49 tientallen
03675 03174 13 01298    	FTCHD	DSP49_2	!display 49 honderdtallen
03676 03175 13 01299    	FTCHD	DSP49_3	!display 49 duizendtallen
03677 03176 14 00160    	STRD	DISPL_0	!display aansturing eenh.
03678 03177 14 00161    	STRD	DISPL_1	!display aansturing tiental.
03679 03178 14 00162    	STRD	DISPL_2	!display aansturing honderdt.
03680 03179 14 00163    	STRD	DISPL_3	!display aansturing duizendt.
03681                   
03682 03180 17 00000.1  	ANDNT	000.1
03683 03181 30 00949    	JFRF	L04130
03684                   
03685 03182 16 00000.1  L03182	AND	000.1
03686 03183 13 00110    	FTCHD	DWS2_1	!eenheid DWS
03687 03184 13 00111    	FTCHD	DWS2_2	!tiental DWS
03688 03185 15 01500    	COMP	1500	!constante 0
03689 03186 15 01505    	COMP	1505	!constante 5
03690 03187 10 00003.0  	STRB	RESULT1	!F=C
03691                   
03692 03188 16 00003.0  	AND	RESULT1	!F=C
03693 03189 30 00012    	JFRF	L03201
03694                   
03695 03190 16 00003.0  	AND	RESULT1	!F=C
03696 03191 13 01300    	FTCHD	DSP50_0	!display 50 eenheden
03697 03192 13 01301    	FTCHD	DSP50_1	!display 50 tientallen
03698 03193 13 01302    	FTCHD	DSP50_2	!display 50 honderdtallen
03699 03194 13 01303    	FTCHD	DSP50_3	!display 50 duizendtallen
03700 03195 14 00160    	STRD	DISPL_0	!display aansturing eenh.
03701 03196 14 00161    	STRD	DISPL_1	!display aansturing tiental.
03702 03197 14 00162    	STRD	DISPL_2	!display aansturing honderdt.
03703 03198 14 00163    	STRD	DISPL_3	!display aansturing duizendt.
03704                   
03705 03199 17 00000.1  	ANDNT	000.1
03706 03200 30 00930    	JFRF	L04130
03707                   
03708 03201 16 00000.1  L03201	AND	000.1
03709 03202 13 00110    	FTCHD	DWS2_1	!eenheid DWS
03710 03203 13 00111    	FTCHD	DWS2_2	!tiental DWS
03711 03204 15 01501    	COMP	1501	!constante 1
03712 03205 15 01505    	COMP	1505	!constante 5
03713 03206 10 00003.0  	STRB	RESULT1	!F=C
03714                   
03715 03207 16 00003.0  	AND	RESULT1	!F=C
03716 03208 30 00012    	JFRF	L03220
03717                   
03718 03209 16 00003.0  	AND	RESULT1	!F=C
03719 03210 13 01304    	FTCHD	DSP51_0	!display 51 eenheden
03720 03211 13 01305    	FTCHD	DSP51_1	!display 51 tientallen
03721 03212 13 01306    	FTCHD	DSP51_2	!display 51 honderdtallen
03722 03213 13 01307    	FTCHD	DSP51_3	!display 51 duizendtallen
03723 03214 14 00160    	STRD	DISPL_0	!display aansturing eenh.
03724 03215 14 00161    	STRD	DISPL_1	!display aansturing tiental.
03725 03216 14 00162    	STRD	DISPL_2	!display aansturing honderdt.
03726 03217 14 00163    	STRD	DISPL_3	!display aansturing duizendt.
03727                   
03728 03218 17 00000.1  	ANDNT	000.1
03729 03219 30 00911    	JFRF	L04130
03730                   
03731 03220 16 00000.1  L03220	AND	000.1
03732 03221 13 00110    	FTCHD	DWS2_1	!eenheid DWS
03733 03222 13 00111    	FTCHD	DWS2_2	!tiental DWS
03734 03223 15 01502    	COMP	1502	!constante 2
03735 03224 15 01505    	COMP	1505	!constante 5
03736 03225 10 00003.0  	STRB	RESULT1	!F=C
03737                   
03738 03226 16 00003.0  	AND	RESULT1	!F=C
03739 03227 30 00012    	JFRF	L03239
03740                   
03741 03228 16 00003.0  	AND	RESULT1	!F=C
03742 03229 13 01308    	FTCHD	DSP52_0	!display 52 eenheden
03743 03230 13 01309    	FTCHD	DSP52_1	!display 52 tientallen
03744 03231 13 01310    	FTCHD	DSP52_2	!display 52 honderdtallen
03745 03232 13 01311    	FTCHD	DSP52_3	!display 52 duizendtallen
03746 03233 14 00160    	STRD	DISPL_0	!display aansturing eenh.
03747 03234 14 00161    	STRD	DISPL_1	!display aansturing tiental.
03748 03235 14 00162    	STRD	DISPL_2	!display aansturing honderdt.
03749 03236 14 00163    	STRD	DISPL_3	!display aansturing duizendt.
03750                   
03751 03237 17 00000.1  	ANDNT	000.1
03752 03238 30 00892    	JFRF	L04130
03753                   
03754 03239 16 00000.1  L03239	AND	000.1
03755 03240 13 00110    	FTCHD	DWS2_1	!eenheid DWS
03756 03241 13 00111    	FTCHD	DWS2_2	!tiental DWS
03757 03242 15 01503    	COMP	1503	!constante 3
03758 03243 15 01505    	COMP	1505	!constante 5
03759 03244 10 00003.0  	STRB	RESULT1	!F=C
03760                   
03761 03245 16 00003.0  	AND	RESULT1	!F=C
03762 03246 30 00012    	JFRF	L03258
03763                   
03764 03247 16 00003.0  	AND	RESULT1	!F=C
03765 03248 13 01312    	FTCHD	DSP53_0	!display 53 eenheden
03766 03249 13 01313    	FTCHD	DSP53_1	!display 53 tientallen
03767 03250 13 01314    	FTCHD	DSP53_2	!display 53 honderdtallen
03768 03251 13 01315    	FTCHD	DSP53_3	!display 53 duizendtallen
03769 03252 14 00160    	STRD	DISPL_0	!display aansturing eenh.
03770 03253 14 00161    	STRD	DISPL_1	!display aansturing tiental.
03771 03254 14 00162    	STRD	DISPL_2	!display aansturing honderdt.
03772 03255 14 00163    	STRD	DISPL_3	!display aansturing duizendt.
03773                   
03774 03256 17 00000.1  	ANDNT	000.1
03775 03257 30 00873    	JFRF	L04130
03776                   
03777 03258 16 00000.1  L03258	AND	000.1
03778 03259 13 00110    	FTCHD	DWS2_1	!eenheid DWS
03779 03260 13 00111    	FTCHD	DWS2_2	!tiental DWS
03780 03261 15 01504    	COMP	1504	!constante 4
03781 03262 15 01505    	COMP	1505	!constante 5
03782 03263 10 00003.0  	STRB	RESULT1	!F=C
03783                   
03784 03264 16 00003.0  	AND	RESULT1	!F=C
03785 03265 30 00012    	JFRF	L03277
03786                   
03787 03266 16 00003.0  	AND	RESULT1	!F=C
03788 03267 13 01316    	FTCHD	DSP54_0	!display 54 eenheden
03789 03268 13 01317    	FTCHD	DSP54_1	!display 54 tientallen
03790 03269 13 01318    	FTCHD	DSP54_2	!display 54 honderdtallen
03791 03270 13 01319    	FTCHD	DSP54_3	!display 54 duizendtallen
03792 03271 14 00160    	STRD	DISPL_0	!display aansturing eenh.
03793 03272 14 00161    	STRD	DISPL_1	!display aansturing tiental.
03794 03273 14 00162    	STRD	DISPL_2	!display aansturing honderdt.
03795 03274 14 00163    	STRD	DISPL_3	!display aansturing duizendt.
03796                   
03797 03275 17 00000.1  	ANDNT	000.1
03798 03276 30 00854    	JFRF	L04130
03799                   
03800 03277 16 00000.1  L03277	AND	000.1
03801 03278 13 00110    	FTCHD	DWS2_1	!eenheid DWS
03802 03279 13 00111    	FTCHD	DWS2_2	!tiental DWS
03803 03280 15 01505    	COMP	1505	!constante 5
03804 03281 15 01505    	COMP	1505	!constante 5
03805 03282 10 00003.0  	STRB	RESULT1	!F=C
03806                   
03807 03283 16 00003.0  	AND	RESULT1	!F=C
03808 03284 30 00012    	JFRF	L03296
03809                   
03810 03285 16 00003.0  	AND	RESULT1	!F=C
03811 03286 13 01320    	FTCHD	DSP55_0	!display 55 eenheden
03812 03287 13 01321    	FTCHD	DSP55_1	!display 55 tientallen
03813 03288 13 01322    	FTCHD	DSP55_2	!display 55 honderdtallen
03814 03289 13 01323    	FTCHD	DSP55_3	!display 55 duizendtallen
03815 03290 14 00160    	STRD	DISPL_0	!display aansturing eenh.
03816 03291 14 00161    	STRD	DISPL_1	!display aansturing tiental.
03817 03292 14 00162    	STRD	DISPL_2	!display aansturing honderdt.
03818 03293 14 00163    	STRD	DISPL_3	!display aansturing duizendt.
03819                   
03820 03294 17 00000.1  	ANDNT	000.1
03821 03295 30 00835    	JFRF	L04130
03822                   
03823 03296 16 00000.1  L03296	AND	000.1
03824 03297 13 00110    	FTCHD	DWS2_1	!eenheid DWS
03825 03298 13 00111    	FTCHD	DWS2_2	!tiental DWS
03826 03299 15 01506    	COMP	1506	!constante 6
03827 03300 15 01505    	COMP	1505	!constante 5
03828 03301 10 00003.0  	STRB	RESULT1	!F=C
03829                   
03830 03302 16 00003.0  	AND	RESULT1	!F=C
03831 03303 30 00012    	JFRF	L03315
03832                   
03833 03304 16 00003.0  	AND	RESULT1	!F=C
03834 03305 13 01324    	FTCHD	DSP56_0	!display 56 eenheden
03835 03306 13 01325    	FTCHD	DSP56_1	!display 56 tientallen
03836 03307 13 01326    	FTCHD	DSP56_2	!display 56 honderdtallen
03837 03308 13 01327    	FTCHD	DSP56_3	!display 56 duizendtallen
03838 03309 14 00160    	STRD	DISPL_0	!display aansturing eenh.
03839 03310 14 00161    	STRD	DISPL_1	!display aansturing tiental.
03840 03311 14 00162    	STRD	DISPL_2	!display aansturing honderdt.
03841 03312 14 00163    	STRD	DISPL_3	!display aansturing duizendt.
03842                   
03843 03313 17 00000.1  	ANDNT	000.1
03844 03314 30 00816    	JFRF	L04130
03845                   
03846 03315 16 00000.1  L03315	AND	000.1
03847 03316 13 00110    	FTCHD	DWS2_1	!eenheid DWS
03848 03317 13 00111    	FTCHD	DWS2_2	!tiental DWS
03849 03318 15 01507    	COMP	1507	!constante 7
03850 03319 15 01505    	COMP	1505	!constante 5
03851 03320 10 00003.0  	STRB	RESULT1	!F=C
03852                   
03853 03321 16 00003.0  	AND	RESULT1	!F=C
03854 03322 30 00012    	JFRF	L03334
03855                   
03856 03323 16 00003.0  	AND	RESULT1	!F=C
03857 03324 13 01328    	FTCHD	DSP57_0	!display 57 eenheden
03858 03325 13 01329    	FTCHD	DSP57_1	!display 57 tientallen
03859 03326 13 01330    	FTCHD	DSP57_2	!display 57 honderdtallen
03860 03327 13 01331    	FTCHD	DSP57_3	!display 57 duizendtallen
03861 03328 14 00160    	STRD	DISPL_0	!display aansturing eenh.
03862 03329 14 00161    	STRD	DISPL_1	!display aansturing tiental.
03863 03330 14 00162    	STRD	DISPL_2	!display aansturing honderdt.
03864 03331 14 00163    	STRD	DISPL_3	!display aansturing duizendt.
03865                   
03866 03332 17 00000.1  	ANDNT	000.1
03867 03333 30 00797    	JFRF	L04130
03868                   
03869 03334 16 00000.1  L03334	AND	000.1
03870 03335 13 00110    	FTCHD	DWS2_1	!eenheid DWS
03871 03336 13 00111    	FTCHD	DWS2_2	!tiental DWS
03872 03337 15 01508    	COMP	1508	!constante 8
03873 03338 15 01505    	COMP	1505	!constante 5
03874 03339 10 00003.0  	STRB	RESULT1	!F=C
03875                   
03876 03340 16 00003.0  	AND	RESULT1	!F=C
03877 03341 30 00012    	JFRF	L03353
03878                   
03879 03342 16 00003.0  	AND	RESULT1	!F=C
03880 03343 13 01332    	FTCHD	DSP58_0	!display 58 eenheden
03881 03344 13 01333    	FTCHD	DSP58_1	!display 58 tientallen
03882 03345 13 01334    	FTCHD	DSP58_2	!display 58 honderdtallen
03883 03346 13 01335    	FTCHD	DSP58_3	!display 58 duizendtallen
03884 03347 14 00160    	STRD	DISPL_0	!display aansturing eenh.
03885 03348 14 00161    	STRD	DISPL_1	!display aansturing tiental.
03886 03349 14 00162    	STRD	DISPL_2	!display aansturing honderdt.
03887 03350 14 00163    	STRD	DISPL_3	!display aansturing duizendt.
03888                   
03889 03351 17 00000.1  	ANDNT	000.1
03890 03352 30 00778    	JFRF	L04130
03891                   
03892 03353 16 00000.1  L03353	AND	000.1
03893 03354 13 00110    	FTCHD	DWS2_1	!eenheid DWS
03894 03355 13 00111    	FTCHD	DWS2_2	!tiental DWS
03895 03356 15 01509    	COMP	1509	!constante 9
03896 03357 15 01505    	COMP	1505	!constante 5
03897 03358 10 00003.0  	STRB	RESULT1	!F=C
03898                   
03899 03359 16 00003.0  	AND	RESULT1	!F=C
03900 03360 30 00012    	JFRF	L03372
03901                   
03902 03361 16 00003.0  	AND	RESULT1	!F=C
03903 03362 13 01336    	FTCHD	DSP59_0	!display 59 eenheden
03904 03363 13 01337    	FTCHD	DSP59_1	!display 59 tientallen
03905 03364 13 01338    	FTCHD	DSP59_2	!display 59 honderdtallen
03906 03365 13 01339    	FTCHD	DSP59_3	!display 59 duizendtallen
03907 03366 14 00160    	STRD	DISPL_0	!display aansturing eenh.
03908 03367 14 00161    	STRD	DISPL_1	!display aansturing tiental.
03909 03368 14 00162    	STRD	DISPL_2	!display aansturing honderdt.
03910 03369 14 00163    	STRD	DISPL_3	!display aansturing duizendt.
03911                   
03912 03370 17 00000.1  	ANDNT	000.1
03913 03371 30 00759    	JFRF	L04130
03914                   
03915 03372 16 00000.1  L03372	AND	000.1
03916 03373 13 00110    	FTCHD	DWS2_1	!eenheid DWS
03917 03374 13 00111    	FTCHD	DWS2_2	!tiental DWS
03918 03375 15 01500    	COMP	1500	!constante 0
03919 03376 15 01506    	COMP	1506	!constante 6
03920 03377 10 00003.0  	STRB	RESULT1	!F=C
03921                   
03922 03378 16 00003.0  	AND	RESULT1	!F=C
03923 03379 30 00012    	JFRF	L03391
03924                   
03925 03380 16 00003.0  	AND	RESULT1	!F=C
03926 03381 13 01340    	FTCHD	DSP60_0	!display 60 eenheden
03927 03382 13 01341    	FTCHD	DSP60_1	!display 60 tientallen
03928 03383 13 01342    	FTCHD	DSP60_2	!display 60 honderdtallen
03929 03384 13 01343    	FTCHD	DSP60_3	!display 60 duizendtallen
03930 03385 14 00160    	STRD	DISPL_0	!display aansturing eenh.
03931 03386 14 00161    	STRD	DISPL_1	!display aansturing tiental.
03932 03387 14 00162    	STRD	DISPL_2	!display aansturing honderdt.
03933 03388 14 00163    	STRD	DISPL_3	!display aansturing duizendt.
03934                   
03935 03389 17 00000.1  	ANDNT	000.1
03936 03390 30 00740    	JFRF	L04130
03937                   
03938 03391 16 00000.1  L03391	AND	000.1
03939 03392 13 00110    	FTCHD	DWS2_1	!eenheid DWS
03940 03393 13 00111    	FTCHD	DWS2_2	!tiental DWS
03941 03394 15 01501    	COMP	1501	!constante 1
03942 03395 15 01506    	COMP	1506	!constante 6
03943 03396 10 00003.0  	STRB	RESULT1	!F=C
03944                   
03945 03397 16 00003.0  	AND	RESULT1	!F=C
03946 03398 30 00012    	JFRF	L03410
03947                   
03948 03399 16 00003.0  	AND	RESULT1	!F=C
03949 03400 13 01344    	FTCHD	DSP61_0	!display 61 eenheden
03950 03401 13 01345    	FTCHD	DSP61_1	!display 61 tientallen
03951 03402 13 01346    	FTCHD	DSP61_2	!display 61 honderdtallen
03952 03403 13 01347    	FTCHD	DSP61_3	!display 61 duizendtallen
03953 03404 14 00160    	STRD	DISPL_0	!display aansturing eenh.
03954 03405 14 00161    	STRD	DISPL_1	!display aansturing tiental.
03955 03406 14 00162    	STRD	DISPL_2	!display aansturing honderdt.
03956 03407 14 00163    	STRD	DISPL_3	!display aansturing duizendt.
03957                   
03958 03408 17 00000.1  	ANDNT	000.1
03959 03409 30 00721    	JFRF	L04130
03960                   
03961 03410 16 00000.1  L03410	AND	000.1
03962 03411 13 00110    	FTCHD	DWS2_1	!eenheid DWS
03963 03412 13 00111    	FTCHD	DWS2_2	!tiental DWS
03964 03413 15 01502    	COMP	1502	!constante 2
03965 03414 15 01506    	COMP	1506	!constante 6
03966 03415 10 00003.0  	STRB	RESULT1	!F=C
03967                   
03968 03416 16 00003.0  	AND	RESULT1	!F=C
03969 03417 30 00012    	JFRF	L03429
03970                   
03971 03418 16 00003.0  	AND	RESULT1	!F=C
03972 03419 13 01348    	FTCHD	DSP62_0	!display 62 eenheden
03973 03420 13 01349    	FTCHD	DSP62_1	!display 62 tientallen
03974 03421 13 01350    	FTCHD	DSP62_2	!display 62 honderdtallen
03975 03422 13 01351    	FTCHD	DSP62_3	!display 62 duizendtallen
03976 03423 14 00160    	STRD	DISPL_0	!display aansturing eenh.
03977 03424 14 00161    	STRD	DISPL_1	!display aansturing tiental.
03978 03425 14 00162    	STRD	DISPL_2	!display aansturing honderdt.
03979 03426 14 00163    	STRD	DISPL_3	!display aansturing duizendt.
03980                   
03981 03427 17 00000.1  	ANDNT	000.1
03982 03428 30 00702    	JFRF	L04130
03983                   
03984 03429 16 00000.1  L03429	AND	000.1
03985 03430 13 00110    	FTCHD	DWS2_1	!eenheid DWS
03986 03431 13 00111    	FTCHD	DWS2_2	!tiental DWS
03987 03432 15 01503    	COMP	1503	!constante 3
03988 03433 15 01506    	COMP	1506	!constante 6
03989 03434 10 00003.0  	STRB	RESULT1	!F=C
03990                   
03991 03435 16 00003.0  	AND	RESULT1	!F=C
03992 03436 30 00012    	JFRF	L03448
03993                   
03994 03437 16 00003.0  	AND	RESULT1	!F=C
03995 03438 13 01352    	FTCHD	DSP63_0	!display 63 eenheden
03996 03439 13 01353    	FTCHD	DSP63_1	!display 63 tientallen
03997 03440 13 01354    	FTCHD	DSP63_2	!display 63 honderdtallen
03998 03441 13 01355    	FTCHD	DSP63_3	!display 63 duizendtallen
03999 03442 14 00160    	STRD	DISPL_0	!display aansturing eenh.
04000 03443 14 00161    	STRD	DISPL_1	!display aansturing tiental.
04001 03444 14 00162    	STRD	DISPL_2	!display aansturing honderdt.
04002 03445 14 00163    	STRD	DISPL_3	!display aansturing duizendt.
04003                   
04004 03446 17 00000.1  	ANDNT	000.1
04005 03447 30 00683    	JFRF	L04130
04006                   
04007 03448 16 00000.1  L03448	AND	000.1
04008 03449 13 00110    	FTCHD	DWS2_1	!eenheid DWS
04009 03450 13 00111    	FTCHD	DWS2_2	!tiental DWS
04010 03451 15 01504    	COMP	1504	!constante 4
04011 03452 15 01506    	COMP	1506	!constante 6
04012 03453 10 00003.0  	STRB	RESULT1	!F=C
04013                   
04014 03454 16 00003.0  	AND	RESULT1	!F=C
04015 03455 30 00012    	JFRF	L03467
04016                   
04017 03456 16 00003.0  	AND	RESULT1	!F=C
04018 03457 13 01356    	FTCHD	DSP64_0	!display 64 eenheden
04019 03458 13 01357    	FTCHD	DSP64_1	!display 64 tientallen
04020 03459 13 01358    	FTCHD	DSP64_2	!display 64 honderdtallen
04021 03460 13 01359    	FTCHD	DSP64_3	!display 64 duizendtallen
04022 03461 14 00160    	STRD	DISPL_0	!display aansturing eenh.
04023 03462 14 00161    	STRD	DISPL_1	!display aansturing tiental.
04024 03463 14 00162    	STRD	DISPL_2	!display aansturing honderdt.
04025 03464 14 00163    	STRD	DISPL_3	!display aansturing duizendt.
04026                   
04027 03465 17 00000.1  	ANDNT	000.1
04028 03466 30 00664    	JFRF	L04130
04029                   
04030 03467 16 00000.1  L03467	AND	000.1
04031 03468 13 00110    	FTCHD	DWS2_1	!eenheid DWS
04032 03469 13 00111    	FTCHD	DWS2_2	!tiental DWS
04033 03470 15 01505    	COMP	1505	!constante 5
04034 03471 15 01506    	COMP	1506	!constante 6
04035 03472 10 00003.0  	STRB	RESULT1	!F=C
04036                   
04037 03473 16 00003.0  	AND	RESULT1	!F=C
04038 03474 30 00012    	JFRF	L03486
04039                   
04040 03475 16 00003.0  	AND	RESULT1	!F=C
04041 03476 13 01360    	FTCHD	DSP65_0	!display 65 eenheden
04042 03477 13 01361    	FTCHD	DSP65_1	!display 65 tientallen
04043 03478 13 01362    	FTCHD	DSP65_2	!display 65 honderdtallen
04044 03479 13 01363    	FTCHD	DSP65_3	!display 65 duizendtallen
04045 03480 14 00160    	STRD	DISPL_0	!display aansturing eenh.
04046 03481 14 00161    	STRD	DISPL_1	!display aansturing tiental.
04047 03482 14 00162    	STRD	DISPL_2	!display aansturing honderdt.
04048 03483 14 00163    	STRD	DISPL_3	!display aansturing duizendt.
04049                   
04050 03484 17 00000.1  	ANDNT	000.1
04051 03485 30 00645    	JFRF	L04130
04052                   
04053 03486 16 00000.1  L03486	AND	000.1
04054 03487 13 00110    	FTCHD	DWS2_1	!eenheid DWS
04055 03488 13 00111    	FTCHD	DWS2_2	!tiental DWS
04056 03489 15 01506    	COMP	1506	!constante 6
04057 03490 15 01506    	COMP	1506	!constante 6
04058 03491 10 00003.0  	STRB	RESULT1	!F=C
04059                   
04060 03492 16 00003.0  	AND	RESULT1	!F=C
04061 03493 30 00012    	JFRF	L03505
04062                   
04063 03494 16 00003.0  	AND	RESULT1	!F=C
04064 03495 13 01364    	FTCHD	DSP66_0	!display 66 eenheden
04065 03496 13 01365    	FTCHD	DSP66_1	!display 66 tientallen
04066 03497 13 01366    	FTCHD	DSP66_2	!display 66 honderdtallen
04067 03498 13 01367    	FTCHD	DSP66_3	!display 66 duizendtallen
04068 03499 14 00160    	STRD	DISPL_0	!display aansturing eenh.
04069 03500 14 00161    	STRD	DISPL_1	!display aansturing tiental.
04070 03501 14 00162    	STRD	DISPL_2	!display aansturing honderdt.
04071 03502 14 00163    	STRD	DISPL_3	!display aansturing duizendt.
04072                   
04073 03503 17 00000.1  	ANDNT	000.1
04074 03504 30 00626    	JFRF	L04130
04075                   
04076 03505 16 00000.1  L03505	AND	000.1
04077 03506 13 00110    	FTCHD	DWS2_1	!eenheid DWS
04078 03507 13 00111    	FTCHD	DWS2_2	!tiental DWS
04079 03508 15 01507    	COMP	1507	!constante 7
04080 03509 15 01506    	COMP	1506	!constante 6
04081 03510 10 00003.0  	STRB	RESULT1	!F=C
04082                   
04083 03511 16 00003.0  	AND	RESULT1	!F=C
04084 03512 30 00012    	JFRF	L03524
04085                   
04086 03513 16 00003.0  	AND	RESULT1	!F=C
04087 03514 13 01368    	FTCHD	DSP67_0	!display 67 eenheden
04088 03515 13 01369    	FTCHD	DSP67_1	!display 67 tientallen
04089 03516 13 01370    	FTCHD	DSP67_2	!display 67 honderdtallen
04090 03517 13 01371    	FTCHD	DSP67_3	!display 67 duizendtallen
04091 03518 14 00160    	STRD	DISPL_0	!display aansturing eenh.
04092 03519 14 00161    	STRD	DISPL_1	!display aansturing tiental.
04093 03520 14 00162    	STRD	DISPL_2	!display aansturing honderdt.
04094 03521 14 00163    	STRD	DISPL_3	!display aansturing duizendt.
04095                   
04096 03522 17 00000.1  	ANDNT	000.1
04097 03523 30 00607    	JFRF	L04130
04098                   
04099 03524 16 00000.1  L03524	AND	000.1
04100 03525 13 00110    	FTCHD	DWS2_1	!eenheid DWS
04101 03526 13 00111    	FTCHD	DWS2_2	!tiental DWS
04102 03527 15 01508    	COMP	1508	!constante 8
04103 03528 15 01506    	COMP	1506	!constante 6
04104 03529 10 00003.0  	STRB	RESULT1	!F=C
04105                   
04106 03530 16 00003.0  	AND	RESULT1	!F=C
04107 03531 30 00012    	JFRF	L03543
04108                   
04109 03532 16 00003.0  	AND	RESULT1	!F=C
04110 03533 13 01372    	FTCHD	DSP68_0	!display 68 eenheden
04111 03534 13 01373    	FTCHD	DSP68_1	!display 68 tientallen
04112 03535 13 01374    	FTCHD	DSP68_2	!display 68 honderdtallen
04113 03536 13 01375    	FTCHD	DSP68_3	!display 68 duizendtallen
04114 03537 14 00160    	STRD	DISPL_0	!display aansturing eenh.
04115 03538 14 00161    	STRD	DISPL_1	!display aansturing tiental.
04116 03539 14 00162    	STRD	DISPL_2	!display aansturing honderdt.
04117 03540 14 00163    	STRD	DISPL_3	!display aansturing duizendt.
04118                   
04119 03541 17 00000.1  	ANDNT	000.1
04120 03542 30 00588    	JFRF	L04130
04121                   
04122 03543 16 00000.1  L03543	AND	000.1
04123 03544 13 00110    	FTCHD	DWS2_1	!eenheid DWS
04124 03545 13 00111    	FTCHD	DWS2_2	!tiental DWS
04125 03546 15 01509    	COMP	1509	!constante 9
04126 03547 15 01506    	COMP	1506	!constante 6
04127 03548 10 00003.0  	STRB	RESULT1	!F=C
04128                   
04129 03549 16 00003.0  	AND	RESULT1	!F=C
04130 03550 30 00012    	JFRF	L03562
04131                   
04132 03551 16 00003.0  	AND	RESULT1	!F=C
04133 03552 13 01376    	FTCHD	DSP69_0	!display 69 eenheden
04134 03553 13 01377    	FTCHD	DSP69_1	!display 69 tientallen
04135 03554 13 01378    	FTCHD	DSP69_2	!display 69 honderdtallen
04136 03555 13 01379    	FTCHD	DSP69_3	!display 69 duizendtallen
04137 03556 14 00160    	STRD	DISPL_0	!display aansturing eenh.
04138 03557 14 00161    	STRD	DISPL_1	!display aansturing tiental.
04139 03558 14 00162    	STRD	DISPL_2	!display aansturing honderdt.
04140 03559 14 00163    	STRD	DISPL_3	!display aansturing duizendt.
04141                   
04142 03560 17 00000.1  	ANDNT	000.1
04143 03561 30 00569    	JFRF	L04130
04144                   
04145 03562 16 00000.1  L03562	AND	000.1
04146 03563 13 00110    	FTCHD	DWS2_1	!eenheid DWS
04147 03564 13 00111    	FTCHD	DWS2_2	!tiental DWS
04148 03565 15 01500    	COMP	1500	!constante 0
04149 03566 15 01507    	COMP	1507	!constante 7
04150 03567 10 00003.0  	STRB	RESULT1	!F=C
04151                   
04152 03568 16 00003.0  	AND	RESULT1	!F=C
04153 03569 30 00012    	JFRF	L03581
04154                   
04155 03570 16 00003.0  	AND	RESULT1	!F=C
04156 03571 13 01380    	FTCHD	DSP70_0	!display 70 eenheden
04157 03572 13 01381    	FTCHD	DSP70_1	!display 70 tientallen
04158 03573 13 01382    	FTCHD	DSP70_2	!display 70 honderdtallen
04159 03574 13 01383    	FTCHD	DSP70_3	!display 70 duizendtallen
04160 03575 14 00160    	STRD	DISPL_0	!display aansturing eenh.
04161 03576 14 00161    	STRD	DISPL_1	!display aansturing tiental.
04162 03577 14 00162    	STRD	DISPL_2	!display aansturing honderdt.
04163 03578 14 00163    	STRD	DISPL_3	!display aansturing duizendt.
04164                   
04165 03579 17 00000.1  	ANDNT	000.1
04166 03580 30 00550    	JFRF	L04130
04167                   
04168 03581 16 00000.1  L03581	AND	000.1
04169 03582 13 00110    	FTCHD	DWS2_1	!eenheid DWS
04170 03583 13 00111    	FTCHD	DWS2_2	!tiental DWS
04171 03584 15 01501    	COMP	1501	!constante 1
04172 03585 15 01507    	COMP	1507	!constante 7
04173 03586 10 00003.0  	STRB	RESULT1	!F=C
04174                   
04175 03587 16 00003.0  	AND	RESULT1	!F=C
04176 03588 30 00012    	JFRF	L03600
04177                   
04178 03589 16 00003.0  	AND	RESULT1	!F=C
04179 03590 13 01384    	FTCHD	DSP71_0	!display 71 eenheden
04180 03591 13 01385    	FTCHD	DSP71_1	!display 71 tientallen
04181 03592 13 01386    	FTCHD	DSP71_2	!display 71 honderdtallen
04182 03593 13 01387    	FTCHD	DSP71_3	!display 71 duizendtallen
04183 03594 14 00160    	STRD	DISPL_0	!display aansturing eenh.
04184 03595 14 00161    	STRD	DISPL_1	!display aansturing tiental.
04185 03596 14 00162    	STRD	DISPL_2	!display aansturing honderdt.
04186 03597 14 00163    	STRD	DISPL_3	!display aansturing duizendt.
04187                   
04188 03598 17 00000.1  	ANDNT	000.1
04189 03599 30 00531    	JFRF	L04130
04190                   
04191 03600 16 00000.1  L03600	AND	000.1
04192 03601 13 00110    	FTCHD	DWS2_1	!eenheid DWS
04193 03602 13 00111    	FTCHD	DWS2_2	!tiental DWS
04194 03603 15 01502    	COMP	1502	!constante 2
04195 03604 15 01507    	COMP	1507	!constante 7
04196 03605 10 00003.0  	STRB	RESULT1	!F=C
04197                   
04198 03606 16 00003.0  	AND	RESULT1	!F=C
04199 03607 30 00012    	JFRF	L03619
04200                   
04201 03608 16 00003.0  	AND	RESULT1	!F=C
04202 03609 13 01388    	FTCHD	DSP72_0	!display 72 eenheden
04203 03610 13 01389    	FTCHD	DSP72_1	!display 72 tientallen
04204 03611 13 01390    	FTCHD	DSP72_2	!display 72 honderdtallen
04205 03612 13 01391    	FTCHD	DSP72_3	!display 72 duizendtallen
04206 03613 14 00160    	STRD	DISPL_0	!display aansturing eenh.
04207 03614 14 00161    	STRD	DISPL_1	!display aansturing tiental.
04208 03615 14 00162    	STRD	DISPL_2	!display aansturing honderdt.
04209 03616 14 00163    	STRD	DISPL_3	!display aansturing duizendt.
04210                   
04211 03617 17 00000.1  	ANDNT	000.1
04212 03618 30 00512    	JFRF	L04130
04213                   
04214 03619 16 00000.1  L03619	AND	000.1
04215 03620 13 00110    	FTCHD	DWS2_1	!eenheid DWS
04216 03621 13 00111    	FTCHD	DWS2_2	!tiental DWS
04217 03622 15 01503    	COMP	1503	!constante 3
04218 03623 15 01507    	COMP	1507	!constante 7
04219 03624 10 00003.0  	STRB	RESULT1	!F=C
04220                   
04221 03625 16 00003.0  	AND	RESULT1	!F=C
04222 03626 30 00012    	JFRF	L03638
04223                   
04224 03627 16 00003.0  	AND	RESULT1	!F=C
04225 03628 13 01392    	FTCHD	DSP73_0	!display 73 eenheden
04226 03629 13 01393    	FTCHD	DSP73_1	!display 73 tientallen
04227 03630 13 01394    	FTCHD	DSP73_2	!display 73 honderdtallen
04228 03631 13 01395    	FTCHD	DSP73_3	!display 73 duizendtallen
04229 03632 14 00160    	STRD	DISPL_0	!display aansturing eenh.
04230 03633 14 00161    	STRD	DISPL_1	!display aansturing tiental.
04231 03634 14 00162    	STRD	DISPL_2	!display aansturing honderdt.
04232 03635 14 00163    	STRD	DISPL_3	!display aansturing duizendt.
04233                   
04234 03636 17 00000.1  	ANDNT	000.1
04235 03637 30 00493    	JFRF	L04130
04236                   
04237 03638 16 00000.1  L03638	AND	000.1
04238 03639 13 00110    	FTCHD	DWS2_1	!eenheid DWS
04239 03640 13 00111    	FTCHD	DWS2_2	!tiental DWS
04240 03641 15 01504    	COMP	1504	!constante 4
04241 03642 15 01507    	COMP	1507	!constante 7
04242 03643 10 00003.0  	STRB	RESULT1	!F=C
04243                   
04244 03644 16 00003.0  	AND	RESULT1	!F=C
04245 03645 30 00012    	JFRF	L03657
04246                   
04247 03646 16 00003.0  	AND	RESULT1	!F=C
04248 03647 13 01396    	FTCHD	DSP74_0	!display 74 eenheden
04249 03648 13 01397    	FTCHD	DSP74_1	!display 74 tientallen
04250 03649 13 01398    	FTCHD	DSP74_2	!display 74 honderdtallen
04251 03650 13 01399    	FTCHD	DSP74_3	!display 74 duizendtallen
04252 03651 14 00160    	STRD	DISPL_0	!display aansturing eenh.
04253 03652 14 00161    	STRD	DISPL_1	!display aansturing tiental.
04254 03653 14 00162    	STRD	DISPL_2	!display aansturing honderdt.
04255 03654 14 00163    	STRD	DISPL_3	!display aansturing duizendt.
04256                   
04257 03655 17 00000.1  	ANDNT	000.1
04258 03656 30 00474    	JFRF	L04130
04259                   
04260 03657 16 00000.1  L03657	AND	000.1
04261 03658 13 00110    	FTCHD	DWS2_1	!eenheid DWS
04262 03659 13 00111    	FTCHD	DWS2_2	!tiental DWS
04263 03660 15 01505    	COMP	1505	!constante 5
04264 03661 15 01507    	COMP	1507	!constante 7
04265 03662 10 00003.0  	STRB	RESULT1	!F=C
04266                   
04267 03663 16 00003.0  	AND	RESULT1	!F=C
04268 03664 30 00012    	JFRF	L03676
04269                   
04270 03665 16 00003.0  	AND	RESULT1	!F=C
04271 03666 13 01400    	FTCHD	DSP75_0	!display 75 eenheden
04272 03667 13 01401    	FTCHD	DSP75_1	!display 75 tientallen
04273 03668 13 01402    	FTCHD	DSP75_2	!display 75 honderdtallen
04274 03669 13 01403    	FTCHD	DSP75_3	!display 75 duizendtallen
04275 03670 14 00160    	STRD	DISPL_0	!display aansturing eenh.
04276 03671 14 00161    	STRD	DISPL_1	!display aansturing tiental.
04277 03672 14 00162    	STRD	DISPL_2	!display aansturing honderdt.
04278 03673 14 00163    	STRD	DISPL_3	!display aansturing duizendt.
04279                   
04280 03674 17 00000.1  	ANDNT	000.1
04281 03675 30 00455    	JFRF	L04130
04282                   
04283 03676 16 00000.1  L03676	AND	000.1
04284 03677 13 00110    	FTCHD	DWS2_1	!eenheid DWS
04285 03678 13 00111    	FTCHD	DWS2_2	!tiental DWS
04286 03679 15 01506    	COMP	1506	!constante 6
04287 03680 15 01507    	COMP	1507	!constante 7
04288 03681 10 00003.0  	STRB	RESULT1	!F=C
04289                   
04290 03682 16 00003.0  	AND	RESULT1	!F=C
04291 03683 30 00012    	JFRF	L03695
04292                   
04293 03684 16 00003.0  	AND	RESULT1	!F=C
04294 03685 13 01404    	FTCHD	DSP76_0	!display 76 eenheden
04295 03686 13 01405    	FTCHD	DSP76_1	!display 76 tientallen
04296 03687 13 01406    	FTCHD	DSP76_2	!display 76 honderdtallen
04297 03688 13 01407    	FTCHD	DSP76_3	!display 76 duizendtallen
04298 03689 14 00160    	STRD	DISPL_0	!display aansturing eenh.
04299 03690 14 00161    	STRD	DISPL_1	!display aansturing tiental.
04300 03691 14 00162    	STRD	DISPL_2	!display aansturing honderdt.
04301 03692 14 00163    	STRD	DISPL_3	!display aansturing duizendt.
04302                   
04303 03693 17 00000.1  	ANDNT	000.1
04304 03694 30 00436    	JFRF	L04130
04305                   
04306 03695 16 00000.1  L03695	AND	000.1
04307 03696 13 00110    	FTCHD	DWS2_1	!eenheid DWS
04308 03697 13 00111    	FTCHD	DWS2_2	!tiental DWS
04309 03698 15 01507    	COMP	1507	!constante 7
04310 03699 15 01507    	COMP	1507	!constante 7
04311 03700 10 00003.0  	STRB	RESULT1	!F=C
04312                   
04313 03701 16 00003.0  	AND	RESULT1	!F=C
04314 03702 30 00012    	JFRF	L03714
04315                   
04316 03703 16 00003.0  	AND	RESULT1	!F=C
04317 03704 13 01408    	FTCHD	DSP77_0	!display 77 eenheden
04318 03705 13 01409    	FTCHD	DSP77_1	!display 77 tientallen
04319 03706 13 01410    	FTCHD	DSP77_2	!display 77 honderdtallen
04320 03707 13 01411    	FTCHD	DSP77_3	!display 77 duizendtallen
04321 03708 14 00160    	STRD	DISPL_0	!display aansturing eenh.
04322 03709 14 00161    	STRD	DISPL_1	!display aansturing tiental.
04323 03710 14 00162    	STRD	DISPL_2	!display aansturing honderdt.
04324 03711 14 00163    	STRD	DISPL_3	!display aansturing duizendt.
04325                   
04326 03712 17 00000.1  	ANDNT	000.1
04327 03713 30 00417    	JFRF	L04130
04328                   
04329 03714 16 00000.1  L03714	AND	000.1
04330 03715 13 00110    	FTCHD	DWS2_1	!eenheid DWS
04331 03716 13 00111    	FTCHD	DWS2_2	!tiental DWS
04332 03717 15 01508    	COMP	1508	!constante 8
04333 03718 15 01507    	COMP	1507	!constante 7
04334 03719 10 00003.0  	STRB	RESULT1	!F=C
04335                   
04336 03720 16 00003.0  	AND	RESULT1	!F=C
04337 03721 30 00012    	JFRF	L03733
04338                   
04339 03722 16 00003.0  	AND	RESULT1	!F=C
04340 03723 13 01412    	FTCHD	DSP78_0	!display 78 eenheden
04341 03724 13 01413    	FTCHD	DSP78_1	!display 78 tientallen
04342 03725 13 01414    	FTCHD	DSP78_2	!display 78 honderdtallen
04343 03726 13 01415    	FTCHD	DSP78_3	!display 78 duizendtallen
04344 03727 14 00160    	STRD	DISPL_0	!display aansturing eenh.
04345 03728 14 00161    	STRD	DISPL_1	!display aansturing tiental.
04346 03729 14 00162    	STRD	DISPL_2	!display aansturing honderdt.
04347 03730 14 00163    	STRD	DISPL_3	!display aansturing duizendt.
04348                   
04349 03731 17 00000.1  	ANDNT	000.1
04350 03732 30 00398    	JFRF	L04130
04351                   
04352 03733 16 00000.1  L03733	AND	000.1
04353 03734 13 00110    	FTCHD	DWS2_1	!eenheid DWS
04354 03735 13 00111    	FTCHD	DWS2_2	!tiental DWS
04355 03736 15 01509    	COMP	1509	!constante 9
04356 03737 15 01507    	COMP	1507	!constante 7
04357 03738 10 00003.0  	STRB	RESULT1	!F=C
04358                   
04359 03739 16 00003.0  	AND	RESULT1	!F=C
04360 03740 30 00012    	JFRF	L03752
04361                   
04362 03741 16 00003.0  	AND	RESULT1	!F=C
04363 03742 13 01416    	FTCHD	DSP79_0	!display 79 eenheden
04364 03743 13 01417    	FTCHD	DSP79_1	!display 79 tientallen
04365 03744 13 01418    	FTCHD	DSP79_2	!display 79 honderdtallen
04366 03745 13 01419    	FTCHD	DSP79_3	!display 79 duizendtallen
04367 03746 14 00160    	STRD	DISPL_0	!display aansturing eenh.
04368 03747 14 00161    	STRD	DISPL_1	!display aansturing tiental.
04369 03748 14 00162    	STRD	DISPL_2	!display aansturing honderdt.
04370 03749 14 00163    	STRD	DISPL_3	!display aansturing duizendt.
04371                   
04372 03750 17 00000.1  	ANDNT	000.1
04373 03751 30 00379    	JFRF	L04130
04374                   
04375 03752 16 00000.1  L03752	AND	000.1
04376 03753 13 00110    	FTCHD	DWS2_1	!eenheid DWS
04377 03754 13 00111    	FTCHD	DWS2_2	!tiental DWS
04378 03755 15 01500    	COMP	1500	!constante 0
04379 03756 15 01508    	COMP	1508	!constante 8
04380 03757 10 00003.0  	STRB	RESULT1	!F=C
04381                   
04382 03758 16 00003.0  	AND	RESULT1	!F=C
04383 03759 30 00012    	JFRF	L03771
04384                   
04385 03760 16 00003.0  	AND	RESULT1	!F=C
04386 03761 13 01420    	FTCHD	DSP80_0	!display 80 eenheden
04387 03762 13 01421    	FTCHD	DSP80_1	!display 80 tientallen
04388 03763 13 01422    	FTCHD	DSP80_2	!display 80 honderdtallen
04389 03764 13 01423    	FTCHD	DSP80_3	!display 80 duizendtallen
04390 03765 14 00160    	STRD	DISPL_0	!display aansturing eenh.
04391 03766 14 00161    	STRD	DISPL_1	!display aansturing tiental.
04392 03767 14 00162    	STRD	DISPL_2	!display aansturing honderdt.
04393 03768 14 00163    	STRD	DISPL_3	!display aansturing duizendt.
04394                   
04395 03769 17 00000.1  	ANDNT	000.1
04396 03770 30 00360    	JFRF	L04130
04397                   
04398 03771 16 00000.1  L03771	AND	000.1
04399 03772 13 00110    	FTCHD	DWS2_1	!eenheid DWS
04400 03773 13 00111    	FTCHD	DWS2_2	!tiental DWS
04401 03774 15 01501    	COMP	1501	!constante 1
04402 03775 15 01508    	COMP	1508	!constante 8
04403 03776 10 00003.0  	STRB	RESULT1	!F=C
04404                   
04405 03777 16 00003.0  	AND	RESULT1	!F=C
04406 03778 30 00012    	JFRF	L03790
04407                   
04408 03779 16 00003.0  	AND	RESULT1	!F=C
04409 03780 13 01424    	FTCHD	DSP81_0	!display 81 eenheden
04410 03781 13 01425    	FTCHD	DSP81_1	!display 81 tientallen
04411 03782 13 01426    	FTCHD	DSP81_2	!display 81 honderdtallen
04412 03783 13 01427    	FTCHD	DSP81_3	!display 81 duizendtallen
04413 03784 14 00160    	STRD	DISPL_0	!display aansturing eenh.
04414 03785 14 00161    	STRD	DISPL_1	!display aansturing tiental.
04415 03786 14 00162    	STRD	DISPL_2	!display aansturing honderdt.
04416 03787 14 00163    	STRD	DISPL_3	!display aansturing duizendt.
04417                   
04418 03788 17 00000.1  	ANDNT	000.1
04419 03789 30 00341    	JFRF	L04130
04420                   
04421 03790 16 00000.1  L03790	AND	000.1
04422 03791 13 00110    	FTCHD	DWS2_1	!eenheid DWS
04423 03792 13 00111    	FTCHD	DWS2_2	!tiental DWS
04424 03793 15 01502    	COMP	1502	!constante 2
04425 03794 15 01508    	COMP	1508	!constante 8
04426 03795 10 00003.0  	STRB	RESULT1	!F=C
04427                   
04428 03796 16 00003.0  	AND	RESULT1	!F=C
04429 03797 30 00012    	JFRF	L03809
04430                   
04431 03798 16 00003.0  	AND	RESULT1	!F=C
04432 03799 13 01428    	FTCHD	DSP82_0	!display 82 eenheden
04433 03800 13 01429    	FTCHD	DSP82_1	!display 82 tientallen
04434 03801 13 01430    	FTCHD	DSP82_2	!display 82 honderdtallen
04435 03802 13 01431    	FTCHD	DSP82_3	!display 82 duizendtallen
04436 03803 14 00160    	STRD	DISPL_0	!display aansturing eenh.
04437 03804 14 00161    	STRD	DISPL_1	!display aansturing tiental.
04438 03805 14 00162    	STRD	DISPL_2	!display aansturing honderdt.
04439 03806 14 00163    	STRD	DISPL_3	!display aansturing duizendt.
04440                   
04441 03807 17 00000.1  	ANDNT	000.1
04442 03808 30 00322    	JFRF	L04130
04443                   
04444 03809 16 00000.1  L03809	AND	000.1
04445 03810 13 00110    	FTCHD	DWS2_1	!eenheid DWS
04446 03811 13 00111    	FTCHD	DWS2_2	!tiental DWS
04447 03812 15 01503    	COMP	1503	!constante 3
04448 03813 15 01508    	COMP	1508	!constante 8
04449 03814 10 00003.0  	STRB	RESULT1	!F=C
04450                   
04451 03815 16 00003.0  	AND	RESULT1	!F=C
04452 03816 30 00012    	JFRF	L03828
04453                   
04454 03817 16 00003.0  	AND	RESULT1	!F=C
04455 03818 13 01432    	FTCHD	DSP83_0	!display 83 eenheden
04456 03819 13 01433    	FTCHD	DSP83_1	!display 83 tientallen
04457 03820 13 01434    	FTCHD	DSP83_2	!display 83 honderdtallen
04458 03821 13 01435    	FTCHD	DSP83_3	!display 83 duizendtallen
04459 03822 14 00160    	STRD	DISPL_0	!display aansturing eenh.
04460 03823 14 00161    	STRD	DISPL_1	!display aansturing tiental.
04461 03824 14 00162    	STRD	DISPL_2	!display aansturing honderdt.
04462 03825 14 00163    	STRD	DISPL_3	!display aansturing duizendt.
04463                   
04464 03826 17 00000.1  	ANDNT	000.1
04465 03827 30 00303    	JFRF	L04130
04466                   
04467 03828 16 00000.1  L03828	AND	000.1
04468 03829 13 00110    	FTCHD	DWS2_1	!eenheid DWS
04469 03830 13 00111    	FTCHD	DWS2_2	!tiental DWS
04470 03831 15 01504    	COMP	1504	!constante 4
04471 03832 15 01508    	COMP	1508	!constante 8
04472 03833 10 00003.0  	STRB	RESULT1	!F=C
04473                   
04474 03834 16 00003.0  	AND	RESULT1	!F=C
04475 03835 30 00012    	JFRF	L03847
04476                   
04477 03836 16 00003.0  	AND	RESULT1	!F=C
04478 03837 13 01436    	FTCHD	DSP84_0	!display 84 eenheden
04479 03838 13 01437    	FTCHD	DSP84_1	!display 84 tientallen
04480 03839 13 01438    	FTCHD	DSP84_2	!display 84 honderdtallen
04481 03840 13 01439    	FTCHD	DSP84_3	!display 84 duizendtallen
04482 03841 14 00160    	STRD	DISPL_0	!display aansturing eenh.
04483 03842 14 00161    	STRD	DISPL_1	!display aansturing tiental.
04484 03843 14 00162    	STRD	DISPL_2	!display aansturing honderdt.
04485 03844 14 00163    	STRD	DISPL_3	!display aansturing duizendt.
04486                   
04487 03845 17 00000.1  	ANDNT	000.1
04488 03846 30 00284    	JFRF	L04130
04489                   
04490 03847 16 00000.1  L03847	AND	000.1
04491 03848 13 00110    	FTCHD	DWS2_1	!eenheid DWS
04492 03849 13 00111    	FTCHD	DWS2_2	!tiental DWS
04493 03850 15 01505    	COMP	1505	!constante 5
04494 03851 15 01508    	COMP	1508	!constante 8
04495 03852 10 00003.0  	STRB	RESULT1	!F=C
04496                   
04497 03853 16 00003.0  	AND	RESULT1	!F=C
04498 03854 30 00012    	JFRF	L03866
04499                   
04500 03855 16 00003.0  	AND	RESULT1	!F=C
04501 03856 13 01440    	FTCHD	DSP85_0	!display 85 eenheden
04502 03857 13 01441    	FTCHD	DSP85_1	!display 85 tientallen
04503 03858 13 01442    	FTCHD	DSP85_2	!display 85 honderdtallen
04504 03859 13 01443    	FTCHD	DSP85_3	!display 85 duizendtallen
04505 03860 14 00160    	STRD	DISPL_0	!display aansturing eenh.
04506 03861 14 00161    	STRD	DISPL_1	!display aansturing tiental.
04507 03862 14 00162    	STRD	DISPL_2	!display aansturing honderdt.
04508 03863 14 00163    	STRD	DISPL_3	!display aansturing duizendt.
04509                   
04510 03864 17 00000.1  	ANDNT	000.1
04511 03865 30 00265    	JFRF	L04130
04512                   
04513 03866 16 00000.1  L03866	AND	000.1
04514 03867 13 00110    	FTCHD	DWS2_1	!eenheid DWS
04515 03868 13 00111    	FTCHD	DWS2_2	!tiental DWS
04516 03869 15 01506    	COMP	1506	!constante 6
04517 03870 15 01508    	COMP	1508	!constante 8
04518 03871 10 00003.0  	STRB	RESULT1	!F=C
04519                   
04520 03872 16 00003.0  	AND	RESULT1	!F=C
04521 03873 30 00012    	JFRF	L03885
04522                   
04523 03874 16 00003.0  	AND	RESULT1	!F=C
04524 03875 13 01444    	FTCHD	DSP86_0	!display 86 eenheden
04525 03876 13 01445    	FTCHD	DSP86_1	!display 86 tientallen
04526 03877 13 01446    	FTCHD	DSP86_2	!display 86 honderdtallen
04527 03878 13 01447    	FTCHD	DSP86_3	!display 86 duizendtallen
04528 03879 14 00160    	STRD	DISPL_0	!display aansturing eenh.
04529 03880 14 00161    	STRD	DISPL_1	!display aansturing tiental.
04530 03881 14 00162    	STRD	DISPL_2	!display aansturing honderdt.
04531 03882 14 00163    	STRD	DISPL_3	!display aansturing duizendt.
04532                   
04533 03883 17 00000.1  	ANDNT	000.1
04534 03884 30 00246    	JFRF	L04130
04535                   
04536 03885 16 00000.1  L03885	AND	000.1
04537 03886 13 00110    	FTCHD	DWS2_1	!eenheid DWS
04538 03887 13 00111    	FTCHD	DWS2_2	!tiental DWS
04539 03888 15 01507    	COMP	1507	!constante 7
04540 03889 15 01508    	COMP	1508	!constante 8
04541 03890 10 00003.0  	STRB	RESULT1	!F=C
04542                   
04543 03891 16 00003.0  	AND	RESULT1	!F=C
04544 03892 30 00012    	JFRF	L03904
04545                   
04546 03893 16 00003.0  	AND	RESULT1	!F=C
04547 03894 13 01448    	FTCHD	DSP87_0	!display 87 eenheden
04548 03895 13 01449    	FTCHD	DSP87_1	!display 87 tientallen
04549 03896 13 01450    	FTCHD	DSP87_2	!display 87 honderdtallen
04550 03897 13 01451    	FTCHD	DSP87_3	!display 87 duizendtallen
04551 03898 14 00160    	STRD	DISPL_0	!display aansturing eenh.
04552 03899 14 00161    	STRD	DISPL_1	!display aansturing tiental.
04553 03900 14 00162    	STRD	DISPL_2	!display aansturing honderdt.
04554 03901 14 00163    	STRD	DISPL_3	!display aansturing duizendt.
04555                   
04556 03902 17 00000.1  	ANDNT	000.1
04557 03903 30 00227    	JFRF	L04130
04558                   
04559 03904 16 00000.1  L03904	AND	000.1
04560 03905 13 00110    	FTCHD	DWS2_1	!eenheid DWS
04561 03906 13 00111    	FTCHD	DWS2_2	!tiental DWS
04562 03907 15 01508    	COMP	1508	!constante 8
04563 03908 15 01508    	COMP	1508	!constante 8
04564 03909 10 00003.0  	STRB	RESULT1	!F=C
04565                   
04566 03910 16 00003.0  	AND	RESULT1	!F=C
04567 03911 30 00012    	JFRF	L03923
04568                   
04569 03912 16 00003.0  	AND	RESULT1	!F=C
04570 03913 13 01452    	FTCHD	DSP88_0	!display 88 eenheden
04571 03914 13 01453    	FTCHD	DSP88_1	!display 88 tientallen
04572 03915 13 01454    	FTCHD	DSP88_2	!display 88 honderdtallen
04573 03916 13 01455    	FTCHD	DSP88_3	!display 88 duizendtallen
04574 03917 14 00160    	STRD	DISPL_0	!display aansturing eenh.
04575 03918 14 00161    	STRD	DISPL_1	!display aansturing tiental.
04576 03919 14 00162    	STRD	DISPL_2	!display aansturing honderdt.
04577 03920 14 00163    	STRD	DISPL_3	!display aansturing duizendt.
04578                   
04579 03921 17 00000.1  	ANDNT	000.1
04580 03922 30 00208    	JFRF	L04130
04581                   
04582 03923 16 00000.1  L03923	AND	000.1
04583 03924 13 00110    	FTCHD	DWS2_1	!eenheid DWS
04584 03925 13 00111    	FTCHD	DWS2_2	!tiental DWS
04585 03926 15 01509    	COMP	1509	!constante 9
04586 03927 15 01508    	COMP	1508	!constante 8
04587 03928 10 00003.0  	STRB	RESULT1	!F=C
04588                   
04589 03929 16 00003.0  	AND	RESULT1	!F=C
04590 03930 30 00012    	JFRF	L03942
04591                   
04592 03931 16 00003.0  	AND	RESULT1	!F=C
04593 03932 13 01456    	FTCHD	DSP89_0	!display 89 eenheden
04594 03933 13 01457    	FTCHD	DSP89_1	!display 89 tientallen
04595 03934 13 01458    	FTCHD	DSP89_2	!display 89 honderdtallen
04596 03935 13 01459    	FTCHD	DSP89_3	!display 89 duizendtallen
04597 03936 14 00160    	STRD	DISPL_0	!display aansturing eenh.
04598 03937 14 00161    	STRD	DISPL_1	!display aansturing tiental.
04599 03938 14 00162    	STRD	DISPL_2	!display aansturing honderdt.
04600 03939 14 00163    	STRD	DISPL_3	!display aansturing duizendt.
04601                   
04602 03940 17 00000.1  	ANDNT	000.1
04603 03941 30 00189    	JFRF	L04130
04604                   
04605 03942 16 00000.1  L03942	AND	000.1
04606 03943 13 00110    	FTCHD	DWS2_1	!eenheid DWS
04607 03944 13 00111    	FTCHD	DWS2_2	!tiental DWS
04608 03945 15 01500    	COMP	1500	!constante 0
04609 03946 15 01509    	COMP	1509	!constante 9
04610 03947 10 00003.0  	STRB	RESULT1	!F=C
04611                   
04612 03948 16 00003.0  	AND	RESULT1	!F=C
04613 03949 30 00012    	JFRF	L03961
04614                   
04615 03950 16 00003.0  	AND	RESULT1	!F=C
04616 03951 13 01460    	FTCHD	DSP90_0	!display 90 eenheden
04617 03952 13 01461    	FTCHD	DSP90_1	!display 90 tientallen
04618 03953 13 01462    	FTCHD	DSP90_2	!display 90 honderdtallen
04619 03954 13 01463    	FTCHD	DSP90_3	!display 90 duizendtallen
04620 03955 14 00160    	STRD	DISPL_0	!display aansturing eenh.
04621 03956 14 00161    	STRD	DISPL_1	!display aansturing tiental.
04622 03957 14 00162    	STRD	DISPL_2	!display aansturing honderdt.
04623 03958 14 00163    	STRD	DISPL_3	!display aansturing duizendt.
04624                   
04625 03959 17 00000.1  	ANDNT	000.1
04626 03960 30 00170    	JFRF	L04130
04627                   
04628 03961 16 00000.1  L03961	AND	000.1
04629 03962 13 00110    	FTCHD	DWS2_1	!eenheid DWS
04630 03963 13 00111    	FTCHD	DWS2_2	!tiental DWS
04631 03964 15 01501    	COMP	1501	!constante 1
04632 03965 15 01509    	COMP	1509	!constante 9
04633 03966 10 00003.0  	STRB	RESULT1	!F=C
04634                   
04635 03967 16 00003.0  	AND	RESULT1	!F=C
04636 03968 30 00012    	JFRF	L03980
04637                   
04638 03969 16 00003.0  	AND	RESULT1	!F=C
04639 03970 13 01464    	FTCHD	DSP91_0	!display 91 eenheden
04640 03971 13 01465    	FTCHD	DSP91_1	!display 91 tientallen
04641 03972 13 01466    	FTCHD	DSP91_2	!display 91 honderdtallen
04642 03973 13 01467    	FTCHD	DSP91_3	!display 91 duizendtallen
04643 03974 14 00160    	STRD	DISPL_0	!display aansturing eenh.
04644 03975 14 00161    	STRD	DISPL_1	!display aansturing tiental.
04645 03976 14 00162    	STRD	DISPL_2	!display aansturing honderdt.
04646 03977 14 00163    	STRD	DISPL_3	!display aansturing duizendt.
04647                   
04648 03978 17 00000.1  	ANDNT	000.1
04649 03979 30 00151    	JFRF	L04130
04650                   
04651 03980 16 00000.1  L03980	AND	000.1
04652 03981 13 00110    	FTCHD	DWS2_1	!eenheid DWS
04653 03982 13 00111    	FTCHD	DWS2_2	!tiental DWS
04654 03983 15 01502    	COMP	1502	!constante 2
04655 03984 15 01509    	COMP	1509	!constante 9
04656 03985 10 00003.0  	STRB	RESULT1	!F=C
04657                   
04658 03986 16 00003.0  	AND	RESULT1	!F=C
04659 03987 30 00012    	JFRF	L03999
04660                   
04661 03988 16 00003.0  	AND	RESULT1	!F=C
04662 03989 13 01468    	FTCHD	DSP92_0	!display 92 eenheden
04663 03990 13 01469    	FTCHD	DSP92_1	!display 92 tientallen
04664 03991 13 01470    	FTCHD	DSP92_2	!display 92 honderdtallen
04665 03992 13 01471    	FTCHD	DSP92_3	!display 92 duizendtallen
04666 03993 14 00160    	STRD	DISPL_0	!display aansturing eenh.
04667 03994 14 00161    	STRD	DISPL_1	!display aansturing tiental.
04668 03995 14 00162    	STRD	DISPL_2	!display aansturing honderdt.
04669 03996 14 00163    	STRD	DISPL_3	!display aansturing duizendt.
04670                   
04671 03997 17 00000.1  	ANDNT	000.1
04672 03998 30 00132    	JFRF	L04130
04673                   
04674 03999 16 00000.1  L03999	AND	000.1
04675 04000 13 00110    	FTCHD	DWS2_1	!eenheid DWS
04676 04001 13 00111    	FTCHD	DWS2_2	!tiental DWS
04677 04002 15 01503    	COMP	1503	!constante 3
04678 04003 15 01509    	COMP	1509	!constante 9
04679 04004 10 00003.0  	STRB	RESULT1	!F=C
04680                   
04681 04005 16 00003.0  	AND	RESULT1	!F=C
04682 04006 30 00012    	JFRF	L04018
04683                   
04684 04007 16 00003.0  	AND	RESULT1	!F=C
04685 04008 13 01472    	FTCHD	DSP93_0	!display 93 eenheden
04686 04009 13 01473    	FTCHD	DSP93_1	!display 93 tientallen
04687 04010 13 01474    	FTCHD	DSP93_2	!display 93 honderdtallen
04688 04011 13 01475    	FTCHD	DSP93_3	!display 93 duizendtallen
04689 04012 14 00160    	STRD	DISPL_0	!display aansturing eenh.
04690 04013 14 00161    	STRD	DISPL_1	!display aansturing tiental.
04691 04014 14 00162    	STRD	DISPL_2	!display aansturing honderdt.
04692 04015 14 00163    	STRD	DISPL_3	!display aansturing duizendt.
04693                   
04694 04016 17 00000.1  	ANDNT	000.1
04695 04017 30 00113    	JFRF	L04130
04696                   
04697 04018 16 00000.1  L04018	AND	000.1
04698 04019 13 00110    	FTCHD	DWS2_1	!eenheid DWS
04699 04020 13 00111    	FTCHD	DWS2_2	!tiental DWS
04700 04021 15 01504    	COMP	1504	!constante 4
04701 04022 15 01509    	COMP	1509	!constante 9
04702 04023 10 00003.0  	STRB	RESULT1	!F=C
04703                   
04704 04024 16 00003.0  	AND	RESULT1	!F=C
04705 04025 30 00012    	JFRF	L04037
04706                   
04707 04026 16 00003.0  	AND	RESULT1	!F=C
04708 04027 13 01476    	FTCHD	DSP94_0	!display 94 eenheden
04709 04028 13 01477    	FTCHD	DSP94_1	!display 94 tientallen
04710 04029 13 01478    	FTCHD	DSP94_2	!display 94 honderdtallen
04711 04030 13 01479    	FTCHD	DSP94_3	!display 94 duizendtallen
04712 04031 14 00160    	STRD	DISPL_0	!display aansturing eenh.
04713 04032 14 00161    	STRD	DISPL_1	!display aansturing tiental.
04714 04033 14 00162    	STRD	DISPL_2	!display aansturing honderdt.
04715 04034 14 00163    	STRD	DISPL_3	!display aansturing duizendt.
04716                   
04717 04035 17 00000.1  	ANDNT	000.1
04718 04036 30 00094    	JFRF	L04130
04719                   
04720 04037 16 00000.1  L04037	AND	000.1
04721 04038 13 00110    	FTCHD	DWS2_1	!eenheid DWS
04722 04039 13 00111    	FTCHD	DWS2_2	!tiental DWS
04723 04040 15 01505    	COMP	1505	!constante 5
04724 04041 15 01509    	COMP	1509	!constante 9
04725 04042 10 00003.0  	STRB	RESULT1	!F=C
04726                   
04727 04043 16 00003.0  	AND	RESULT1	!F=C
04728 04044 30 00012    	JFRF	L04056
04729                   
04730 04045 16 00003.0  	AND	RESULT1	!F=C
04731 04046 13 01480    	FTCHD	DSP95_0	!display 95 eenheden
04732 04047 13 01481    	FTCHD	DSP95_1	!display 95 tientallen
04733 04048 13 01482    	FTCHD	DSP95_2	!display 95 honderdtallen
04734 04049 13 01483    	FTCHD	DSP95_3	!display 95 duizendtallen
04735 04050 14 00160    	STRD	DISPL_0	!display aansturing eenh.
04736 04051 14 00161    	STRD	DISPL_1	!display aansturing tiental.
04737 04052 14 00162    	STRD	DISPL_2	!display aansturing honderdt.
04738 04053 14 00163    	STRD	DISPL_3	!display aansturing duizendt.
04739                   
04740 04054 17 00000.1  	ANDNT	000.1
04741 04055 30 00075    	JFRF	L04130
04742                   
04743 04056 16 00000.1  L04056	AND	000.1
04744 04057 13 00110    	FTCHD	DWS2_1	!eenheid DWS
04745 04058 13 00111    	FTCHD	DWS2_2	!tiental DWS
04746 04059 15 01506    	COMP	1506	!constante 6
04747 04060 15 01509    	COMP	1509	!constante 9
04748 04061 10 00003.0  	STRB	RESULT1	!F=C
04749                   
04750 04062 16 00003.0  	AND	RESULT1	!F=C
04751 04063 30 00012    	JFRF	L04075
04752                   
04753 04064 16 00003.0  	AND	RESULT1	!F=C
04754 04065 13 01484    	FTCHD	DSP96_0	!display 96 eenheden
04755 04066 13 01485    	FTCHD	DSP96_1	!display 96 tientallen
04756 04067 13 01486    	FTCHD	DSP96_2	!display 96 honderdtallen
04757 04068 13 01487    	FTCHD	DSP96_3	!display 96 duizendtallen
04758 04069 14 00160    	STRD	DISPL_0	!display aansturing eenh.
04759 04070 14 00161    	STRD	DISPL_1	!display aansturing tiental.
04760 04071 14 00162    	STRD	DISPL_2	!display aansturing honderdt.
04761 04072 14 00163    	STRD	DISPL_3	!display aansturing duizendt.
04762                   
04763 04073 17 00000.1  	ANDNT	000.1
04764 04074 30 00056    	JFRF	L04130
04765                   
04766 04075 16 00000.1  L04075	AND	000.1
04767 04076 13 00110    	FTCHD	DWS2_1	!eenheid DWS
04768 04077 13 00111    	FTCHD	DWS2_2	!tiental DWS
04769 04078 15 01507    	COMP	1507	!constante 7
04770 04079 15 01509    	COMP	1509	!constante 9
04771 04080 10 00003.0  	STRB	RESULT1	!F=C
04772                   
04773 04081 16 00003.0  	AND	RESULT1	!F=C
04774 04082 30 00012    	JFRF	L04094
04775                   
04776 04083 16 00003.0  	AND	RESULT1	!F=C
04777 04084 13 01488    	FTCHD	DSP97_0	!display 97 eenheden
04778 04085 13 01489    	FTCHD	DSP97_1	!display 97 tientallen
04779 04086 13 01490    	FTCHD	DSP97_2	!display 97 honderdtallen
04780 04087 13 01491    	FTCHD	DSP97_3	!display 97 duizendtallen
04781 04088 14 00160    	STRD	DISPL_0	!display aansturing eenh.
04782 04089 14 00161    	STRD	DISPL_1	!display aansturing tiental.
04783 04090 14 00162    	STRD	DISPL_2	!display aansturing honderdt.
04784 04091 14 00163    	STRD	DISPL_3	!display aansturing duizendt.
04785                   
04786 04092 17 00000.1  	ANDNT	000.1
04787 04093 30 00037    	JFRF	L04130
04788                   
04789 04094 16 00000.1  L04094	AND	000.1
04790 04095 13 00110    	FTCHD	DWS2_1	!eenheid DWS
04791 04096 13 00111    	FTCHD	DWS2_2	!tiental DWS
04792 04097 15 01508    	COMP	1508	!constante 8
04793 04098 15 01509    	COMP	1509	!constante 9
04794 04099 10 00003.0  	STRB	RESULT1	!F=C
04795                   
04796 04100 16 00003.0  	AND	RESULT1	!F=C
04797 04101 30 00012    	JFRF	L04113
04798                   
04799 04102 16 00003.0  	AND	RESULT1	!F=C
04800 04103 13 01492    	FTCHD	DSP98_0	!display 98 eenheden
04801 04104 13 01493    	FTCHD	DSP98_1	!display 98 tientallen
04802 04105 13 01494    	FTCHD	DSP98_2	!display 98 honderdtallen
04803 04106 13 01495    	FTCHD	DSP98_3	!display 98 duizendtallen
04804 04107 14 00160    	STRD	DISPL_0	!display aansturing eenh.
04805 04108 14 00161    	STRD	DISPL_1	!display aansturing tiental.
04806 04109 14 00162    	STRD	DISPL_2	!display aansturing honderdt.
04807 04110 14 00163    	STRD	DISPL_3	!display aansturing duizendt.
04808                   
04809 04111 17 00000.1  	ANDNT	000.1
04810 04112 30 00018    	JFRF	L04130
04811                   
04812 04113 16 00000.1  L04113	AND	000.1
04813 04114 13 00110    	FTCHD	DWS2_1	!eenheid DWS
04814 04115 13 00111    	FTCHD	DWS2_2	!tiental DWS
04815 04116 15 01509    	COMP	1509	!constante 9
04816 04117 15 01509    	COMP	1509	!constante 9
04817 04118 10 00003.0  	STRB	RESULT1	!F=C
04818                   
04819 04119 16 00003.0  	AND	RESULT1	!F=C
04820 04120 30 00010    	JFRF	L04130
04821                   
04822 04121 16 00003.0  	AND	RESULT1	!F=C
04823 04122 13 01496    	FTCHD	DSP99_0	!display 99 eenheden
04824 04123 13 01497    	FTCHD	DSP99_1	!display 99 tientallen
04825 04124 13 01498    	FTCHD	DSP99_2	!display 99 honderdtallen
04826 04125 13 01499    	FTCHD	DSP99_3	!display 99 duizendtallen
04827 04126 14 00160    	STRD	DISPL_0	!display aansturing eenh.
04828 04127 14 00161    	STRD	DISPL_1	!display aansturing tiental.
04829 04128 14 00162    	STRD	DISPL_2	!display aansturing honderdt.
04830 04129 14 00163    	STRD	DISPL_3	!display aansturing duizendt.
04831 04130 00          L04130	NOP	1
04832                   
04833 04131 16 00121.2  L04131	AND	LAMPTEST	!lampentest "8"
04834 04132 12 00008    	FTCHC	08
04835 04133 12 00008    	FTCHC	08
04836 04134 12 00008    	FTCHC	08
04837 04135 12 00008    	FTCHC	08
04838 04136 14 00160    	STRD	DISPL_0	!display aansturing eenh.
04839 04137 14 00161    	STRD	DISPL_1	!display aansturing tiental.
04840 04138 14 00162    	STRD	DISPL_2	!display aansturing honderdt.
04841 04139 14 00163    	STRD	DISPL_3	!display aansturing duizendt.
04842 04140 00          	NOP	60
04842 04141 00 
04842 04142 00 
04842 04143 00 
04842 04144 00 
04842 04145 00 
04842 04146 00 
04842 04147 00 
04842 04148 00 
04842 04149 00 
04842 04150 00 
04842 04151 00 
04842 04152 00 
04842 04153 00 
04842 04154 00 
04842 04155 00 
04842 04156 00 
04842 04157 00 
04842 04158 00 
04842 04159 00 
04842 04160 00 
04842 04161 00 
04842 04162 00 
04842 04163 00 
04842 04164 00 
04842 04165 00 
04842 04166 00 
04842 04167 00 
04842 04168 00 
04842 04169 00 
04842 04170 00 
04842 04171 00 
04842 04172 00 
04842 04173 00 
04842 04174 00 
04842 04175 00 
04842 04176 00 
04842 04177 00 
04842 04178 00 
04842 04179 00 
04842 04180 00 
04842 04181 00 
04842 04182 00 
04842 04183 00 
04842 04184 00 
04842 04185 00 
04842 04186 00 
04842 04187 00 
04842 04188 00 
04842 04189 00 
04842 04190 00 
04842 04191 00 
04842 04192 00 
04842 04193 00 
04842 04194 00 
04842 04195 00 
04842 04196 00 
04842 04197 00 
04842 04198 00 
04842 04199 00 
04843                   !                               DR_KRT1
04844                   !				*******
04845                   !
04846                   !
04847                   !	aanstuurcode storing 01 in lichtkrant laden
04848                   !
04849 04200 16 00220.0  	AND	VERGR01
04850 04201 16 00074.1  	AND	FASE01
04851 04202 12 00001    	FTCHC	01
04852 04203 12 00005    	FTCHC	05
04853 04204 12 00000    	FTCHC	00
04854 04205 14 00168    	STRD	ST1BUF1	!+
04855 04206 14 00169    	STRD	ST2BUF1	!storingscode lichtkrant
04856 04207 14 00170    	STRD	ST3BUF1	!+
04857                   !
04858                   !	aanstuurcode storing 02 in lichtkrant laden
04859                   !
04860 04208 16 00220.1  	AND	VERGR02	!stuurlucht gestoord
04861 04209 16 00074.0  	AND	FASE02
04862 04210 12 00002    	FTCHC	02
04863 04211 12 00005    	FTCHC	05
04864 04212 12 00000    	FTCHC	00
04865 04213 14 00168    	STRD	ST1BUF1	!+
04866 04214 14 00169    	STRD	ST2BUF1	!storingscode lichtkrant
04867 04215 14 00170    	STRD	ST3BUF1	!+
04868                   !
04869                   !	aanstuurcode storing 03 in lichtkrant laden
04870                   !
04871 04216 16 00220.2  	AND	VERGR03	!stuurspanning gestoord
04872 04217 16 00073.3  	AND	FASE03
04873 04218 12 00003    	FTCHC	03
04874 04219 12 00005    	FTCHC	05
04875 04220 12 00000    	FTCHC	00
04876 04221 14 00168    	STRD	ST1BUF1	!+
04877 04222 14 00169    	STRD	ST2BUF1	!storingscode lichtkrant
04878 04223 14 00170    	STRD	ST3BUF1	!+
04879                   !
04880                   !	aanstuurcode storing 04 in lichtkrant laden
04881                   !
04882 04224 16 00220.3  	AND	VERGR04
04883 04225 16 00073.2  	AND	FASE04
04884 04226 12 00004    	FTCHC	04
04885 04227 12 00005    	FTCHC	05
04886 04228 12 00000    	FTCHC	00
04887 04229 14 00168    	STRD	ST1BUF1	!+
04888 04230 14 00169    	STRD	ST2BUF1	!storingscode lichtkrant
04889 04231 14 00170    	STRD	ST3BUF1	!+
04890                   !
04891                   !	aanstuurcode storing 05 in lichtkrant laden
04892                   !
04893 04232 16 00221.0  	AND	VERGR05	!vuilwater tank leeg
04894 04233 16 00073.1  	AND	FASE05
04895 04234 12 00005    	FTCHC	05
04896 04235 12 00005    	FTCHC	05
04897 04236 12 00000    	FTCHC	00
04898 04237 14 00168    	STRD	ST1BUF1	!+
04899 04238 14 00169    	STRD	ST2BUF1	!storingscode lichtkrant
04900 04239 14 00170    	STRD	ST3BUF1	!+
04901                   !
04902                   !	aanstuurcode storing 06 in lichtkrant laden
04903                   !
04904 04240 16 00221.1  	AND	VERGR06
04905 04241 16 00073.0  	AND	FASE06
04906 04242 12 00006    	FTCHC	06
04907 04243 12 00005    	FTCHC	05
04908 04244 12 00000    	FTCHC	00
04909 04245 14 00168    	STRD	ST1BUF1	!+
04910 04246 14 00169    	STRD	ST2BUF1	!storingscode lichtkrant
04911 04247 14 00170    	STRD	ST3BUF1	!+
04912                   !
04913                   !	aanstuurcode storing 07 in lichtkrant laden
04914                   !
04915 04248 16 00221.2  	AND	VERGR07
04916 04249 16 00072.3  	AND	FASE07
04917 04250 12 00007    	FTCHC	07
04918 04251 12 00005    	FTCHC	05
04919 04252 12 00000    	FTCHC	00
04920 04253 14 00168    	STRD	ST1BUF1	!+
04921 04254 14 00169    	STRD	ST2BUF1	!storingscode lichtkrant
04922 04255 14 00170    	STRD	ST3BUF1	!+
04923                   !
04924                   !	aanstuurcode storing 08 in lichtkrant laden
04925                   !
04926 04256 16 00221.3  	AND	VERGR08
04927 04257 16 00072.2  	AND	FASE08
04928 04258 12 00008    	FTCHC	08
04929 04259 12 00005    	FTCHC	05
04930 04260 12 00000    	FTCHC	00
04931 04261 14 00168    	STRD	ST1BUF1	!+
04932 04262 14 00169    	STRD	ST2BUF1	!storingscode lichtkrant
04933 04263 14 00170    	STRD	ST3BUF1	!+
04934                   !
04935                   !	aanstuurcode storing 09 in lichtkrant laden
04936                   !
04937 04264 16 00222.0  	AND	VERGR09
04938 04265 16 00072.1  	AND	FASE09
04939 04266 12 00009    	FTCHC	09
04940 04267 12 00005    	FTCHC	05
04941 04268 12 00000    	FTCHC	00
04942 04269 14 00168    	STRD	ST1BUF1	!+
04943 04270 14 00169    	STRD	ST2BUF1	!storingscode lichtkrant
04944 04271 14 00170    	STRD	ST3BUF1	!+
04945                   !
04946                   !	aanstuurcode storing 10 in lichtkrant laden
04947                   !
04948 04272 16 00222.1  	AND	VERGR10
04949 04273 16 00072.0  	AND	FASE10
04950 04274 12 00000    	FTCHC	00
04951 04275 12 00006    	FTCHC	06
04952 04276 12 00000    	FTCHC	00
04953 04277 14 00168    	STRD	ST1BUF1	!+
04954 04278 14 00169    	STRD	ST2BUF1	!storingscode lichtkrant
04955 04279 14 00170    	STRD	ST3BUF1	!+
04956                   !
04957                   !	aanstuurcode storing 11 in lichtkrant laden
04958                   !
04959 04280 16 00222.2  	AND	VERGR11
04960 04281 16 00071.3  	AND	FASE11
04961 04282 12 00001    	FTCHC	01
04962 04283 12 00006    	FTCHC	06
04963 04284 12 00000    	FTCHC	00
04964 04285 14 00168    	STRD	ST1BUF1	!+
04965 04286 14 00169    	STRD	ST2BUF1	!storingscode lichtkrant
04966 04287 14 00170    	STRD	ST3BUF1	!+
04967                   !
04968                   !	aanstuurcode storing 12 in lichtkrant laden
04969                   !
04970 04288 16 00222.3  	AND	VERGR12
04971 04289 16 00071.2  	AND	FASE12
04972 04290 12 00002    	FTCHC	02
04973 04291 12 00006    	FTCHC	06
04974 04292 12 00000    	FTCHC	00
04975 04293 14 00168    	STRD	ST1BUF1	!+
04976 04294 14 00169    	STRD	ST2BUF1	!storingscode lichtkrant
04977 04295 14 00170    	STRD	ST3BUF1	!+
04978                   !
04979                   !	aanstuurcode storing 13 in lichtkrant laden
04980                   !
04981 04296 16 00223.0  	AND	VERGR13
04982 04297 16 00071.1  	AND	FASE13
04983 04298 12 00003    	FTCHC	03
04984 04299 12 00006    	FTCHC	06
04985 04300 12 00000    	FTCHC	00
04986 04301 14 00168    	STRD	ST1BUF1	!+
04987 04302 14 00169    	STRD	ST2BUF1	!storingscode lichtkrant
04988 04303 14 00170    	STRD	ST3BUF1	!+
04989                   !
04990                   !	aanstuurcode storing 14 in lichtkrant laden
04991                   !
04992 04304 16 00223.1  	AND	VERGR14
04993 04305 16 00071.0  	AND	FASE14
04994 04306 12 00004    	FTCHC	04
04995 04307 12 00006    	FTCHC	06
04996 04308 12 00000    	FTCHC	00
04997 04309 14 00168    	STRD	ST1BUF1	!+
04998 04310 14 00169    	STRD	ST2BUF1	!storingscode lichtkrant
04999 04311 14 00170    	STRD	ST3BUF1	!+
05000                   !
05001                   !	aanstuurcode storing 15 in lichtkrant laden
05002                   !
05003 04312 16 00223.2  	AND	VERGR15
05004 04313 16 00070.3  	AND	FASE15
05005 04314 12 00005    	FTCHC	05
05006 04315 12 00006    	FTCHC	06
05007 04316 12 00000    	FTCHC	00
05008 04317 14 00168    	STRD	ST1BUF1	!+
05009 04318 14 00169    	STRD	ST2BUF1	!storingscode lichtkrant
05010 04319 14 00170    	STRD	ST3BUF1	!+
05011                   !
05012                   !	aanstuurcode storing 16 in lichtkrant laden
05013                   !
05014 04320 16 00223.3  	AND	VERGR16
05015 04321 16 00070.2  	AND	FASE16
05016 04322 12 00006    	FTCHC	06
05017 04323 12 00006    	FTCHC	06
05018 04324 12 00000    	FTCHC	00
05019 04325 14 00168    	STRD	ST1BUF1	!+
05020 04326 14 00169    	STRD	ST2BUF1	!storingscode lichtkrant
05021 04327 14 00170    	STRD	ST3BUF1	!+
05022                   !
05023                   !	aanstuurcode storing 17 in lichtkrant laden
05024                   !
05025 04328 16 00224.0  	AND	VERGR17
05026 04329 16 00070.1  	AND	FASE17
05027 04330 12 00007    	FTCHC	07
05028 04331 12 00006    	FTCHC	06
05029 04332 12 00000    	FTCHC	00
05030 04333 14 00168    	STRD	ST1BUF1	!+
05031 04334 14 00169    	STRD	ST2BUF1	!storingscode lichtkrant
05032 04335 14 00170    	STRD	ST3BUF1	!+
05033                   !
05034                   !	aanstuurcode storing 18 in lichtkrant laden
05035                   !
05036 04336 16 00224.1  	AND	VERGR18
05037 04337 16 00070.0  	AND	FASE18
05038 04338 12 00008    	FTCHC	08
05039 04339 12 00006    	FTCHC	06
05040 04340 12 00000    	FTCHC	00
05041 04341 14 00168    	STRD	ST1BUF1	!+
05042 04342 14 00169    	STRD	ST2BUF1	!storingscode lichtkrant
05043 04343 14 00170    	STRD	ST3BUF1	!+
05044                   !
05045                   !	aanstuurcode storing 19 in lichtkrant laden
05046                   !
05047 04344 16 00224.2  	AND	VERGR19
05048 04345 16 00069.3  	AND	FASE19
05049 04346 12 00009    	FTCHC	09
05050 04347 12 00006    	FTCHC	06
05051 04348 12 00000    	FTCHC	00
05052 04349 14 00168    	STRD	ST1BUF1	!+
05053 04350 14 00169    	STRD	ST2BUF1	!storingscode lichtkrant
05054 04351 14 00170    	STRD	ST3BUF1	!+
05055                   !
05056                   !	aanstuurcode storing 20 in lichtkrant laden
05057                   !
05058 04352 16 00224.3  	AND	VERGR20
05059 04353 16 00069.2  	AND	FASE20
05060 04354 12 00000    	FTCHC	00
05061 04355 12 00007    	FTCHC	07
05062 04356 12 00000    	FTCHC	00
05063 04357 14 00168    	STRD	ST1BUF1	!+
05064 04358 14 00169    	STRD	ST2BUF1	!storingscode lichtkrant
05065 04359 14 00170    	STRD	ST3BUF1	!+
05066                   !
05067                   !	aanstuurcode storing 21 in lichtkrant laden
05068                   !
05069 04360 16 00225.0  	AND	VERGR21
05070 04361 16 00069.1  	AND	FASE21
05071 04362 12 00001    	FTCHC	01
05072 04363 12 00007    	FTCHC	07
05073 04364 12 00000    	FTCHC	00
05074 04365 14 00168    	STRD	ST1BUF1	!+
05075 04366 14 00169    	STRD	ST2BUF1	!storingscode lichtkrant
05076 04367 14 00170    	STRD	ST3BUF1	!+
05077                   !
05078                   !	aanstuurcode storing 22 in lichtkrant laden
05079                   !
05080 04368 16 00225.1  	AND	VERGR22
05081 04369 16 00069.0  	AND	FASE22
05082 04370 12 00002    	FTCHC	02
05083 04371 12 00007    	FTCHC	07
05084 04372 12 00000    	FTCHC	00
05085 04373 14 00168    	STRD	ST1BUF1	!+
05086 04374 14 00169    	STRD	ST2BUF1	!storingscode lichtkrant
05087 04375 14 00170    	STRD	ST3BUF1	!+
05088                   !
05089                   !	aanstuurcode storing 23 in lichtkrant laden
05090                   !
05091 04376 16 00225.2  	AND	VERGR23
05092 04377 16 00068.3  	AND	FASE23
05093 04378 12 00003    	FTCHC	03
05094 04379 12 00007    	FTCHC	07
05095 04380 12 00000    	FTCHC	00
05096 04381 14 00168    	STRD	ST1BUF1	!+
05097 04382 14 00169    	STRD	ST2BUF1	!storingscode lichtkrant
05098 04383 14 00170    	STRD	ST3BUF1	!+
05099                   !
05100                   !	aanstuurcode storing 24 in lichtkrant laden
05101                   !
05102 04384 16 00225.3  	AND	VERGR24
05103 04385 16 00068.2  	AND	FASE24
05104 04386 12 00004    	FTCHC	04
05105 04387 12 00007    	FTCHC	07
05106 04388 12 00000    	FTCHC	00
05107 04389 14 00168    	STRD	ST1BUF1	!+
05108 04390 14 00169    	STRD	ST2BUF1	!storingscode lichtkrant
05109 04391 14 00170    	STRD	ST3BUF1	!+
05110                   !
05111                   !	aanstuurcode storing 25 in lichtkrant laden
05112                   !
05113 04392 16 00226.0  	AND	VERGR25
05114 04393 16 00068.1  	AND	FASE25
05115 04394 12 00005    	FTCHC	05
05116 04395 12 00007    	FTCHC	07
05117 04396 12 00000    	FTCHC	00
05118 04397 14 00168    	STRD	ST1BUF1	!+
05119 04398 14 00169    	STRD	ST2BUF1	!storingscode lichtkrant
05120 04399 14 00170    	STRD	ST3BUF1	!+
05121                   !
05122                   !	aanstuurcode storing 26 in lichtkrant laden
05123                   !
05124 04400 16 00226.1  	AND	VERGR26
05125 04401 16 00068.0  	AND	FASE26
05126 04402 12 00006    	FTCHC	06
05127 04403 12 00007    	FTCHC	07
05128 04404 12 00000    	FTCHC	00
05129 04405 14 00168    	STRD	ST1BUF1	!+
05130 04406 14 00169    	STRD	ST2BUF1	!storingscode lichtkrant
05131 04407 14 00170    	STRD	ST3BUF1	!+
05132                   !
05133                   !	aanstuurcode storing 27 in lichtkrant laden
05134                   !
05135 04408 16 00226.2  	AND	VERGR27
05136 04409 16 00067.3  	AND	FASE27
05137 04410 12 00007    	FTCHC	07
05138 04411 12 00007    	FTCHC	07
05139 04412 12 00000    	FTCHC	00
05140 04413 14 00168    	STRD	ST1BUF1	!+
05141 04414 14 00169    	STRD	ST2BUF1	!storingscode lichtkrant
05142 04415 14 00170    	STRD	ST3BUF1	!+
05143                   !
05144                   !	aanstuurcode storing 28 in lichtkrant laden
05145                   !
05146 04416 16 00226.3  	AND	VERGR28
05147 04417 16 00067.2  	AND	FASE28
05148 04418 12 00008    	FTCHC	08
05149 04419 12 00007    	FTCHC	07
05150 04420 12 00000    	FTCHC	00
05151 04421 14 00168    	STRD	ST1BUF1	!+
05152 04422 14 00169    	STRD	ST2BUF1	!storingscode lichtkrant
05153 04423 14 00170    	STRD	ST3BUF1	!+
05154                   !
05155                   !	aanstuurcode storing 29 in lichtkrant laden
05156                   !
05157 04424 16 00227.0  	AND	VERGR29
05158 04425 16 00067.1  	AND	FASE29
05159 04426 12 00009    	FTCHC	09
05160 04427 12 00007    	FTCHC	07
05161 04428 12 00000    	FTCHC	00
05162 04429 14 00168    	STRD	ST1BUF1	!+
05163 04430 14 00169    	STRD	ST2BUF1	!storingscode lichtkrant
05164 04431 14 00170    	STRD	ST3BUF1	!+
05165                   !
05166                   !	aanstuurcode storing 30 in lichtkrant laden
05167                   !
05168 04432 16 00227.1  	AND	VERGR30
05169 04433 16 00067.0  	AND	FASE30
05170 04434 12 00000    	FTCHC	00
05171 04435 12 00008    	FTCHC	08
05172 04436 12 00000    	FTCHC	00
05173 04437 14 00168    	STRD	ST1BUF1	!+
05174 04438 14 00169    	STRD	ST2BUF1	!storingscode lichtkrant
05175 04439 14 00170    	STRD	ST3BUF1	!+
05176                   !
05177                   !	aanstuurcode storing 31 in lichtkrant laden
05178                   !
05179 04440 16 00227.2  	AND	VERGR31
05180 04441 16 00066.3  	AND	FASE31
05181 04442 12 00001    	FTCHC	01
05182 04443 12 00008    	FTCHC	08
05183 04444 12 00000    	FTCHC	00
05184 04445 14 00168    	STRD	ST1BUF1	!+
05185 04446 14 00169    	STRD	ST2BUF1	!storingscode lichtkrant
05186 04447 14 00170    	STRD	ST3BUF1	!+
05187                   !
05188                   !	aanstuurcode storing 32 in lichtkrant laden
05189                   !
05190 04448 16 00227.3  	AND	VERGR32
05191 04449 16 00066.2  	AND	FASE32
05192 04450 12 00002    	FTCHC	02
05193 04451 12 00008    	FTCHC	08
05194 04452 12 00000    	FTCHC	00
05195 04453 14 00168    	STRD	ST1BUF1	!+
05196 04454 14 00169    	STRD	ST2BUF1	!storingscode lichtkrant
05197 04455 14 00170    	STRD	ST3BUF1	!+
05198                   !
05199                   !	aanstuurcode storing 33 in lichtkrant laden
05200                   !
05201 04456 16 00228.0  	AND	VERGR33
05202 04457 16 00066.1  	AND	FASE33
05203 04458 12 00003    	FTCHC	03
05204 04459 12 00008    	FTCHC	08
05205 04460 12 00000    	FTCHC	00
05206 04461 14 00168    	STRD	ST1BUF1	!+
05207 04462 14 00169    	STRD	ST2BUF1	!storingscode lichtkrant
05208 04463 14 00170    	STRD	ST3BUF1	!+
05209                   !
05210                   !	aanstuurcode storing 34 in lichtkrant laden
05211                   !
05212 04464 16 00228.1  	AND	VERGR34
05213 04465 16 00066.0  	AND	FASE34
05214 04466 12 00004    	FTCHC	04
05215 04467 12 00008    	FTCHC	08
05216 04468 12 00000    	FTCHC	00
05217 04469 14 00168    	STRD	ST1BUF1	!+
05218 04470 14 00169    	STRD	ST2BUF1	!storingscode lichtkrant
05219 04471 14 00170    	STRD	ST3BUF1	!+
05220                   !
05221                   !	aanstuurcode storing 35 in lichtkrant laden
05222                   !
05223 04472 16 00228.2  	AND	VERGR35
05224 04473 16 00065.3  	AND	FASE35
05225 04474 12 00005    	FTCHC	05
05226 04475 12 00008    	FTCHC	08
05227 04476 12 00000    	FTCHC	00
05228 04477 14 00168    	STRD	ST1BUF1	!+
05229 04478 14 00169    	STRD	ST2BUF1	!storingscode lichtkrant
05230 04479 14 00170    	STRD	ST3BUF1	!+
05231                   !
05232                   !	aanstuurcode storing 36 in lichtkrant laden
05233                   !
05234 04480 16 00228.3  	AND	VERGR36
05235 04481 16 00065.2  	AND	FASE36
05236 04482 12 00006    	FTCHC	06
05237 04483 12 00008    	FTCHC	08
05238 04484 12 00000    	FTCHC	00
05239 04485 14 00168    	STRD	ST1BUF1	!+
05240 04486 14 00169    	STRD	ST2BUF1	!storingscode lichtkrant
05241 04487 14 00170    	STRD	ST3BUF1	!+
05242                   !
05243                   !	aanstuurcode storing 37 in lichtkrant laden
05244                   !
05245 04488 16 00229.0  	AND	VERGR37	!hoge druk alarm P10
05246 04489 16 00065.1  	AND	FASE37
05247 04490 12 00007    	FTCHC	07
05248 04491 12 00008    	FTCHC	08
05249 04492 12 00000    	FTCHC	00
05250 04493 14 00168    	STRD	ST1BUF1	!+
05251 04494 14 00169    	STRD	ST2BUF1	!storingscode lichtkrant
05252 04495 14 00170    	STRD	ST3BUF1	!+
05253                   !
05254                   !	aanstuurcode storing 38 in lichtkrant laden
05255                   !
05256 04496 16 00229.1  	AND	VERGR38
05257 04497 16 00065.0  	AND	FASE38
05258 04498 12 00008    	FTCHC	08
05259 04499 12 00008    	FTCHC	08
05260 04500 12 00000    	FTCHC	00
05261 04501 14 00168    	STRD	ST1BUF1	!+
05262 04502 14 00169    	STRD	ST2BUF1	!storingscode lichtkrant
05263 04503 14 00170    	STRD	ST3BUF1	!+
05264                   !
05265                   !	aanstuurcode storing 39 in lichtkrant laden
05266                   !
05267 04504 16 00229.2  	AND	VERGR39
05268 04505 16 00064.3  	AND	FASE39
05269 04506 12 00009    	FTCHC	09
05270 04507 12 00008    	FTCHC	08
05271 04508 12 00000    	FTCHC	00
05272 04509 14 00168    	STRD	ST1BUF1	!+
05273 04510 14 00169    	STRD	ST2BUF1	!storingscode lichtkrant
05274 04511 14 00170    	STRD	ST3BUF1	!+
05275                   !
05276                   !	aanstuurcode storing 40 in lichtkrant laden
05277                   !
05278 04512 16 00229.3  	AND	VERGR40
05279 04513 16 00064.2  	AND	FASE40
05280 04514 12 00000    	FTCHC	00
05281 04515 12 00009    	FTCHC	09
05282 04516 12 00000    	FTCHC	00
05283 04517 14 00168    	STRD	ST1BUF1	!+
05284 04518 14 00169    	STRD	ST2BUF1	!storingscode lichtkrant
05285 04519 14 00170    	STRD	ST3BUF1	!+
05286                   !
05287                   !	aanstuurcode storing 41 in lichtkrant laden
05288                   !
05289 04520 16 00230.0  	AND	VERGR41
05290 04521 16 00064.1  	AND	FASE41
05291 04522 12 00001    	FTCHC	01
05292 04523 12 00009    	FTCHC	09
05293 04524 12 00000    	FTCHC	00
05294 04525 14 00168    	STRD	ST1BUF1	!+
05295 04526 14 00169    	STRD	ST2BUF1	!storingscode lichtkrant
05296 04527 14 00170    	STRD	ST3BUF1	!+
05297                   !
05298                   !	aanstuurcode storing 42 in lichtkrant laden
05299                   !
05300 04528 16 00230.1  	AND	VERGR42
05301 04529 16 00064.0  	AND	FASE42
05302 04530 12 00002    	FTCHC	02
05303 04531 12 00009    	FTCHC	09
05304 04532 12 00000    	FTCHC	00
05305 04533 14 00168    	STRD	ST1BUF1	!+
05306 04534 14 00169    	STRD	ST2BUF1	!storingscode lichtkrant
05307 04535 14 00170    	STRD	ST3BUF1	!+
05308                   !
05309                   !	aanstuurcode storing 43 in lichtkrant laden
05310                   !
05311 04536 16 00230.2  	AND	VERGR43	!druk vuilproceswater
05312 04537 16 00063.3  	AND	FASE43
05313 04538 12 00003    	FTCHC	03
05314 04539 12 00009    	FTCHC	09
05315 04540 12 00000    	FTCHC	00
05316 04541 14 00168    	STRD	ST1BUF1	!+
05317 04542 14 00169    	STRD	ST2BUF1	!storingscode lichtkrant
05318 04543 14 00170    	STRD	ST3BUF1	!+
05319                   !
05320                   !	aanstuurcode storing 44 in lichtkrant laden
05321                   !
05322 04544 16 00230.3  	AND	VERGR44	!rho proceswater
05323 04545 16 00063.2  	AND	FASE44
05324 04546 12 00004    	FTCHC	04
05325 04547 12 00009    	FTCHC	09
05326 04548 12 00000    	FTCHC	00
05327 04549 14 00168    	STRD	ST1BUF1	!+
05328 04550 14 00169    	STRD	ST2BUF1	!storingscode lichtkrant
05329 04551 14 00170    	STRD	ST3BUF1	!+
05330                   !
05331                   !	aanstuurcode storing 45 in lichtkrant laden
05332                   !
05333 04552 16 00231.0  	AND	VERGR45	!lage flow alarm vuilproceswater
05334 04553 16 00063.1  	AND	FASE45
05335 04554 12 00005    	FTCHC	05
05336 04555 12 00009    	FTCHC	09
05337 04556 12 00000    	FTCHC	00
05338 04557 14 00168    	STRD	ST1BUF1	!+
05339 04558 14 00169    	STRD	ST2BUF1	!storingscode lichtkrant
05340 04559 14 00170    	STRD	ST3BUF1	!+
05341                   !
05342                   !	aanstuurcode storing 46 in lichtkrant laden
05343                   !
05344 04560 16 00231.1  	AND	VERGR46	!regeneratie cmf niet op tijd gevuld
05345 04561 16 00063.0  	AND	FASE46
05346 04562 12 00006    	FTCHC	06
05347 04563 12 00009    	FTCHC	09
05348 04564 12 00000    	FTCHC	00
05349 04565 14 00168    	STRD	ST1BUF1	!+
05350 04566 14 00169    	STRD	ST2BUF1	!storingscode lichtkrant
05351 04567 14 00170    	STRD	ST3BUF1	!+
05352                   !
05353                   !	aanstuurcode storing 47 in lichtkrant laden
05354                   !
05355 04568 16 00231.2  	AND	VERGR47	!regeneratie cmf niet op tijd geledigd
05356 04569 16 00062.3  	AND	FASE47
05357 04570 12 00007    	FTCHC	07
05358 04571 12 00009    	FTCHC	09
05359 04572 12 00000    	FTCHC	00
05360 04573 14 00168    	STRD	ST1BUF1	!+
05361 04574 14 00169    	STRD	ST2BUF1	!storingscode lichtkrant
05362 04575 14 00170    	STRD	ST3BUF1	!+
05363                   !
05364                   !	aanstuurcode storing 48 in lichtkrant laden
05365                   !
05366 04576 16 00231.3  	AND	VERGR48
05367 04577 16 00062.2  	AND	FASE48
05368 04578 12 00008    	FTCHC	08
05369 04579 12 00009    	FTCHC	09
05370 04580 12 00000    	FTCHC	00
05371 04581 14 00168    	STRD	ST1BUF1	!+
05372 04582 14 00169    	STRD	ST2BUF1	!storingscode lichtkrant
05373 04583 14 00170    	STRD	ST3BUF1	!+
05374                   !
05375                   !	aanstuurcode storing 49 in lichtkrant laden
05376                   !
05377 04584 16 00232.0  	AND	VERGR49
05378 04585 16 00062.1  	AND	FASE49
05379 04586 12 00009    	FTCHC	09
05380 04587 12 00009    	FTCHC	09
05381 04588 12 00000    	FTCHC	00
05382 04589 14 00168    	STRD	ST1BUF1	!+
05383 04590 14 00169    	STRD	ST2BUF1	!storingscode lichtkrant
05384 04591 14 00170    	STRD	ST3BUF1	!+
05385                   !
05386                   !	aanstuurcode storing 50 in lichtkrant laden
05387                   !
05388 04592 16 00232.1  	AND	VERGR50
05389 04593 16 00062.0  	AND	FASE50
05390 04594 12 00000    	FTCHC	00
05391 04595 12 00000    	FTCHC	00
05392 04596 12 00001    	FTCHC	01
05393 04597 14 00168    	STRD	ST1BUF1	!+
05394 04598 14 00169    	STRD	ST2BUF1	!storingscode lichtkrant
05395 04599 14 00170    	STRD	ST3BUF1	!+
05396                   !
05397                   !	aanstuurcode storing 51 in lichtkrant laden
05398                   !
05399 04600 16 00232.2  	AND	VERGR51
05400 04601 16 00061.3  	AND	FASE51
05401 04602 12 00001    	FTCHC	01
05402 04603 12 00000    	FTCHC	00
05403 04604 12 00001    	FTCHC	01
05404 04605 14 00168    	STRD	ST1BUF1	!+
05405 04606 14 00169    	STRD	ST2BUF1	!storingscode lichtkrant
05406 04607 14 00170    	STRD	ST3BUF1	!+
05407                   !
05408                   !	aanstuurcode storing 52 in lichtkrant laden
05409                   !
05410 04608 16 00232.3  	AND	VERGR52
05411 04609 16 00061.2  	AND	FASE52
05412 04610 12 00002    	FTCHC	02
05413 04611 12 00000    	FTCHC	00
05414 04612 12 00001    	FTCHC	01
05415 04613 14 00168    	STRD	ST1BUF1	!+
05416 04614 14 00169    	STRD	ST2BUF1	!storingscode lichtkrant
05417 04615 14 00170    	STRD	ST3BUF1	!+
05418                   !
05419                   !	aanstuurcode storing 53 in lichtkrant laden
05420                   !
05421 04616 16 00233.0  	AND	VERGR53
05422 04617 16 00061.1  	AND	FASE53
05423 04618 12 00003    	FTCHC	03
05424 04619 12 00000    	FTCHC	00
05425 04620 12 00001    	FTCHC	01
05426 04621 14 00168    	STRD	ST1BUF1	!+
05427 04622 14 00169    	STRD	ST2BUF1	!storingscode lichtkrant
05428 04623 14 00170    	STRD	ST3BUF1	!+
05429                   !
05430                   !	aanstuurcode storing 54 in lichtkrant laden
05431                   !
05432 04624 16 00233.1  	AND	VERGR54
05433 04625 16 00061.0  	AND	FASE54
05434 04626 12 00004    	FTCHC	04
05435 04627 12 00000    	FTCHC	00
05436 04628 12 00001    	FTCHC	01
05437 04629 14 00168    	STRD	ST1BUF1	!+
05438 04630 14 00169    	STRD	ST2BUF1	!storingscode lichtkrant
05439 04631 14 00170    	STRD	ST3BUF1	!+
05440                   !
05441                   !	aanstuurcode storing 55 in lichtkrant laden
05442                   !
05443 04632 16 00233.2  	AND	VERGR55
05444 04633 16 00060.3  	AND	FASE55
05445 04634 12 00005    	FTCHC	05
05446 04635 12 00000    	FTCHC	00
05447 04636 12 00001    	FTCHC	01
05448 04637 14 00168    	STRD	ST1BUF1	!+
05449 04638 14 00169    	STRD	ST2BUF1	!storingscode lichtkrant
05450 04639 14 00170    	STRD	ST3BUF1	!+
05451                   !
05452                   !	aanstuurcode storing 56 in lichtkrant laden
05453                   !
05454 04640 16 00233.3  	AND	VERGR56
05455 04641 16 00060.2  	AND	FASE56
05456 04642 12 00006    	FTCHC	06
05457 04643 12 00000    	FTCHC	00
05458 04644 12 00001    	FTCHC	01
05459 04645 14 00168    	STRD	ST1BUF1	!+
05460 04646 14 00169    	STRD	ST2BUF1	!storingscode lichtkrant
05461 04647 14 00170    	STRD	ST3BUF1	!+
05462                   !
05463                   !	aanstuurcode storing 57 in lichtkrant laden
05464                   !
05465 04648 16 00234.0  	AND	VERGR57
05466 04649 16 00060.1  	AND	FASE57
05467 04650 12 00007    	FTCHC	07
05468 04651 12 00000    	FTCHC	00
05469 04652 12 00001    	FTCHC	01
05470 04653 14 00168    	STRD	ST1BUF1	!+
05471 04654 14 00169    	STRD	ST2BUF1	!storingscode lichtkrant
05472 04655 14 00170    	STRD	ST3BUF1	!+
05473                   !
05474                   !	aanstuurcode storing 58 in lichtkrant laden
05475                   !
05476 04656 16 00234.1  	AND	VERGR58
05477 04657 16 00060.0  	AND	FASE58
05478 04658 12 00008    	FTCHC	08
05479 04659 12 00000    	FTCHC	00
05480 04660 12 00001    	FTCHC	01
05481 04661 14 00168    	STRD	ST1BUF1	!+
05482 04662 14 00169    	STRD	ST2BUF1	!storingscode lichtkrant
05483 04663 14 00170    	STRD	ST3BUF1	!+
05484                   !
05485                   !	aanstuurcode storing 59 in lichtkrant laden
05486                   !
05487 04664 16 00234.2  	AND	VERGR59
05488 04665 16 00059.3  	AND	FASE59
05489 04666 12 00009    	FTCHC	09
05490 04667 12 00000    	FTCHC	00
05491 04668 12 00001    	FTCHC	01
05492 04669 14 00168    	STRD	ST1BUF1	!+
05493 04670 14 00169    	STRD	ST2BUF1	!storingscode lichtkrant
05494 04671 14 00170    	STRD	ST3BUF1	!+
05495                   !
05496                   !	aanstuurcode storing 60 in lichtkrant laden
05497                   !
05498 04672 16 00234.3  	AND	VERGR60
05499 04673 16 00059.2  	AND	FASE60
05500 04674 12 00000    	FTCHC	00
05501 04675 12 00001    	FTCHC	01
05502 04676 12 00001    	FTCHC	01
05503 04677 14 00168    	STRD	ST1BUF1	!+
05504 04678 14 00169    	STRD	ST2BUF1	!storingscode lichtkrant
05505 04679 14 00170    	STRD	ST3BUF1	!+
05506                   !
05507                   !	aanstuurcode storing 61 in lichtkrant laden
05508                   !
05509 04680 16 00235.0  	AND	VERGR61
05510 04681 16 00059.1  	AND	FASE61
05511 04682 12 00001    	FTCHC	01
05512 04683 12 00001    	FTCHC	01
05513 04684 12 00001    	FTCHC	01
05514 04685 14 00168    	STRD	ST1BUF1	!+
05515 04686 14 00169    	STRD	ST2BUF1	!storingscode lichtkrant
05516 04687 14 00170    	STRD	ST3BUF1	!+
05517                   !
05518                   !	aanstuurcode storing 62 in lichtkrant laden
05519                   !
05520 04688 16 00235.1  	AND	VERGR62
05521 04689 16 00059.0  	AND	FASE62
05522 04690 12 00002    	FTCHC	02
05523 04691 12 00001    	FTCHC	01
05524 04692 12 00001    	FTCHC	01
05525 04693 14 00168    	STRD	ST1BUF1	!+
05526 04694 14 00169    	STRD	ST2BUF1	!storingscode lichtkrant
05527 04695 14 00170    	STRD	ST3BUF1	!+
05528                   !
05529                   !	aanstuurcode storing 63 in lichtkrant laden
05530                   !
05531 04696 16 00235.2  	AND	VERGR63
05532 04697 16 00058.3  	AND	FASE63
05533 04698 12 00003    	FTCHC	03
05534 04699 12 00001    	FTCHC	01
05535 04700 12 00001    	FTCHC	01
05536 04701 14 00168    	STRD	ST1BUF1	!+
05537 04702 14 00169    	STRD	ST2BUF1	!storingscode lichtkrant
05538 04703 14 00170    	STRD	ST3BUF1	!+
05539                   !
05540                   !	aanstuurcode storing 64 in lichtkrant laden
05541                   !
05542 04704 16 00235.3  	AND	VERGR64
05543 04705 16 00058.2  	AND	FASE64
05544 04706 12 00004    	FTCHC	04
05545 04707 12 00001    	FTCHC	01
05546 04708 12 00001    	FTCHC	01
05547 04709 14 00168    	STRD	ST1BUF1	!+
05548 04710 14 00169    	STRD	ST2BUF1	!storingscode lichtkrant
05549 04711 14 00170    	STRD	ST3BUF1	!+
05550                   !
05551                   !	aanstuurcode storing 65 in lichtkrant laden
05552                   !
05553 04712 16 00236.0  	AND	VERGR65
05554 04713 16 00058.1  	AND	FASE65
05555 04714 12 00005    	FTCHC	05
05556 04715 12 00001    	FTCHC	01
05557 04716 12 00001    	FTCHC	01
05558 04717 14 00168    	STRD	ST1BUF1	!+
05559 04718 14 00169    	STRD	ST2BUF1	!storingscode lichtkrant
05560 04719 14 00170    	STRD	ST3BUF1	!+
05561                   !
05562                   !	aanstuurcode storing 66 in lichtkrant laden
05563                   !
05564 04720 16 00236.1  	AND	VERGR66
05565 04721 16 00058.0  	AND	FASE66
05566 04722 12 00006    	FTCHC	06
05567 04723 12 00001    	FTCHC	01
05568 04724 12 00001    	FTCHC	01
05569 04725 14 00168    	STRD	ST1BUF1	!+
05570 04726 14 00169    	STRD	ST2BUF1	!storingscode lichtkrant
05571 04727 14 00170    	STRD	ST3BUF1	!+
05572                   !
05573                   !	aanstuurcode storing 67 in lichtkrant laden
05574                   !
05575 04728 16 00236.2  	AND	VERGR67
05576 04729 16 00057.3  	AND	FASE67
05577 04730 12 00007    	FTCHC	07
05578 04731 12 00001    	FTCHC	01
05579 04732 12 00001    	FTCHC	01
05580 04733 14 00168    	STRD	ST1BUF1	!+
05581 04734 14 00169    	STRD	ST2BUF1	!storingscode lichtkrant
05582 04735 14 00170    	STRD	ST3BUF1	!+
05583                   !
05584                   !	aanstuurcode storing 68 in lichtkrant laden
05585                   !
05586 04736 16 00236.3  	AND	VERGR68
05587 04737 16 00057.2  	AND	FASE68
05588 04738 12 00008    	FTCHC	08
05589 04739 12 00001    	FTCHC	01
05590 04740 12 00001    	FTCHC	01
05591 04741 14 00168    	STRD	ST1BUF1	!+
05592 04742 14 00169    	STRD	ST2BUF1	!storingscode lichtkrant
05593 04743 14 00170    	STRD	ST3BUF1	!+
05594                   !
05595                   !	aanstuurcode storing 69 in lichtkrant laden
05596                   !
05597 04744 16 00237.0  	AND	VERGR69
05598 04745 16 00057.1  	AND	FASE69
05599 04746 12 00009    	FTCHC	09
05600 04747 12 00001    	FTCHC	01
05601 04748 12 00001    	FTCHC	01
05602 04749 14 00168    	STRD	ST1BUF1	!+
05603 04750 14 00169    	STRD	ST2BUF1	!storingscode lichtkrant
05604 04751 14 00170    	STRD	ST3BUF1	!+
05605                   !
05606                   !	aanstuurcode storing 70 in lichtkrant laden
05607                   !
05608 04752 16 00237.1  	AND	VERGR70
05609 04753 16 00057.0  	AND	FASE70
05610 04754 12 00000    	FTCHC	00
05611 04755 12 00002    	FTCHC	02
05612 04756 12 00001    	FTCHC	01
05613 04757 14 00168    	STRD	ST1BUF1	!+
05614 04758 14 00169    	STRD	ST2BUF1	!storingscode lichtkrant
05615 04759 14 00170    	STRD	ST3BUF1	!+
05616                   !
05617                   !	aanstuurcode storing 71 in lichtkrant laden
05618                   !
05619 04760 16 00237.2  	AND	VERGR71
05620 04761 16 00056.3  	AND	FASE71
05621 04762 12 00001    	FTCHC	01
05622 04763 12 00002    	FTCHC	02
05623 04764 12 00001    	FTCHC	01
05624 04765 14 00168    	STRD	ST1BUF1	!+
05625 04766 14 00169    	STRD	ST2BUF1	!storingscode lichtkrant
05626 04767 14 00170    	STRD	ST3BUF1	!+
05627                   !
05628                   !	aanstuurcode storing 72 in lichtkrant laden
05629                   !
05630 04768 16 00237.3  	AND	VERGR72
05631 04769 16 00056.2  	AND	FASE72
05632 04770 12 00002    	FTCHC	02
05633 04771 12 00002    	FTCHC	02
05634 04772 12 00001    	FTCHC	01
05635 04773 14 00168    	STRD	ST1BUF1	!+
05636 04774 14 00169    	STRD	ST2BUF1	!storingscode lichtkrant
05637 04775 14 00170    	STRD	ST3BUF1	!+
05638                   !
05639                   !	aanstuurcode storing 73 in lichtkrant laden
05640                   !
05641 04776 16 00238.0  	AND	VERGR73
05642 04777 16 00056.1  	AND	FASE73
05643 04778 12 00003    	FTCHC	03
05644 04779 12 00002    	FTCHC	02
05645 04780 12 00001    	FTCHC	01
05646 04781 14 00168    	STRD	ST1BUF1	!+
05647 04782 14 00169    	STRD	ST2BUF1	!storingscode lichtkrant
05648 04783 14 00170    	STRD	ST3BUF1	!+
05649                   !
05650                   !	aanstuurcode storing 74 in lichtkrant laden
05651                   !
05652 04784 16 00238.1  	AND	VERGR74
05653 04785 16 00056.0  	AND	FASE74
05654 04786 12 00004    	FTCHC	04
05655 04787 12 00002    	FTCHC	02
05656 04788 12 00001    	FTCHC	01
05657 04789 14 00168    	STRD	ST1BUF1	!+
05658 04790 14 00169    	STRD	ST2BUF1	!storingscode lichtkrant
05659 04791 14 00170    	STRD	ST3BUF1	!+
05660                   !
05661                   !	aanstuurcode storing 75 in lichtkrant laden
05662                   !
05663 04792 16 00238.2  	AND	VERGR75
05664 04793 16 00055.3  	AND	FASE75
05665 04794 12 00005    	FTCHC	05
05666 04795 12 00002    	FTCHC	02
05667 04796 12 00001    	FTCHC	01
05668 04797 14 00168    	STRD	ST1BUF1	!+
05669 04798 14 00169    	STRD	ST2BUF1	!storingscode lichtkrant
05670 04799 14 00170    	STRD	ST3BUF1	!+
05671                   !
05672                   !	aanstuurcode storing 76 in lichtkrant laden
05673                   !
05674 04800 16 00238.3  	AND	VERGR76
05675 04801 16 00055.2  	AND	FASE76
05676 04802 12 00006    	FTCHC	06
05677 04803 12 00002    	FTCHC	02
05678 04804 12 00001    	FTCHC	01
05679 04805 14 00168    	STRD	ST1BUF1	!+
05680 04806 14 00169    	STRD	ST2BUF1	!storingscode lichtkrant
05681 04807 14 00170    	STRD	ST3BUF1	!+
05682                   !
05683                   !	aanstuurcode storing 77 in lichtkrant laden
05684                   !
05685 04808 16 00239.0  	AND	VERGR77
05686 04809 16 00055.1  	AND	FASE77
05687 04810 12 00007    	FTCHC	07
05688 04811 12 00002    	FTCHC	02
05689 04812 12 00001    	FTCHC	01
05690 04813 14 00168    	STRD	ST1BUF1	!+
05691 04814 14 00169    	STRD	ST2BUF1	!storingscode lichtkrant
05692 04815 14 00170    	STRD	ST3BUF1	!+
05693                   !
05694                   !	aanstuurcode storing 78 in lichtkrant laden
05695                   !
05696 04816 16 00239.1  	AND	VERGR78
05697 04817 16 00055.0  	AND	FASE78
05698 04818 12 00008    	FTCHC	08
05699 04819 12 00002    	FTCHC	02
05700 04820 12 00001    	FTCHC	01
05701 04821 14 00168    	STRD	ST1BUF1	!+
05702 04822 14 00169    	STRD	ST2BUF1	!storingscode lichtkrant
05703 04823 14 00170    	STRD	ST3BUF1	!+
05704                   !
05705                   !	kijken of er nog een alarm aanwezig is
05706                   !
05707 04824 18 00220.0  	OR	VERGR01
05708 04825 18 00220.1  	OR	VERGR02	!stuurlucht gestoord
05709 04826 18 00220.2  	OR	VERGR03	!stuurspanning gestoord
05710 04827 18 00220.3  	OR	VERGR04
05711 04828 18 00221.0  	OR	VERGR05	!vuilwater tank leeg
05712 04829 18 00221.1  	OR	VERGR06
05713 04830 18 00221.2  	OR	VERGR07
05714 04831 18 00221.3  	OR	VERGR08
05715 04832 18 00222.0  	OR	VERGR09
05716 04833 18 00222.1  	OR	VERGR10
05717 04834 18 00222.2  	OR	VERGR11
05718 04835 18 00222.3  	OR	VERGR12
05719 04836 18 00223.0  	OR	VERGR13
05720 04837 18 00223.1  	OR	VERGR14
05721 04838 18 00223.2  	OR	VERGR15
05722 04839 18 00223.3  	OR	VERGR16
05723 04840 18 00224.0  	OR	VERGR17
05724 04841 18 00224.1  	OR	VERGR18
05725 04842 18 00224.2  	OR	VERGR19
05726 04843 18 00224.3  	OR	VERGR20
05727 04844 18 00225.0  	OR	VERGR21
05728 04845 18 00225.1  	OR	VERGR22
05729 04846 18 00225.2  	OR	VERGR23
05730 04847 18 00225.3  	OR	VERGR24
05731 04848 18 00226.0  	OR	VERGR25
05732 04849 18 00226.1  	OR	VERGR26
05733 04850 18 00226.2  	OR	VERGR27
05734 04851 18 00226.3  	OR	VERGR28
05735 04852 18 00227.0  	OR	VERGR29
05736 04853 18 00227.1  	OR	VERGR30
05737 04854 18 00227.2  	OR	VERGR31
05738 04855 18 00227.3  	OR	VERGR32
05739 04856 18 00228.0  	OR	VERGR33
05740 04857 18 00228.1  	OR	VERGR34
05741 04858 18 00228.2  	OR	VERGR35
05742 04859 18 00228.3  	OR	VERGR36
05743 04860 18 00229.0  	OR	VERGR37	!hoge druk alarm P10
05744 04861 18 00229.1  	OR	VERGR38
05745 04862 18 00229.2  	OR	VERGR39
05746 04863 18 00229.3  	OR	VERGR40
05747 04864 18 00230.0  	OR	VERGR41
05748 04865 18 00230.1  	OR	VERGR42
05749 04866 18 00230.2  	OR	VERGR43	!druk vuilproceswater
05750 04867 18 00230.3  	OR	VERGR44	!rho proceswater
05751 04868 18 00231.0  	OR	VERGR45	!lage flow alarm vuilproceswater
05752 04869 18 00231.1  	OR	VERGR46	!regeneratie cmf niet op tijd gevuld
05753 04870 18 00231.2  	OR	VERGR47	!regeneratie cmf niet op tijd geledigd
05754 04871 18 00231.3  	OR	VERGR48
05755 04872 18 00232.0  	OR	VERGR49
05756 04873 18 00232.1  	OR	VERGR50
05757 04874 18 00232.2  	OR	VERGR51
05758 04875 18 00232.3  	OR	VERGR52
05759 04876 18 00233.0  	OR	VERGR53
05760 04877 18 00233.1  	OR	VERGR54
05761 04878 18 00233.2  	OR	VERGR55
05762 04879 18 00233.3  	OR	VERGR56
05763 04880 18 00234.0  	OR	VERGR57
05764 04881 18 00234.1  	OR	VERGR58
05765 04882 18 00234.2  	OR	VERGR59
05766 04883 18 00234.3  	OR	VERGR60
05767 04884 18 00235.0  	OR	VERGR61
05768 04885 18 00235.1  	OR	VERGR62
05769 04886 18 00235.2  	OR	VERGR63
05770 04887 18 00235.3  	OR	VERGR64
05771 04888 18 00236.0  	OR	VERGR65
05772 04889 18 00236.1  	OR	VERGR66
05773 04890 18 00236.2  	OR	VERGR67
05774 04891 18 00236.3  	OR	VERGR68
05775 04892 18 00237.0  	OR	VERGR69
05776 04893 18 00237.1  	OR	VERGR70
05777 04894 18 00237.2  	OR	VERGR71
05778 04895 18 00237.3  	OR	VERGR72
05779 04896 18 00238.0  	OR	VERGR73
05780 04897 18 00238.1  	OR	VERGR74
05781 04898 18 00238.2  	OR	VERGR75
05782 04899 18 00238.3  	OR	VERGR76
05783 04900 18 00239.0  	OR	VERGR77
05784 04901 18 00239.1  	OR	VERGR78
05785 04902 02 00076.1    EQL ST_AANW !storing aanwezig ?
05786                   !
05787                   !	indien geen storing, clear storingsbuffer
05788                   !
05789 04903 17 00076.1    ANDNT ST_AANW !storing aanwezig ?
05790 04904 12 00000    	FTCHC	00
05791 04905 12 00000    	FTCHC	00
05792 04906 12 00000    	FTCHC	00
05793 04907 14 00168    	STRD	ST1BUF1	!+
05794 04908 14 00169    	STRD	ST2BUF1	!storingscode lichtkrant
05795 04909 14 00170    	STRD	ST3BUF1	!+
05796                   
05797 04910 17 00076.1    ANDNT ST_AANW !storing aanwezig ?
05798 04911 16 00051.0  	AND	BDR0B00	!start bedrijf fasen 1 t/m 6
05799 04912 12 00001    	FTCHC	01
05800 04913 12 00000    	FTCHC	00
05801 04914 12 00000    	FTCHC	00
05802 04915 14 00168    	STRD	ST1BUF1	!+
05803 04916 14 00169    	STRD	ST2BUF1	!storingscode lichtkrant
05804 04917 14 00170    	STRD	ST3BUF1	!+
05805                   
05806 04918 17 00076.1    ANDNT ST_AANW !storing aanwezig ?
05807 04919 16 00112.2    AND BDR0I01 !bedrijfskeuze schak. "STAND_BY"
05808 04920 19 00076.1    ORNT  ST_AANW !storing aanwezig ?
05809 04921 16 00388.1    AND WZC0B13 !wizconcommando STAND_BY + KEUZESCHAK.=SU
05810 04922 12 00002    	FTCHC	02
05811 04923 12 00000    	FTCHC	00
05812 04924 12 00000    	FTCHC	00
05813 04925 14 00168    	STRD	ST1BUF1	!+
05814 04926 14 00169    	STRD	ST2BUF1	!storingscode lichtkrant
05815 04927 14 00170    	STRD	ST3BUF1	!+
05816                   
05817 04928 17 00076.1    ANDNT ST_AANW !storing aanwezig ?
05818 04929 16 00044.2  	AND	REG0B00	!start regen. fasen 8 t/m 33.1
05819 04930 12 00003    	FTCHC	03
05820 04931 12 00000    	FTCHC	00
05821 04932 12 00000    	FTCHC	00
05822 04933 14 00168    	STRD	ST1BUF1	!+
05823 04934 14 00169    	STRD	ST2BUF1	!storingscode lichtkrant
05824 04935 14 00170    	STRD	ST3BUF1	!+
05825                   
05826 04936 17 00076.1    ANDNT ST_AANW !storing aanwezig ?
05827 04937 17 00044.2  	ANDNT	REG0B00	!start regen. fasen 8 t/m 33.1
05828 04938 16 00354.3  	AND	REG0B42	!regeneratieaanvraag
05829 04939 12 00004    	FTCHC	04
05830 04940 12 00000    	FTCHC	00
05831 04941 12 00000    	FTCHC	00
05832 04942 14 00168    	STRD	ST1BUF1	!+
05833 04943 14 00169    	STRD	ST2BUF1	!storingscode lichtkrant
05834 04944 14 00170    	STRD	ST3BUF1	!+
05835                   
05836 04945 17 00076.1    ANDNT ST_AANW !storing aanwezig ?
05837 04946 17 00044.2  	ANDNT	REG0B00	!start regen. fasen 8 t/m 33.1
05838 04947 16 00354.3  	AND	REG0B42	!regeneratieaanvraag
05839 04948 17 00343.0  	ANDNT	ALM0B25	!regeneratieaanvraag (claxon)
05840 04949 17 00201.2  	ANDNT	CA07
05841 04950 16 00355.3  	AND	REG0B46	!openen commando V10.4
05842 04951 19 00076.1    ORNT  ST_AANW !storing aanwezig ?
05843 04952 16 00388.3  	AND	WZC0B15	!wizconcommando SPUIEN + KEUZESCHAK.=SUPE
05844 04953 12 00005    	FTCHC	05
05845 04954 12 00000    	FTCHC	00
05846 04955 12 00000    	FTCHC	00
05847 04956 14 00168    	STRD	ST1BUF1	!+
05848 04957 14 00169    	STRD	ST2BUF1	!storingscode lichtkrant
05849 04958 14 00170    	STRD	ST3BUF1	!+
05850 04959 00          	NOP	41
05850 04960 00 
05850 04961 00 
05850 04962 00 
05850 04963 00 
05850 04964 00 
05850 04965 00 
05850 04966 00 
05850 04967 00 
05850 04968 00 
05850 04969 00 
05850 04970 00 
05850 04971 00 
05850 04972 00 
05850 04973 00 
05850 04974 00 
05850 04975 00 
05850 04976 00 
05850 04977 00 
05850 04978 00 
05850 04979 00 
05850 04980 00 
05850 04981 00 
05850 04982 00 
05850 04983 00 
05850 04984 00 
05850 04985 00 
05850 04986 00 
05850 04987 00 
05850 04988 00 
05850 04989 00 
05850 04990 00 
05850 04991 00 
05850 04992 00 
05850 04993 00 
05850 04994 00 
05850 04995 00 
05850 04996 00 
05850 04997 00 
05850 04998 00 
05850 04999 00 
05851                   !                               DR_KRT2
05852                   !				*******
05853                   !
05854 05000 16 00076.1    AND ST_AANW !storing aanwezig ?
05855 05001 16 00113.2  	AND	STAPDRKN	!doorstappen lichtkrant
05856 05002 01 00075.1  	TRIG	STAP	!triggerpuls
05857 05003 02 00075.2  	EQL	DOORSTAP	!fasedoorstappuls door drukknop
05858                   
05859 05004 18 00077.2  	OR	FASESPRG	!fase overspringen
05860 05005 18 00075.0  	OR	TIMER01
05861 05006 18 00075.2  	OR	DOORSTAP	!fasedoorstappuls door drukknop
05862 05007 02 00075.3    EQL STAP_1  !fasedoorstappuls
05863                   
05864 05008 16 00055.0  	AND	FASE78
05865 05009 16 00075.3    AND STAP_1  !fasedoorstappuls
05866 05010 08 00055.0  	SET0	FASE78
05867                   
05868 05011 16 00055.1  	AND	FASE77
05869 05012 16 00075.3    AND STAP_1  !fasedoorstappuls
05870 05013 09 00055.0  	SET1	FASE78
05871 05014 08 00055.1  	SET0	FASE77
05872                   
05873 05015 16 00055.2  	AND	FASE76
05874 05016 16 00075.3    AND STAP_1  !fasedoorstappuls
05875 05017 09 00055.1  	SET1	FASE77
05876 05018 08 00055.2  	SET0	FASE76
05877                   
05878 05019 16 00055.3  	AND	FASE75
05879 05020 16 00075.3    AND STAP_1  !fasedoorstappuls
05880 05021 09 00055.2  	SET1	FASE76
05881 05022 08 00055.3  	SET0	FASE75
05882                   
05883 05023 16 00056.0  	AND	FASE74
05884 05024 16 00075.3    AND STAP_1  !fasedoorstappuls
05885 05025 09 00055.3  	SET1	FASE75
05886 05026 08 00056.0  	SET0	FASE74
05887                   
05888 05027 16 00056.1  	AND	FASE73
05889 05028 16 00075.3    AND STAP_1  !fasedoorstappuls
05890 05029 09 00056.0  	SET1	FASE74
05891 05030 08 00056.1  	SET0	FASE73
05892                   
05893 05031 16 00056.2  	AND	FASE72
05894 05032 16 00075.3    AND STAP_1  !fasedoorstappuls
05895 05033 09 00056.1  	SET1	FASE73
05896 05034 08 00056.2  	SET0	FASE72
05897                   
05898 05035 16 00056.3  	AND	FASE71
05899 05036 16 00075.3    AND STAP_1  !fasedoorstappuls
05900 05037 09 00056.2  	SET1	FASE72
05901 05038 08 00056.3  	SET0	FASE71
05902                   
05903 05039 16 00057.0  	AND	FASE70
05904 05040 16 00075.3    AND STAP_1  !fasedoorstappuls
05905 05041 09 00056.3  	SET1	FASE71
05906 05042 08 00057.0  	SET0	FASE70
05907                   
05908 05043 16 00057.1  	AND	FASE69
05909 05044 16 00075.3    AND STAP_1  !fasedoorstappuls
05910 05045 09 00057.0  	SET1	FASE70
05911 05046 08 00057.1  	SET0	FASE69
05912                   
05913 05047 16 00057.2  	AND	FASE68
05914 05048 16 00075.3    AND STAP_1  !fasedoorstappuls
05915 05049 09 00057.1  	SET1	FASE69
05916 05050 08 00057.2  	SET0	FASE68
05917                   
05918 05051 16 00057.3  	AND	FASE67
05919 05052 16 00075.3    AND STAP_1  !fasedoorstappuls
05920 05053 09 00057.2  	SET1	FASE68
05921 05054 08 00057.3  	SET0	FASE67
05922                   
05923 05055 16 00058.0  	AND	FASE66
05924 05056 16 00075.3    AND STAP_1  !fasedoorstappuls
05925 05057 09 00057.3  	SET1	FASE67
05926 05058 08 00058.0  	SET0	FASE66
05927                   
05928 05059 16 00058.1  	AND	FASE65
05929 05060 16 00075.3    AND STAP_1  !fasedoorstappuls
05930 05061 09 00058.0  	SET1	FASE66
05931 05062 08 00058.1  	SET0	FASE65
05932                   
05933 05063 16 00058.2  	AND	FASE64
05934 05064 16 00075.3    AND STAP_1  !fasedoorstappuls
05935 05065 09 00058.1  	SET1	FASE65
05936 05066 08 00058.2  	SET0	FASE64
05937                   
05938 05067 16 00058.3  	AND	FASE63
05939 05068 16 00075.3    AND STAP_1  !fasedoorstappuls
05940 05069 09 00058.2  	SET1	FASE64
05941 05070 08 00058.3  	SET0	FASE63
05942                   
05943 05071 16 00059.0  	AND	FASE62
05944 05072 16 00075.3    AND STAP_1  !fasedoorstappuls
05945 05073 09 00058.3  	SET1	FASE63
05946 05074 08 00059.0  	SET0	FASE62
05947                   
05948 05075 16 00059.1  	AND	FASE61
05949 05076 16 00075.3    AND STAP_1  !fasedoorstappuls
05950 05077 09 00059.0  	SET1	FASE62
05951 05078 08 00059.1  	SET0	FASE61
05952                   
05953 05079 16 00059.2  	AND	FASE60
05954 05080 16 00075.3    AND STAP_1  !fasedoorstappuls
05955 05081 09 00059.1  	SET1	FASE61
05956 05082 08 00059.2  	SET0	FASE60
05957                   
05958 05083 16 00059.3  	AND	FASE59
05959 05084 16 00075.3    AND STAP_1  !fasedoorstappuls
05960 05085 09 00059.2  	SET1	FASE60
05961 05086 08 00059.3  	SET0	FASE59
05962                   
05963 05087 16 00060.0  	AND	FASE58
05964 05088 16 00075.3    AND STAP_1  !fasedoorstappuls
05965 05089 09 00059.3  	SET1	FASE59
05966 05090 08 00060.0  	SET0	FASE58
05967                   
05968 05091 16 00060.1  	AND	FASE57
05969 05092 16 00075.3    AND STAP_1  !fasedoorstappuls
05970 05093 09 00060.0  	SET1	FASE58
05971 05094 08 00060.1  	SET0	FASE57
05972                   
05973 05095 16 00060.2  	AND	FASE56
05974 05096 16 00075.3    AND STAP_1  !fasedoorstappuls
05975 05097 09 00060.1  	SET1	FASE57
05976 05098 08 00060.2  	SET0	FASE56
05977                   
05978 05099 16 00060.3  	AND	FASE55
05979 05100 16 00075.3    AND STAP_1  !fasedoorstappuls
05980 05101 09 00060.2  	SET1	FASE56
05981 05102 08 00060.3  	SET0	FASE55
05982                   
05983 05103 16 00061.0  	AND	FASE54
05984 05104 16 00075.3    AND STAP_1  !fasedoorstappuls
05985 05105 09 00060.3  	SET1	FASE55
05986 05106 08 00061.0  	SET0	FASE54
05987                   
05988 05107 16 00061.1  	AND	FASE53
05989 05108 16 00075.3    AND STAP_1  !fasedoorstappuls
05990 05109 09 00061.0  	SET1	FASE54
05991 05110 08 00061.1  	SET0	FASE53
05992                   
05993 05111 16 00061.2  	AND	FASE52
05994 05112 16 00075.3    AND STAP_1  !fasedoorstappuls
05995 05113 09 00061.1  	SET1	FASE53
05996 05114 08 00061.2  	SET0	FASE52
05997                   
05998 05115 16 00061.3  	AND	FASE51
05999 05116 16 00075.3    AND STAP_1  !fasedoorstappuls
06000 05117 09 00061.2  	SET1	FASE52
06001 05118 08 00061.3  	SET0	FASE51
06002                   
06003 05119 16 00062.0  	AND	FASE50
06004 05120 16 00075.3    AND STAP_1  !fasedoorstappuls
06005 05121 09 00061.3  	SET1	FASE51
06006 05122 08 00062.0  	SET0	FASE50
06007                   
06008 05123 16 00062.1  	AND	FASE49
06009 05124 16 00075.3    AND STAP_1  !fasedoorstappuls
06010 05125 09 00062.0  	SET1	FASE50
06011 05126 08 00062.1  	SET0	FASE49
06012                   
06013 05127 16 00062.2  	AND	FASE48
06014 05128 16 00075.3    AND STAP_1  !fasedoorstappuls
06015 05129 09 00062.1  	SET1	FASE49
06016 05130 08 00062.2  	SET0	FASE48
06017                   
06018 05131 16 00062.3  	AND	FASE47
06019 05132 16 00075.3    AND STAP_1  !fasedoorstappuls
06020 05133 09 00062.2  	SET1	FASE48
06021 05134 08 00062.3  	SET0	FASE47
06022                   
06023 05135 16 00063.0  	AND	FASE46
06024 05136 16 00075.3    AND STAP_1  !fasedoorstappuls
06025 05137 09 00062.3  	SET1	FASE47
06026 05138 08 00063.0  	SET0	FASE46
06027                   
06028 05139 16 00063.1  	AND	FASE45
06029 05140 16 00075.3    AND STAP_1  !fasedoorstappuls
06030 05141 09 00063.0  	SET1	FASE46
06031 05142 08 00063.1  	SET0	FASE45
06032                   
06033 05143 16 00063.2  	AND	FASE44
06034 05144 16 00075.3    AND STAP_1  !fasedoorstappuls
06035 05145 09 00063.1  	SET1	FASE45
06036 05146 08 00063.2  	SET0	FASE44
06037                   
06038 05147 16 00063.3  	AND	FASE43
06039 05148 16 00075.3    AND STAP_1  !fasedoorstappuls
06040 05149 09 00063.2  	SET1	FASE44
06041 05150 08 00063.3  	SET0	FASE43
06042                   
06043 05151 16 00064.0  	AND	FASE42
06044 05152 16 00075.3    AND STAP_1  !fasedoorstappuls
06045 05153 09 00063.3  	SET1	FASE43
06046 05154 08 00064.0  	SET0	FASE42
06047                   
06048 05155 16 00064.1  	AND	FASE41
06049 05156 16 00075.3    AND STAP_1  !fasedoorstappuls
06050 05157 09 00064.0  	SET1	FASE42
06051 05158 08 00064.1  	SET0	FASE41
06052                   
06053 05159 16 00064.2  	AND	FASE40
06054 05160 16 00075.3    AND STAP_1  !fasedoorstappuls
06055 05161 09 00064.1  	SET1	FASE41
06056 05162 08 00064.2  	SET0	FASE40
06057                   
06058 05163 16 00064.3  	AND	FASE39
06059 05164 16 00075.3    AND STAP_1  !fasedoorstappuls
06060 05165 09 00064.2  	SET1	FASE40
06061 05166 08 00064.3  	SET0	FASE39
06062                   
06063 05167 16 00065.0  	AND	FASE38
06064 05168 16 00075.3    AND STAP_1  !fasedoorstappuls
06065 05169 09 00064.3  	SET1	FASE39
06066 05170 08 00065.0  	SET0	FASE38
06067                   
06068 05171 16 00065.1  	AND	FASE37
06069 05172 16 00075.3    AND STAP_1  !fasedoorstappuls
06070 05173 09 00065.0  	SET1	FASE38
06071 05174 08 00065.1  	SET0	FASE37
06072                   
06073 05175 16 00065.2  	AND	FASE36
06074 05176 16 00075.3    AND STAP_1  !fasedoorstappuls
06075 05177 09 00065.1  	SET1	FASE37
06076 05178 08 00065.2  	SET0	FASE36
06077                   
06078 05179 16 00065.3  	AND	FASE35
06079 05180 16 00075.3    AND STAP_1  !fasedoorstappuls
06080 05181 09 00065.2  	SET1	FASE36
06081 05182 08 00065.3  	SET0	FASE35
06082                   
06083 05183 16 00066.0  	AND	FASE34
06084 05184 16 00075.3    AND STAP_1  !fasedoorstappuls
06085 05185 09 00065.3  	SET1	FASE35
06086 05186 08 00066.0  	SET0	FASE34
06087                   
06088 05187 16 00066.1  	AND	FASE33
06089 05188 16 00075.3    AND STAP_1  !fasedoorstappuls
06090 05189 09 00066.0  	SET1	FASE34
06091 05190 08 00066.1  	SET0	FASE33
06092                   
06093 05191 16 00066.2  	AND	FASE32
06094 05192 16 00075.3    AND STAP_1  !fasedoorstappuls
06095 05193 09 00066.1  	SET1	FASE33
06096 05194 08 00066.2  	SET0	FASE32
06097                   
06098 05195 16 00066.3  	AND	FASE31
06099 05196 16 00075.3    AND STAP_1  !fasedoorstappuls
06100 05197 09 00066.2  	SET1	FASE32
06101 05198 08 00066.3  	SET0	FASE31
06102                   
06103 05199 16 00067.0  	AND	FASE30
06104 05200 16 00075.3    AND STAP_1  !fasedoorstappuls
06105 05201 09 00066.3  	SET1	FASE31
06106 05202 08 00067.0  	SET0	FASE30
06107                   
06108 05203 16 00067.1  	AND	FASE29
06109 05204 16 00075.3    AND STAP_1  !fasedoorstappuls
06110 05205 09 00067.0  	SET1	FASE30
06111 05206 08 00067.1  	SET0	FASE29
06112                   
06113 05207 16 00067.2  	AND	FASE28
06114 05208 16 00075.3    AND STAP_1  !fasedoorstappuls
06115 05209 09 00067.1  	SET1	FASE29
06116 05210 08 00067.2  	SET0	FASE28
06117                   
06118 05211 16 00067.3  	AND	FASE27
06119 05212 16 00075.3    AND STAP_1  !fasedoorstappuls
06120 05213 09 00067.2  	SET1	FASE28
06121 05214 08 00067.3  	SET0	FASE27
06122                   
06123 05215 16 00068.0  	AND	FASE26
06124 05216 16 00075.3    AND STAP_1  !fasedoorstappuls
06125 05217 09 00067.3  	SET1	FASE27
06126 05218 08 00068.0  	SET0	FASE26
06127                   
06128 05219 16 00068.1  	AND	FASE25
06129 05220 16 00075.3    AND STAP_1  !fasedoorstappuls
06130 05221 09 00068.0  	SET1	FASE26
06131 05222 08 00068.1  	SET0	FASE25
06132                   
06133 05223 16 00068.2  	AND	FASE24
06134 05224 16 00075.3    AND STAP_1  !fasedoorstappuls
06135 05225 09 00068.1  	SET1	FASE25
06136 05226 08 00068.2  	SET0	FASE24
06137                   
06138 05227 16 00068.3  	AND	FASE23
06139 05228 16 00075.3    AND STAP_1  !fasedoorstappuls
06140 05229 09 00068.2  	SET1	FASE24
06141 05230 08 00068.3  	SET0	FASE23
06142                   
06143 05231 16 00069.0  	AND	FASE22
06144 05232 16 00075.3    AND STAP_1  !fasedoorstappuls
06145 05233 09 00068.3  	SET1	FASE23
06146 05234 08 00069.0  	SET0	FASE22
06147                   
06148 05235 16 00069.1  	AND	FASE21
06149 05236 16 00075.3    AND STAP_1  !fasedoorstappuls
06150 05237 09 00069.0  	SET1	FASE22
06151 05238 08 00069.1  	SET0	FASE21
06152                   
06153 05239 16 00069.2  	AND	FASE20
06154 05240 16 00075.3    AND STAP_1  !fasedoorstappuls
06155 05241 09 00069.1  	SET1	FASE21
06156 05242 08 00069.2  	SET0	FASE20
06157                   
06158 05243 16 00069.3  	AND	FASE19
06159 05244 16 00075.3    AND STAP_1  !fasedoorstappuls
06160 05245 09 00069.2  	SET1	FASE20
06161 05246 08 00069.3  	SET0	FASE19
06162                   
06163 05247 16 00070.0  	AND	FASE18
06164 05248 16 00075.3    AND STAP_1  !fasedoorstappuls
06165 05249 09 00069.3  	SET1	FASE19
06166 05250 08 00070.0  	SET0	FASE18
06167                   
06168 05251 16 00070.1  	AND	FASE17
06169 05252 16 00075.3    AND STAP_1  !fasedoorstappuls
06170 05253 09 00070.0  	SET1	FASE18
06171 05254 08 00070.1  	SET0	FASE17
06172                   
06173 05255 16 00070.2  	AND	FASE16
06174 05256 16 00075.3    AND STAP_1  !fasedoorstappuls
06175 05257 09 00070.1  	SET1	FASE17
06176 05258 08 00070.2  	SET0	FASE16
06177                   
06178 05259 16 00070.3  	AND	FASE15
06179 05260 16 00075.3    AND STAP_1  !fasedoorstappuls
06180 05261 09 00070.2  	SET1	FASE16
06181 05262 08 00070.3  	SET0	FASE15
06182                   
06183 05263 16 00071.0  	AND	FASE14
06184 05264 16 00075.3    AND STAP_1  !fasedoorstappuls
06185 05265 09 00070.3  	SET1	FASE15
06186 05266 08 00071.0  	SET0	FASE14
06187                   
06188 05267 16 00071.1  	AND	FASE13
06189 05268 16 00075.3    AND STAP_1  !fasedoorstappuls
06190 05269 09 00071.0  	SET1	FASE14
06191 05270 08 00071.1  	SET0	FASE13
06192                   
06193 05271 16 00071.2  	AND	FASE12
06194 05272 16 00075.3    AND STAP_1  !fasedoorstappuls
06195 05273 09 00071.1  	SET1	FASE13
06196 05274 08 00071.2  	SET0	FASE12
06197                   
06198 05275 16 00071.3  	AND	FASE11
06199 05276 16 00075.3    AND STAP_1  !fasedoorstappuls
06200 05277 09 00071.2  	SET1	FASE12
06201 05278 08 00071.3  	SET0	FASE11
06202                   
06203 05279 16 00072.0  	AND	FASE10
06204 05280 16 00075.3    AND STAP_1  !fasedoorstappuls
06205 05281 09 00071.3  	SET1	FASE11
06206 05282 08 00072.0  	SET0	FASE10
06207                   
06208 05283 16 00072.1  	AND	FASE09
06209 05284 16 00075.3    AND STAP_1  !fasedoorstappuls
06210 05285 09 00072.0  	SET1	FASE10
06211 05286 08 00072.1  	SET0	FASE09
06212                   
06213 05287 16 00072.2  	AND	FASE08
06214 05288 16 00075.3    AND STAP_1  !fasedoorstappuls
06215 05289 09 00072.1  	SET1	FASE09
06216 05290 08 00072.2  	SET0	FASE08
06217                   
06218 05291 16 00072.3  	AND	FASE07
06219 05292 16 00075.3    AND STAP_1  !fasedoorstappuls
06220 05293 09 00072.2  	SET1	FASE08
06221 05294 08 00072.3  	SET0	FASE07
06222                   
06223 05295 16 00073.0  	AND	FASE06
06224 05296 16 00075.3    AND STAP_1  !fasedoorstappuls
06225 05297 09 00072.3  	SET1	FASE07
06226 05298 08 00073.0  	SET0	FASE06
06227                   
06228 05299 16 00073.1  	AND	FASE05
06229 05300 16 00075.3    AND STAP_1  !fasedoorstappuls
06230 05301 09 00073.0  	SET1	FASE06
06231 05302 08 00073.1  	SET0	FASE05
06232                   
06233 05303 16 00073.2  	AND	FASE04
06234 05304 16 00075.3    AND STAP_1  !fasedoorstappuls
06235 05305 09 00073.1  	SET1	FASE05
06236 05306 08 00073.2  	SET0	FASE04
06237                   
06238 05307 16 00073.3  	AND	FASE03
06239 05308 16 00075.3    AND STAP_1  !fasedoorstappuls
06240 05309 09 00073.2  	SET1	FASE04
06241 05310 08 00073.3  	SET0	FASE03
06242                   
06243 05311 16 00074.0  	AND	FASE02
06244 05312 16 00075.3    AND STAP_1  !fasedoorstappuls
06245 05313 09 00073.3  	SET1	FASE03
06246 05314 08 00074.0  	SET0	FASE02
06247                   
06248 05315 16 00074.1  	AND	FASE01
06249 05316 16 00075.3    AND STAP_1  !fasedoorstappuls
06250 05317 09 00074.0  	SET1	FASE02
06251 05318 08 00074.1  	SET0	FASE01
06252                   
06253 05319 17 00055.0  	ANDNT	FASE78
06254 05320 01 00077.3  	TRIG	PULS78	!triggerpuls einde fase 78
06255 05321 02 00078.0  	EQL	STAP01	!doorstappuls fase 78 naar fase 01
06256                   
06257 05322 16 00076.1    AND ST_AANW !storing aanwezig ?
06258 05323 16 00075.3    AND STAP_1  !fasedoorstappuls
06259 05324 16 00078.0  	AND	STAP01	!doorstappuls fase 78 naar fase 01
06260 05325 01 00077.0  	TRIG	STAPPULS	!triggerpuls rondstap
06261 05326 02 00076.3  	EQL	RONDSTAP	!stap van fase 78 naar fase 01
06262                   
06263 05327 16 00076.1    AND ST_AANW !storing aanwezig ?
06264 05328 01 00077.1  	TRIG	STARTP	!triggerpuls start
06265 05329 02 00076.0  	EQL	START	!start storingcode's naar lichtkrant
06266                   
06267 05330 16 00076.3  	AND	RONDSTAP	!stap van fase 78 naar fase 01
06268 05331 18 00076.0  	OR	START	!start storingcode's naar lichtkrant
06269 05332 09 00074.1  	SET1	FASE01
06270                   
06271 05333 16 00075.3    AND STAP_1  !fasedoorstappuls
06272 05334 16 00075.0  	AND	TIMER01
06273 05335 18 00076.0  	OR	START	!start storingcode's naar lichtkrant
06274 05336 12 00002    	FTCHC	02
06275 05337 12 00000    	FTCHC	00
06276 05338 12 00000    	FTCHC	00
06277 05339 12 00000    	FTCHC	00
06278 05340 14 01496    	STRD	DSP99_0	!display 99 eenheden
06279 05341 14 01497    	STRD	DSP99_1	!display 99 tientallen
06280 05342 14 01498    	STRD	DSP99_2	!display 99 honderdtallen
06281 05343 14 01499    	STRD	DSP99_3	!display 99 duizendtallen
06282 05344 08 00075.0  	SET0	TIMER01
06283 05345 03 00075.3    EQLNT STAP_1  !fasedoorstappuls
06284                   
06285 05346 16 00001.1  	AND	KNIPPER
06286 05347 17 00075.0  	ANDNT	TIMER01
06287 05348 16 00076.1    AND ST_AANW !storing aanwezig ?
06288 05349 01 00076.2  	TRIG	TRIGTIM	!triggerpuls timer01
06289 05350 06 01496    	CNTD	DSP99_0	!display 99 eenheden
06290 05351 06 01497    	CNTD	DSP99_1	!display 99 tientallen
06291 05352 06 01498    	CNTD	DSP99_2	!display 99 honderdtallen
06292 05353 06 01499    	CNTD	DSP99_3	!display 99 duizendtallen
06293 05354 10 00075.0  	STRB	TIMER01
06294                   
06295 05355 16 00074.1  	AND	FASE01
06296 05356 17 00220.0  	ANDNT	VERGR01
06297 05357 02 00080.0  	EQL	VRIJG01	!vrijgave fase
06298                   
06299 05358 16 00074.0  	AND	FASE02
06300 05359 17 00220.1  	ANDNT	VERGR02	!stuurlucht gestoord
06301 05360 02 00080.1  	EQL	VRIJG02	!vrijgave fase
06302                   
06303 05361 16 00073.3  	AND	FASE03
06304 05362 17 00220.2  	ANDNT	VERGR03	!stuurspanning gestoord
06305 05363 02 00080.2  	EQL	VRIJG03	!vrijgave fase
06306                   
06307 05364 16 00073.2  	AND	FASE04
06308 05365 17 00220.3  	ANDNT	VERGR04
06309 05366 02 00080.3  	EQL	VRIJG04	!vrijgave fase
06310                   
06311 05367 16 00073.1  	AND	FASE05
06312 05368 17 00221.0  	ANDNT	VERGR05	!vuilwater tank leeg
06313 05369 02 00081.0  	EQL	VRIJG05	!vrijgave fase
06314                   
06315 05370 16 00073.0  	AND	FASE06
06316 05371 17 00221.1  	ANDNT	VERGR06
06317 05372 02 00081.1  	EQL	VRIJG06	!vrijgave fase
06318                   
06319 05373 16 00072.3  	AND	FASE07
06320 05374 17 00221.2  	ANDNT	VERGR07
06321 05375 02 00081.2  	EQL	VRIJG07	!vrijgave fase
06322                   
06323 05376 16 00072.2  	AND	FASE08
06324 05377 17 00221.3  	ANDNT	VERGR08
06325 05378 02 00081.3  	EQL	VRIJG08	!vrijgave fase
06326                   
06327 05379 16 00072.1  	AND	FASE09
06328 05380 17 00222.0  	ANDNT	VERGR09
06329 05381 02 00082.0  	EQL	VRIJG09	!vrijgave fase
06330                   
06331 05382 16 00072.0  	AND	FASE10
06332 05383 17 00222.1  	ANDNT	VERGR10
06333 05384 02 00082.1  	EQL	VRIJG10	!vrijgave fase
06334                   
06335 05385 16 00071.3  	AND	FASE11
06336 05386 17 00222.2  	ANDNT	VERGR11
06337 05387 02 00082.2  	EQL	VRIJG11	!vrijgave fase
06338                   
06339 05388 16 00071.2  	AND	FASE12
06340 05389 17 00222.3  	ANDNT	VERGR12
06341 05390 02 00082.3  	EQL	VRIJG12	!vrijgave fase
06342                   
06343 05391 16 00071.1  	AND	FASE13
06344 05392 17 00223.0  	ANDNT	VERGR13
06345 05393 02 00083.0  	EQL	VRIJG13	!vrijgave fase
06346                   
06347 05394 16 00071.0  	AND	FASE14
06348 05395 17 00223.1  	ANDNT	VERGR14
06349 05396 02 00083.1  	EQL	VRIJG14	!vrijgave fase
06350                   
06351 05397 16 00070.3  	AND	FASE15
06352 05398 17 00223.2  	ANDNT	VERGR15
06353 05399 02 00083.2  	EQL	VRIJG15	!vrijgave fase
06354                   
06355 05400 16 00070.2  	AND	FASE16
06356 05401 17 00223.3  	ANDNT	VERGR16
06357 05402 02 00083.3  	EQL	VRIJG16	!vrijgave fase
06358                   
06359 05403 16 00070.1  	AND	FASE17
06360 05404 17 00224.0  	ANDNT	VERGR17
06361 05405 02 00084.0  	EQL	VRIJG17	!vrijgave fase
06362                   
06363 05406 16 00070.0  	AND	FASE18
06364 05407 17 00224.1  	ANDNT	VERGR18
06365 05408 02 00084.1  	EQL	VRIJG18	!vrijgave fase
06366                   
06367 05409 16 00069.3  	AND	FASE19
06368 05410 17 00224.2  	ANDNT	VERGR19
06369 05411 02 00084.2  	EQL	VRIJG19	!vrijgave fase
06370                   
06371 05412 16 00069.2  	AND	FASE20
06372 05413 17 00224.3  	ANDNT	VERGR20
06373 05414 02 00084.3  	EQL	VRIJG20	!vrijgave fase
06374                   
06375 05415 16 00069.1  	AND	FASE21
06376 05416 17 00225.0  	ANDNT	VERGR21
06377 05417 02 00085.0  	EQL	VRIJG21	!vrijgave fase
06378                   
06379 05418 16 00069.0  	AND	FASE22
06380 05419 17 00225.1  	ANDNT	VERGR22
06381 05420 02 00085.1  	EQL	VRIJG22	!vrijgave fase
06382                   
06383 05421 16 00068.3  	AND	FASE23
06384 05422 17 00225.2  	ANDNT	VERGR23
06385 05423 02 00085.2  	EQL	VRIJG23	!vrijgave fase
06386                   
06387 05424 16 00068.2  	AND	FASE24
06388 05425 17 00225.3  	ANDNT	VERGR24
06389 05426 02 00085.3  	EQL	VRIJG24	!vrijgave fase
06390                   
06391 05427 16 00068.1  	AND	FASE25
06392 05428 17 00226.0  	ANDNT	VERGR25
06393 05429 02 00086.0  	EQL	VRIJG25	!vrijgave fase
06394                   
06395 05430 16 00068.0  	AND	FASE26
06396 05431 17 00226.1  	ANDNT	VERGR26
06397 05432 02 00086.1  	EQL	VRIJG26	!vrijgave fase
06398                   
06399 05433 16 00067.3  	AND	FASE27
06400 05434 17 00226.2  	ANDNT	VERGR27
06401 05435 02 00086.2  	EQL	VRIJG27	!vrijgave fase
06402                   
06403 05436 16 00067.2  	AND	FASE28
06404 05437 17 00226.3  	ANDNT	VERGR28
06405 05438 02 00086.3  	EQL	VRIJG28	!vrijgave fase
06406                   
06407 05439 16 00067.1  	AND	FASE29
06408 05440 17 00227.0  	ANDNT	VERGR29
06409 05441 02 00087.0  	EQL	VRIJG29	!vrijgave fase
06410                   
06411 05442 16 00067.0  	AND	FASE30
06412 05443 17 00227.1  	ANDNT	VERGR30
06413 05444 02 00087.1  	EQL	VRIJG30	!vrijgave fase
06414                   
06415 05445 16 00066.3  	AND	FASE31
06416 05446 17 00227.2  	ANDNT	VERGR31
06417 05447 02 00087.2  	EQL	VRIJG31	!vrijgave fase
06418                   
06419 05448 16 00066.2  	AND	FASE32
06420 05449 17 00227.3  	ANDNT	VERGR32
06421 05450 02 00087.3  	EQL	VRIJG32	!vrijgave fase
06422                   
06423 05451 16 00066.1  	AND	FASE33
06424 05452 17 00228.0  	ANDNT	VERGR33
06425 05453 02 00088.0  	EQL	VRIJG33	!vrijgave fase
06426                   
06427 05454 16 00066.0  	AND	FASE34
06428 05455 17 00228.1  	ANDNT	VERGR34
06429 05456 02 00088.1  	EQL	VRIJG34	!vrijgave fase
06430                   
06431 05457 16 00065.3  	AND	FASE35
06432 05458 17 00228.2  	ANDNT	VERGR35
06433 05459 02 00088.2  	EQL	VRIJG35	!vrijgave fase
06434                   
06435 05460 16 00065.2  	AND	FASE36
06436 05461 17 00228.3  	ANDNT	VERGR36
06437 05462 02 00088.3  	EQL	VRIJG36	!vrijgave fase
06438                   
06439 05463 16 00065.1  	AND	FASE37
06440 05464 17 00229.0  	ANDNT	VERGR37	!hoge druk alarm P10
06441 05465 02 00089.0  	EQL	VRIJG37	!vrijgave fase
06442                   
06443 05466 16 00065.0  	AND	FASE38
06444 05467 17 00229.1  	ANDNT	VERGR38
06445 05468 02 00089.1  	EQL	VRIJG38	!vrijgave fase
06446                   
06447 05469 16 00064.3  	AND	FASE39
06448 05470 17 00229.2  	ANDNT	VERGR39
06449 05471 02 00089.2  	EQL	VRIJG39	!vrijgave fase
06450                   
06451 05472 16 00064.2  	AND	FASE40
06452 05473 17 00229.3  	ANDNT	VERGR40
06453 05474 02 00089.3  	EQL	VRIJG40	!vrijgave fase
06454                   
06455 05475 16 00064.1  	AND	FASE41
06456 05476 17 00230.0  	ANDNT	VERGR41
06457 05477 02 00090.0  	EQL	VRIJG41	!vrijgave fase
06458                   
06459 05478 16 00064.0  	AND	FASE42
06460 05479 17 00230.1  	ANDNT	VERGR42
06461 05480 02 00090.1  	EQL	VRIJG42	!vrijgave fase
06462                   
06463 05481 16 00063.3  	AND	FASE43
06464 05482 17 00230.2  	ANDNT	VERGR43	!druk vuilproceswater
06465 05483 02 00090.2  	EQL	VRIJG43	!vrijgave fase
06466                   
06467 05484 16 00063.2  	AND	FASE44
06468 05485 17 00230.3  	ANDNT	VERGR44	!rho proceswater
06469 05486 02 00090.3  	EQL	VRIJG44	!vrijgave fase
06470                   
06471 05487 16 00063.1  	AND	FASE45
06472 05488 17 00231.0  	ANDNT	VERGR45	!lage flow alarm vuilproceswater
06473 05489 02 00091.0  	EQL	VRIJG45	!vrijgave fase
06474                   
06475 05490 16 00063.0  	AND	FASE46
06476 05491 17 00231.1  	ANDNT	VERGR46	!regeneratie cmf niet op tijd gevuld
06477 05492 02 00091.1  	EQL	VRIJG46	!vrijgave fase
06478                   
06479 05493 16 00062.3  	AND	FASE47
06480 05494 17 00231.2  	ANDNT	VERGR47	!regeneratie cmf niet op tijd geledigd
06481 05495 02 00091.2  	EQL	VRIJG47	!vrijgave fase
06482                   
06483 05496 16 00062.2  	AND	FASE48
06484 05497 17 00231.3  	ANDNT	VERGR48
06485 05498 02 00091.3  	EQL	VRIJG48	!vrijgave fase
06486                   
06487 05499 16 00062.1  	AND	FASE49
06488 05500 17 00232.0  	ANDNT	VERGR49
06489 05501 02 00092.0  	EQL	VRIJG49	!vrijgave fase
06490                   
06491 05502 16 00062.0  	AND	FASE50
06492 05503 17 00232.1  	ANDNT	VERGR50
06493 05504 02 00092.1  	EQL	VRIJG50	!vrijgave fase
06494                   
06495 05505 16 00061.3  	AND	FASE51
06496 05506 17 00232.2  	ANDNT	VERGR51
06497 05507 02 00092.2  	EQL	VRIJG51	!vrijgave fase
06498                   
06499 05508 16 00061.2  	AND	FASE52
06500 05509 17 00232.3  	ANDNT	VERGR52
06501 05510 02 00092.3  	EQL	VRIJG52	!vrijgave fase
06502                   
06503 05511 16 00061.1  	AND	FASE53
06504 05512 17 00233.0  	ANDNT	VERGR53
06505 05513 02 00093.0  	EQL	VRIJG53	!vrijgave fase
06506                   
06507 05514 16 00061.0  	AND	FASE54
06508 05515 17 00233.1  	ANDNT	VERGR54
06509 05516 02 00093.1  	EQL	VRIJG54	!vrijgave fase
06510                   
06511 05517 16 00060.3  	AND	FASE55
06512 05518 17 00233.2  	ANDNT	VERGR55
06513 05519 02 00093.2  	EQL	VRIJG55	!vrijgave fase
06514                   
06515 05520 16 00060.2  	AND	FASE56
06516 05521 17 00233.3  	ANDNT	VERGR56
06517 05522 02 00093.3  	EQL	VRIJG56	!vrijgave fase
06518                   
06519 05523 16 00060.1  	AND	FASE57
06520 05524 17 00234.0  	ANDNT	VERGR57
06521 05525 02 00094.0  	EQL	VRIJG57	!vrijgave fase
06522                   
06523 05526 16 00060.0  	AND	FASE58
06524 05527 17 00234.1  	ANDNT	VERGR58
06525 05528 02 00094.1  	EQL	VRIJG58	!vrijgave fase
06526                   
06527 05529 16 00059.3  	AND	FASE59
06528 05530 17 00234.2  	ANDNT	VERGR59
06529 05531 02 00094.2  	EQL	VRIJG59	!vrijgave fase
06530                   
06531 05532 16 00059.2  	AND	FASE60
06532 05533 17 00234.3  	ANDNT	VERGR60
06533 05534 02 00094.3  	EQL	VRIJG60	!vrijgave fase
06534                   
06535 05535 16 00059.1  	AND	FASE61
06536 05536 17 00235.0  	ANDNT	VERGR61
06537 05537 02 00095.0  	EQL	VRIJG61	!vrijgave fase
06538                   
06539 05538 16 00059.0  	AND	FASE62
06540 05539 17 00235.1  	ANDNT	VERGR62
06541 05540 02 00095.1  	EQL	VRIJG62	!vrijgave fase
06542                   
06543 05541 16 00058.3  	AND	FASE63
06544 05542 17 00235.2  	ANDNT	VERGR63
06545 05543 02 00095.2  	EQL	VRIJG63	!vrijgave fase
06546                   
06547 05544 16 00058.2  	AND	FASE64
06548 05545 17 00235.3  	ANDNT	VERGR64
06549 05546 02 00095.3  	EQL	VRIJG64	!vrijgave fase
06550                   
06551 05547 16 00058.1  	AND	FASE65
06552 05548 17 00236.0  	ANDNT	VERGR65
06553 05549 02 00096.0  	EQL	VRIJG65	!vrijgave fase
06554                   
06555 05550 16 00058.0  	AND	FASE66
06556 05551 17 00236.1  	ANDNT	VERGR66
06557 05552 02 00096.1  	EQL	VRIJG66	!vrijgave fase
06558                   
06559 05553 16 00057.3  	AND	FASE67
06560 05554 17 00236.2  	ANDNT	VERGR67
06561 05555 02 00096.2  	EQL	VRIJG67	!vrijgave fase
06562                   
06563 05556 16 00057.2  	AND	FASE68
06564 05557 17 00236.3  	ANDNT	VERGR68
06565 05558 02 00096.3  	EQL	VRIJG68	!vrijgave fase
06566                   
06567 05559 16 00057.1  	AND	FASE69
06568 05560 17 00237.0  	ANDNT	VERGR69
06569 05561 02 00097.0  	EQL	VRIJG69	!vrijgave fase
06570                   
06571 05562 16 00057.0  	AND	FASE70
06572 05563 17 00237.1  	ANDNT	VERGR70
06573 05564 02 00097.1  	EQL	VRIJG70	!vrijgave fase
06574                   
06575 05565 16 00056.3  	AND	FASE71
06576 05566 17 00237.2  	ANDNT	VERGR71
06577 05567 02 00097.2  	EQL	VRIJG71	!vrijgave fase
06578                   
06579 05568 16 00056.2  	AND	FASE72
06580 05569 17 00237.3  	ANDNT	VERGR72
06581 05570 02 00097.3  	EQL	VRIJG72	!vrijgave fase
06582                   
06583 05571 16 00056.1  	AND	FASE73
06584 05572 17 00238.0  	ANDNT	VERGR73
06585 05573 02 00098.0  	EQL	VRIJG73	!vrijgave fase
06586                   
06587 05574 16 00056.0  	AND	FASE74
06588 05575 17 00238.1  	ANDNT	VERGR74
06589 05576 02 00098.1  	EQL	VRIJG74	!vrijgave fase
06590                   
06591 05577 16 00055.3  	AND	FASE75
06592 05578 17 00238.2  	ANDNT	VERGR75
06593 05579 02 00098.2  	EQL	VRIJG75	!vrijgave fase
06594                   
06595 05580 16 00055.2  	AND	FASE76
06596 05581 17 00238.3  	ANDNT	VERGR76
06597 05582 02 00098.3  	EQL	VRIJG76	!vrijgave fase
06598                   
06599 05583 16 00055.1  	AND	FASE77
06600 05584 17 00239.0  	ANDNT	VERGR77
06601 05585 02 00099.0  	EQL	VRIJG77	!vrijgave fase
06602                   
06603 05586 16 00055.0  	AND	FASE78
06604 05587 17 00239.1  	ANDNT	VERGR78
06605 05588 02 00099.1  	EQL	VRIJG78	!vrijgave fase
06606                   
06607 05589 18 00080.0  	OR	VRIJG01	!vrijgave fase
06608 05590 18 00080.1  	OR	VRIJG02	!vrijgave fase
06609 05591 18 00080.2  	OR	VRIJG03	!vrijgave fase
06610 05592 18 00080.3  	OR	VRIJG04	!vrijgave fase
06611 05593 18 00081.0  	OR	VRIJG05	!vrijgave fase
06612 05594 18 00081.1  	OR	VRIJG06	!vrijgave fase
06613 05595 18 00081.2  	OR	VRIJG07	!vrijgave fase
06614 05596 18 00081.3  	OR	VRIJG08	!vrijgave fase
06615 05597 18 00082.0  	OR	VRIJG09	!vrijgave fase
06616 05598 18 00082.1  	OR	VRIJG10	!vrijgave fase
06617 05599 18 00082.2  	OR	VRIJG11	!vrijgave fase
06618 05600 18 00082.3  	OR	VRIJG12	!vrijgave fase
06619 05601 18 00083.0  	OR	VRIJG13	!vrijgave fase
06620 05602 18 00083.1  	OR	VRIJG14	!vrijgave fase
06621 05603 18 00083.2  	OR	VRIJG15	!vrijgave fase
06622 05604 18 00083.3  	OR	VRIJG16	!vrijgave fase
06623 05605 18 00084.0  	OR	VRIJG17	!vrijgave fase
06624 05606 18 00084.1  	OR	VRIJG18	!vrijgave fase
06625 05607 18 00084.2  	OR	VRIJG19	!vrijgave fase
06626 05608 18 00084.3  	OR	VRIJG20	!vrijgave fase
06627 05609 18 00085.0  	OR	VRIJG21	!vrijgave fase
06628 05610 18 00085.1  	OR	VRIJG22	!vrijgave fase
06629 05611 18 00085.2  	OR	VRIJG23	!vrijgave fase
06630 05612 18 00085.3  	OR	VRIJG24	!vrijgave fase
06631 05613 18 00086.0  	OR	VRIJG25	!vrijgave fase
06632 05614 18 00086.1  	OR	VRIJG26	!vrijgave fase
06633 05615 18 00086.2  	OR	VRIJG27	!vrijgave fase
06634 05616 18 00086.3  	OR	VRIJG28	!vrijgave fase
06635 05617 18 00087.0  	OR	VRIJG29	!vrijgave fase
06636 05618 18 00087.1  	OR	VRIJG30	!vrijgave fase
06637 05619 18 00087.2  	OR	VRIJG31	!vrijgave fase
06638 05620 18 00087.3  	OR	VRIJG32	!vrijgave fase
06639 05621 18 00088.0  	OR	VRIJG33	!vrijgave fase
06640 05622 18 00088.1  	OR	VRIJG34	!vrijgave fase
06641 05623 18 00088.2  	OR	VRIJG35	!vrijgave fase
06642 05624 18 00088.3  	OR	VRIJG36	!vrijgave fase
06643 05625 18 00089.0  	OR	VRIJG37	!vrijgave fase
06644 05626 18 00089.1  	OR	VRIJG38	!vrijgave fase
06645 05627 18 00089.2  	OR	VRIJG39	!vrijgave fase
06646 05628 18 00089.3  	OR	VRIJG40	!vrijgave fase
06647 05629 18 00090.0  	OR	VRIJG41	!vrijgave fase
06648 05630 18 00090.1  	OR	VRIJG42	!vrijgave fase
06649 05631 18 00090.2  	OR	VRIJG43	!vrijgave fase
06650 05632 18 00090.3  	OR	VRIJG44	!vrijgave fase
06651 05633 18 00091.0  	OR	VRIJG45	!vrijgave fase
06652 05634 18 00091.1  	OR	VRIJG46	!vrijgave fase
06653 05635 18 00091.2  	OR	VRIJG47	!vrijgave fase
06654 05636 18 00091.3  	OR	VRIJG48	!vrijgave fase
06655 05637 18 00092.0  	OR	VRIJG49	!vrijgave fase
06656 05638 18 00092.1  	OR	VRIJG50	!vrijgave fase
06657 05639 18 00092.2  	OR	VRIJG51	!vrijgave fase
06658 05640 18 00092.3  	OR	VRIJG52	!vrijgave fase
06659 05641 18 00093.0  	OR	VRIJG53	!vrijgave fase
06660 05642 18 00093.1  	OR	VRIJG54	!vrijgave fase
06661 05643 18 00093.2  	OR	VRIJG55	!vrijgave fase
06662 05644 18 00093.3  	OR	VRIJG56	!vrijgave fase
06663 05645 18 00094.0  	OR	VRIJG57	!vrijgave fase
06664 05646 18 00094.1  	OR	VRIJG58	!vrijgave fase
06665 05647 18 00094.2  	OR	VRIJG59	!vrijgave fase
06666 05648 18 00094.3  	OR	VRIJG60	!vrijgave fase
06667 05649 18 00095.0  	OR	VRIJG61	!vrijgave fase
06668 05650 18 00095.1  	OR	VRIJG62	!vrijgave fase
06669 05651 18 00095.2  	OR	VRIJG63	!vrijgave fase
06670 05652 18 00095.3  	OR	VRIJG64	!vrijgave fase
06671 05653 18 00096.0  	OR	VRIJG65	!vrijgave fase
06672 05654 18 00096.1  	OR	VRIJG66	!vrijgave fase
06673 05655 18 00096.2  	OR	VRIJG67	!vrijgave fase
06674 05656 18 00096.3  	OR	VRIJG68	!vrijgave fase
06675 05657 18 00097.0  	OR	VRIJG69	!vrijgave fase
06676 05658 18 00097.1  	OR	VRIJG70	!vrijgave fase
06677 05659 18 00097.2  	OR	VRIJG71	!vrijgave fase
06678 05660 18 00097.3  	OR	VRIJG72	!vrijgave fase
06679 05661 18 00098.0  	OR	VRIJG73	!vrijgave fase
06680 05662 18 00098.1  	OR	VRIJG74	!vrijgave fase
06681 05663 18 00098.2  	OR	VRIJG75	!vrijgave fase
06682 05664 18 00098.3  	OR	VRIJG76	!vrijgave fase
06683 05665 18 00099.0  	OR	VRIJG77	!vrijgave fase
06684 05666 18 00099.1  	OR	VRIJG78	!vrijgave fase
06685 05667 02 00077.2  	EQL	FASESPRG	!fase overspringen
06686                   
06687 05668 17 00076.1    ANDNT ST_AANW !storing aanwezig ?
06688 05669 12 00000    	FTCHC	00
06689 05670 14 00055    	STRD	0055
06690 05671 14 00056    	STRD	0056
06691 05672 14 00057    	STRD	0057
06692 05673 14 00058    	STRD	0058
06693 05674 14 00059    	STRD	0059
06694 05675 14 00060    	STRD	0060
06695 05676 14 00061    	STRD	0061
06696 05677 14 00062    	STRD	0062
06697 05678 14 00063    	STRD	0063
06698 05679 14 00064    	STRD	0064
06699 05680 14 00065    	STRD	0065
06700 05681 14 00066    	STRD	0066
06701 05682 14 00067    	STRD	0067
06702 05683 14 00068    	STRD	0068
06703 05684 14 00069    	STRD	0069
06704 05685 14 00070    	STRD	0070
06705 05686 14 00071    	STRD	0071
06706 05687 14 00072    	STRD	0072
06707 05688 14 00073    	STRD	0073
06708 05689 14 00074    	STRD	0074
06709 05690 00          	NOP	110
06709 05691 00 
06709 05692 00 
06709 05693 00 
06709 05694 00 
06709 05695 00 
06709 05696 00 
06709 05697 00 
06709 05698 00 
06709 05699 00 
06709 05700 00 
06709 05701 00 
06709 05702 00 
06709 05703 00 
06709 05704 00 
06709 05705 00 
06709 05706 00 
06709 05707 00 
06709 05708 00 
06709 05709 00 
06709 05710 00 
06709 05711 00 
06709 05712 00 
06709 05713 00 
06709 05714 00 
06709 05715 00 
06709 05716 00 
06709 05717 00 
06709 05718 00 
06709 05719 00 
06709 05720 00 
06709 05721 00 
06709 05722 00 
06709 05723 00 
06709 05724 00 
06709 05725 00 
06709 05726 00 
06709 05727 00 
06709 05728 00 
06709 05729 00 
06709 05730 00 
06709 05731 00 
06709 05732 00 
06709 05733 00 
06709 05734 00 
06709 05735 00 
06709 05736 00 
06709 05737 00 
06709 05738 00 
06709 05739 00 
06709 05740 00 
06709 05741 00 
06709 05742 00 
06709 05743 00 
06709 05744 00 
06709 05745 00 
06709 05746 00 
06709 05747 00 
06709 05748 00 
06709 05749 00 
06709 05750 00 
06709 05751 00 
06709 05752 00 
06709 05753 00 
06709 05754 00 
06709 05755 00 
06709 05756 00 
06709 05757 00 
06709 05758 00 
06709 05759 00 
06709 05760 00 
06709 05761 00 
06709 05762 00 
06709 05763 00 
06709 05764 00 
06709 05765 00 
06709 05766 00 
06709 05767 00 
06709 05768 00 
06709 05769 00 
06709 05770 00 
06709 05771 00 
06709 05772 00 
06709 05773 00 
06709 05774 00 
06709 05775 00 
06709 05776 00 
06709 05777 00 
06709 05778 00 
06709 05779 00 
06709 05780 00 
06709 05781 00 
06709 05782 00 
06709 05783 00 
06709 05784 00 
06709 05785 00 
06709 05786 00 
06709 05787 00 
06709 05788 00 
06709 05789 00 
06709 05790 00 
06709 05791 00 
06709 05792 00 
06709 05793 00 
06709 05794 00 
06709 05795 00 
06709 05796 00 
06709 05797 00 
06709 05798 00 
06709 05799 00 
06710                   !                               DR_DISPL
06711                   !				********
06712                   !
06713 05800 18 00036.0  	OR	BDR0B01	!bedrijfsfase 1
06714 05801 18 00036.2  	OR	BDR0B03	!bedrijfsfase 3
06715 05802 18 00037.0  	OR	BDR0B05	!bedrijfsfase 5
06716 05803 18 00037.2    OR  FASE_7  !fase 7
06717 05804 18 00038.0  	OR	REG0B09	!regeneratiefase 9
06718 05805 18 00038.2  	OR	REG0B11	!regeneratiefase 11
06719 05806 18 00039.0  	OR	REG0B13	!regeneratiefase 13
06720 05807 18 00039.2  	OR	REG0B15	!regeneratiefase 15
06721 05808 18 00040.0  	OR	REG0B17	!regeneratiefase 17
06722 05809 18 00040.2  	OR	REG0B19	!regeneratiefase 19
06723 05810 18 00041.0  	OR	REG0B21	!regeneratiefase 21
06724 05811 18 00041.2  	OR	REG0B23	!regeneratiefase 23
06725 05812 18 00042.0  	OR	REG0B25	!regeneratiefase 25
06726 05813 18 00042.2  	OR	REG0B27	!regeneratiefase 27
06727 05814 18 00043.0  	OR	REG0B29	!regeneratiefase 29
06728 05815 18 00043.2  	OR	REG0B31	!regeneratiefase 31
06729 05816 18 00044.0  	OR	REG0B33	!regeneratiefase 33
06730 05817 18 00400.1  	OR	REG0B61	!regeneratie fase 61
06731 05818 18 00400.3  	OR	REG0B63	!regeneratie fase 63
06732 05819 18 00401.1  	OR	REG0B65	!regeneratie fase 65
06733 05820 02 00380.0  	EQL	DSP0L01	!hulp aansturing display "01"
06734                   
06735 05821 18 00036.1  	OR	BDR0B02	!bedrijfsfase 2
06736 05822 18 00036.2  	OR	BDR0B03	!bedrijfsfase 3
06737 05823 18 00037.1  	OR	BDR0B06	!bedrijfsfase 6
06738 05824 18 00037.2    OR  FASE_7	!fase 7
06739 05825 18 00038.3  	OR	REG0B12	!regeneratiefase 12
06740 05826 18 00039.0  	OR	REG0B13	!regeneratiefase 13
06741 05827 18 00039.3  	OR	REG0B16	!regeneratiefase 16
06742 05828 18 00040.0  	OR	REG0B17	!regeneratiefase 17
06743 05829 18 00041.1  	OR	REG0B22	!regeneratiefase 22
06744 05830 18 00041.2  	OR	REG0B23	!regeneratiefase 23
06745 05831 18 00042.1  	OR	REG0B26	!regeneratiefase 26
06746 05832 18 00042.2  	OR	REG0B27	!regeneratiefase 27
06747 05833 18 00043.3  	OR	REG0B32	!regeneratiefase 32
06748 05834 18 00044.0  	OR	REG0B33	!regeneratiefase 33
06749 05835 18 00400.2  	OR	REG0B62	!regeneratie fase 62
06750 05836 18 00400.3  	OR	REG0B63	!regeneratie fase 63
06751 05837 02 00380.1  	EQL	DSP0L02	!hulp aansturing display "02"
06752                   
06753 05838 18 00036.3  	OR	BDR0B04	!bedrijfsfase 4
06754 05839 18 00037.0  	OR	BDR0B05	!bedrijfsfase 5
06755 05840 18 00037.1  	OR	BDR0B06	!bedrijfsfase 6
06756 05841 18 00037.2    OR  FASE_7	!fase 7
06757 05842 18 00039.1  	OR	REG0B14	!regeneratiefase 14
06758 05843 18 00039.2  	OR	REG0B15	!regeneratiefase 15
06759 05844 18 00039.3  	OR	REG0B16	!regeneratiefase 16
06760 05845 18 00040.0  	OR	REG0B17	!regeneratiefase 17
06761 05846 18 00041.3  	OR	REG0B24	!regeneratiefase 24
06762 05847 18 00042.0  	OR	REG0B25	!regeneratiefase 25
06763 05848 18 00042.1  	OR	REG0B26	!regeneratiefase 26
06764 05849 18 00042.2  	OR	REG0B27	!regeneratiefase 27
06765 05850 18 00044.1  	OR	REG0B34	!regeneratiefase 33.1
06766 05851 18 00401.0  	OR	REG0B64	!regeneratie fase 64
06767 05852 18 00401.1  	OR	REG0B65	!regeneratie fase 65
06768 05853 02 00380.2  	EQL	DSP0L04	!hulp aansturing display "04"
06769                   
06770 05854 18 00037.3  	OR	REG0B08	!regeneratiefase 8
06771 05855 18 00038.0  	OR	REG0B09	!regeneratiefase 9
06772 05856 18 00040.1  	OR	REG0B18	!regeneratiefase 18
06773 05857 18 00040.2  	OR	REG0B19	!regeneratiefase 19
06774 05858 18 00042.3  	OR	REG0B28	!regeneratiefase 28
06775 05859 18 00043.0  	OR	REG0B29	!regeneratiefase 29
06776 05860 18 00044.3  	OR	REG0B88	!aanloopfase 88
06777 05861 02 00380.3  	EQL	DSP0L08	!hulp aansturing display "08"
06778                   
06779 05862 18 00038.1  	OR	REG0B10	!regeneratiefase 10
06780 05863 18 00038.2  	OR	REG0B11	!regeneratiefase 11
06781 05864 18 00038.3  	OR	REG0B12	!regeneratiefase 12
06782 05865 18 00039.0  	OR	REG0B13	!regeneratiefase 13
06783 05866 18 00039.1  	OR	REG0B14	!regeneratiefase 14
06784 05867 18 00039.2  	OR	REG0B15	!regeneratiefase 15
06785 05868 18 00039.3  	OR	REG0B16	!regeneratiefase 16
06786 05869 18 00040.0  	OR	REG0B17	!regeneratiefase 17
06787 05870 18 00040.1  	OR	REG0B18	!regeneratiefase 18
06788 05871 18 00040.2  	OR	REG0B19	!regeneratiefase 19
06789 05872 18 00043.1  	OR	REG0B30	!regeneratiefase 30
06790 05873 18 00043.2  	OR	REG0B31	!regeneratiefase 31
06791 05874 18 00043.3  	OR	REG0B32	!regeneratiefase 32
06792 05875 18 00044.0  	OR	REG0B33	!regeneratiefase 33
06793 05876 18 00044.1  	OR	REG0B34	!regeneratiefase 33.1
06794 05877 02 00381.0  	EQL	DSP0L10	!hulp aansturing display "10"
06795                   
06796 05878 18 00040.3  	OR	REG0B20	!regeneratiefase 20
06797 05879 18 00041.0  	OR	REG0B21	!regeneratiefase 21
06798 05880 18 00041.1  	OR	REG0B22	!regeneratiefase 22
06799 05881 18 00041.2  	OR	REG0B23	!regeneratiefase 23
06800 05882 18 00041.3  	OR	REG0B24	!regeneratiefase 24
06801 05883 18 00042.0  	OR	REG0B25	!regeneratiefase 25
06802 05884 18 00042.1  	OR	REG0B26	!regeneratiefase 26
06803 05885 18 00042.2  	OR	REG0B27	!regeneratiefase 27
06804 05886 18 00042.3  	OR	REG0B28	!regeneratiefase 28
06805 05887 18 00043.0  	OR	REG0B29	!regeneratiefase 29
06806 05888 18 00043.1  	OR	REG0B30	!regeneratiefase 30
06807 05889 18 00043.2  	OR	REG0B31	!regeneratiefase 31
06808 05890 18 00043.3  	OR	REG0B32	!regeneratiefase 32
06809 05891 18 00044.0  	OR	REG0B33	!regeneratiefase 33
06810 05892 18 00044.1  	OR	REG0B34	!regeneratiefase 33.1
06811 05893 18 00400.0  	OR	REG0B60	!regeneratie fase 60
06812 05894 18 00400.1  	OR	REG0B61	!regeneratie fase 61
06813 05895 18 00400.2  	OR	REG0B62	!regeneratie fase 62
06814 05896 18 00400.3  	OR	REG0B63	!regeneratie fase 63
06815 05897 18 00401.0  	OR	REG0B64	!regeneratie fase 64
06816 05898 18 00401.1  	OR	REG0B65	!regeneratie fase 65
06817 05899 02 00381.1  	EQL	DSP0L20	!hulp aansturing display "20"
06818                   
06819 05900 18 00400.0  	OR	REG0B60	!regeneratie fase 60
06820 05901 18 00400.1  	OR	REG0B61	!regeneratie fase 61
06821 05902 18 00400.2  	OR	REG0B62	!regeneratie fase 62
06822 05903 18 00400.3  	OR	REG0B63	!regeneratie fase 63
06823 05904 18 00401.0  	OR	REG0B64	!regeneratie fase 64
06824 05905 18 00401.1  	OR	REG0B65	!regeneratie fase 65
06825 05906 02 00381.2  	EQL	DSP0L40	!hulp aansturing display "40"
06826                   
06827 05907 18 00044.3  	OR	REG0B88	!aanloopfase 88
06828 05908 02 00381.3  	EQL	DSP0L80	!hulp aansturing display "80"
06829                   
06830 05909 16 00380.0  	AND	DSP0L01	!hulp aansturing display "01"
06831 05910 17 00037.2    ANDNT FASE_7	!fase 7
06832 05911 18 00037.2    OR  FASE_7	!fase 7
06833 05912 02 00164.0  	EQL	DISPL01	!aansturing display "01"
06834                   
06835 05913 16 00380.1  	AND	DSP0L02	!hulp aansturing display "02"
06836 05914 17 00037.2    ANDNT FASE_7	!fase 7
06837 05915 18 00037.2    OR  FASE_7	!fase 7
06838 05916 02 00164.1  	EQL	DISPL02	!aansturing display "02"
06839                   
06840 05917 16 00380.2  	AND	DSP0L04	!hulp aansturing display "04"
06841 05918 17 00037.2    ANDNT FASE_7	!fase 7
06842 05919 18 00037.2    OR  FASE_7	!fase 7
06843 05920 02 00164.2  	EQL	DISPL04	!aansturing display "04"
06844                   
06845 05921 16 00380.3  	AND	DSP0L08	!hulp aansturing display "08"
06846 05922 17 00037.2    ANDNT FASE_7	!fase 7
06847 05923 02 00164.3  	EQL	DISPL08	!aansturing display "08"
06848                   
06849 05924 16 00381.0  	AND	DSP0L10	!hulp aansturing display "10"
06850 05925 17 00037.2    ANDNT FASE_7	!fase 7
06851 05926 02 00165.0  	EQL	DISPL10	!aansturing display "10"
06852                   
06853 05927 16 00381.1  	AND	DSP0L20	!hulp aansturing display "20"
06854 05928 17 00037.2    ANDNT FASE_7	!fase 7
06855 05929 02 00165.1  	EQL	DISPL20	!aansturing display "20"
06856                   
06857 05930 16 00381.2  	AND	DSP0L40	!hulp aansturing display "40"
06858 05931 17 00037.2    ANDNT FASE_7	!fase 7
06859 05932 02 00165.2  	EQL	DISPL40	!aansturing display "40"
06860                   
06861 05933 16 00381.3  	AND	DSP0L80	!hulp aansturing display "80"
06862 05934 17 00037.2    ANDNT FASE_7	!fase 7
06863 05935 02 00165.3  	EQL	DISPL80	!aansturing display "80"
06864                   
06865                   !
06866                   !	lampentest 2 decaden display
06867                   !
06868 05936 16 00121.2  	AND	LAMPTEST	!lampentest "8"
06869 05937 12 00008    	FTCHC	08
06870 05938 12 00008    	FTCHC	08
06871 05939 14 00164    	STRD	DSP1	!aansturing display "eenheden"
06872 05940 14 00165    	STRD	DSP2	!aansturing display "tientallen"
06873 05941 00          	NOP	59
06873 05942 00 
06873 05943 00 
06873 05944 00 
06873 05945 00 
06873 05946 00 
06873 05947 00 
06873 05948 00 
06873 05949 00 
06873 05950 00 
06873 05951 00 
06873 05952 00 
06873 05953 00 
06873 05954 00 
06873 05955 00 
06873 05956 00 
06873 05957 00 
06873 05958 00 
06873 05959 00 
06873 05960 00 
06873 05961 00 
06873 05962 00 
06873 05963 00 
06873 05964 00 
06873 05965 00 
06873 05966 00 
06873 05967 00 
06873 05968 00 
06873 05969 00 
06873 05970 00 
06873 05971 00 
06873 05972 00 
06873 05973 00 
06873 05974 00 
06873 05975 00 
06873 05976 00 
06873 05977 00 
06873 05978 00 
06873 05979 00 
06873 05980 00 
06873 05981 00 
06873 05982 00 
06873 05983 00 
06873 05984 00 
06873 05985 00 
06873 05986 00 
06873 05987 00 
06873 05988 00 
06873 05989 00 
06873 05990 00 
06873 05991 00 
06873 05992 00 
06873 05993 00 
06873 05994 00 
06873 05995 00 
06873 05996 00 
06873 05997 00 
06873 05998 00 
06873 05999 00 
06874                   !                               DR_VEN
06875                   !				******
06876                   !
06877 06000 18 00036.0  	OR	BDR0B01	!bedrijfsfase 1
06878 06001 18 00036.1  	OR	BDR0B02	!bedrijfsfase 2
06879 06002 18 00036.2  	OR	BDR0B03	!bedrijfsfase 3
06880 06003 18 00036.3  	OR	BDR0B04	!bedrijfsfase 4
06881 06004 18 00037.0  	OR	BDR0B05	!bedrijfsfase 5
06882 06005 18 00037.1  	OR	BDR0B06	!bedrijfsfase 6
06883 06006 18 00044.3  	OR	REG0B88	!aanloopfase 88
06884 06007 02 00004.1    EQL DUMP_1
06885                   
06886 06008 16 00044.0  	AND	REG0B33	!regeneratiefase 33
06887 06009 16 00035.0    AND R_VOORW !regeneratievoorw. OK
06888 06010 02 00004.2    EQL DUMP_2
06889                   
06890 06011 16 00054.0  	AND	BDR0B10	!bedrijfsmelding
06891 06012 16 00004.1    AND DUMP_1
06892 06013 02 00004.3    EQL DUMP_3
06893                   
06894 06014 18 00004.2    OR  DUMP_2
06895 06015 18 00004.3    OR  DUMP_3
06896 06016 02 00144.2  	EQL	V10_1
06897 06017 02 00144.3  	EQL	V10_2
06898 06018 02 00145.0  	EQL	V10_3
06899                   
06900 06019 18 00036.0  	OR	BDR0B01	!bedrijfsfase 1
06901 06020 18 00036.2  	OR	BDR0B03	!bedrijfsfase 3
06902 06021 18 00037.0  	OR	BDR0B05	!bedrijfsfase 5
06903 06022 02 00005.0    EQL DUMP_4
06904                   
06905 06023 16 00054.0  	AND	BDR0B10	!bedrijfsmelding
06906 06024 16 00005.0    AND DUMP_4
06907 06025 02 00143.3  	EQL	V9_1
06908                   
06909 06026 18 00037.3  	OR	REG0B08	!regeneratiefase 8
06910 06027 18 00038.0  	OR	REG0B09	!regeneratiefase 9
06911 06028 18 00038.1  	OR	REG0B10	!regeneratiefase 10
06912 06029 18 00038.2  	OR	REG0B11	!regeneratiefase 11
06913 06030 18 00038.3  	OR	REG0B12	!regeneratiefase 12
06914 06031 18 00039.2  	OR	REG0B15	!regeneratiefase 15
06915 06032 18 00039.3  	OR	REG0B16	!regeneratiefase 16
06916 06033 18 00040.0  	OR	REG0B17	!regeneratiefase 17
06917 06034 18 00040.1  	OR	REG0B18	!regeneratiefase 18
06918 06035 18 00040.2  	OR	REG0B19	!regeneratiefase 19
06919 06036 18 00041.0  	OR	REG0B21	!regeneratiefase 21
06920 06037 18 00041.1  	OR	REG0B22	!regeneratiefase 22
06921 06038 18 00042.0  	OR	REG0B25	!regeneratiefase 25
06922 06039 18 00042.1  	OR	REG0B26	!regeneratiefase 26
06923 06040 18 00400.0  	OR	REG0B60	!regeneratie fase 60
06924 06041 18 00400.1  	OR	REG0B61	!regeneratie fase 61
06925 06042 18 00400.2  	OR	REG0B62	!regeneratie fase 62
06926 06043 18 00400.3  	OR	REG0B63	!regeneratie fase 63
06927 06044 18 00401.0  	OR	REG0B64	!regeneratie fase 64
06928 06045 18 00401.1  	OR	REG0B65	!regeneratie fase 65
06929 06046 02 00005.1    EQL DUMP_5
06930                   !
06931                   ! timer 40 t.b.v. afsluiters V1.3, V3.3, V5.3 tijdens fase 32
06932                   !
06933 06047 16 00511.1  	AND	S_1SEC	!triggerpuls 1,0 sec.
06934 06048 16 00043.3  	AND	REG0B32	!regeneratiefase 32
06935 06049 17 00029.3    ANDNT TIMER_40
06936 06050 06 01260    	CNTD	DSP40_0	!display 40 eenheden
06937 06051 06 01261    	CNTD	DSP40_1	!display 40 tientallen
06938 06052 06 01262    	CNTD	DSP40_2	!display 40 honderdtallen
06939 06053 06 01263    	CNTD	DSP40_3	!display 40 duizendtallen
06940 06054 10 00029.3    STRB  TIMER_40
06941                   
06942 06055 17 00043.3  	ANDNT	REG0B32	!regeneratiefase 32
06943 06056 13 02160    	FTCHD	STP40_0	!setpoint 40 eenheden
06944 06057 13 02161    	FTCHD	STP40_1	!setpoint 40 tientallen
06945 06058 13 02162    	FTCHD	STP40_2	!setpoint 40 honderdtallen
06946 06059 13 02163    	FTCHD	STP40_3	!setpoint 40 duizendtallen
06947 06060 14 01260    	STRD	DSP40_0	!display 40 eenheden
06948 06061 14 01261    	STRD	DSP40_1	!display 40 tientallen
06949 06062 14 01262    	STRD	DSP40_2	!display 40 honderdtallen
06950 06063 14 01263    	STRD	DSP40_3	!display 40 duizendtallen
06951 06064 08 00029.3    SET0  TIMER_40
06952                   
06953 06065 17 00029.3    ANDNT TIMER_40
06954 06066 16 00043.3  	AND	REG0B32	!regeneratiefase 32
06955 06067 02 00005.2    EQL DUMP_6
06956                   
06957 06068 18 00005.1    OR  DUMP_5
06958 06069 18 00005.2    OR  DUMP_6
06959 06070 02 00005.3    EQL DUMP_7
06960                   
06961 06071 16 00035.0    AND R_VOORW !regeneratievoorw. OK
06962 06072 16 00005.3    AND DUMP_7
06963 06073 18 00358.2  	OR	REG0B53	!handmatig vullen CMF
06964 06074 18 00358.3  	OR	REG0B54	!handmatig ledigen CMF
06965 06075 02 00141.2  	EQL	V1_3
06966 06076 02 00142.1  	EQL	V3_3
06967 06077 02 00143.0  	EQL	V5_3
06968                   
06969 06078 18 00037.3  	OR	REG0B08	!regeneratiefase 8
06970 06079 18 00038.2  	OR	REG0B11	!regeneratiefase 11
06971 06080 18 00039.0  	OR	REG0B13	!regeneratiefase 13
06972 06081 18 00039.2  	OR	REG0B15	!regeneratiefase 15
06973 06082 18 00040.1  	OR	REG0B18	!regeneratiefase 18
06974 06083 18 00040.3  	OR	REG0B20	!regeneratiefase 20
06975 06084 18 00041.0  	OR	REG0B21	!regeneratiefase 21
06976 06085 18 00041.3  	OR	REG0B24	!regeneratiefase 24
06977 06086 18 00042.0  	OR	REG0B25	!regeneratiefase 25
06978 06087 18 00042.2  	OR	REG0B27	!regeneratiefase 27
06979 06088 18 00043.0  	OR	REG0B29	!regeneratiefase 29
06980 06089 18 00043.2  	OR	REG0B31	!regeneratiefase 31
06981 06090 18 00043.3  	OR	REG0B32	!regeneratiefase 32
06982 06091 18 00400.0  	OR	REG0B60	!regeneratie fase 60
06983 06092 18 00400.3  	OR	REG0B63	!regeneratie fase 63
06984 06093 02 00006.0    EQL DUMP_8
06985                   !
06986                   ! timer 41 t.b.v. afsluiters V12.1, V12.2, V12.3 tijdens fase 7
06987                   !
06988 06094 16 00511.1  	AND	S_1SEC	!triggerpuls 1,0 sec.
06989 06095 16 00037.2    AND FASE_7  !fase 7
06990 06096 17 00030.0    ANDNT TIMER_41
06991 06097 06 01264    	CNTD	DSP41_0	!display 41 eenheden
06992 06098 06 01265    	CNTD	DSP41_1	!display 41 tientallen
06993 06099 06 01266    	CNTD	DSP41_2	!display 41 honderdtallen
06994 06100 06 01267    	CNTD	DSP41_3	!display 41 duizendtallen
06995 06101 10 00030.0    STRB  TIMER_41
06996                   
06997 06102 17 00037.2    ANDNT FASE_7  !fase 7
06998 06103 13 02164    	FTCHD	STP41_0	!setpoint 41 eenheden
06999 06104 13 02165    	FTCHD	STP41_1	!setpoint 41 tientallen
07000 06105 13 02166    	FTCHD	STP41_2	!setpoint 41 honderdtallen
07001 06106 13 02167    	FTCHD	STP41_3	!setpoint 41 duizendtallen
07002 06107 14 01264    	STRD	DSP41_0	!display 41 eenheden
07003 06108 14 01265    	STRD	DSP41_1	!display 41 tientallen
07004 06109 14 01266    	STRD	DSP41_2	!display 41 honderdtallen
07005 06110 14 01267    	STRD	DSP41_3	!display 41 duizendtallen
07006 06111 08 00030.0    SET0  TIMER_41
07007                   
07008 06112 17 00030.0    ANDNT TIMER_41
07009 06113 16 00037.2    AND FASE_7  !fase 7
07010 06114 02 00006.1    EQL DUMP_9
07011                   
07012 06115 16 00035.0    AND R_VOORW !regeneratievoorw. OK
07013 06116 16 00006.0    AND DUMP_8
07014 06117 02 00006.2    EQL DUMP_10
07015                   
07016 06118 16 00054.0  	AND	BDR0B10	!bedrijfsmelding
07017 06119 16 00006.1    AND DUMP_9
07018 06120 02 00006.3    EQL DUMP_11
07019                   
07020 06121 18 00006.2    OR  DUMP_10
07021 06122 18 00006.3    OR  DUMP_11
07022 06123 18 00358.3  	OR	REG0B54	!handmatig ledigen CMF
07023 06124 18 00365.0    OR  TIMER_61  !pauzetijd aansturing afsl. V12.1
07024 06125 02 00146.1  	EQL	V12_1
07025                   
07026 06126 18 00006.2    OR  DUMP_10
07027 06127 18 00006.3    OR  DUMP_11
07028 06128 18 00358.3  	OR	REG0B54	!handmatig ledigen CMF
07029 06129 02 00146.2  	EQL	V12_2
07030 06130 02 00146.3  	EQL	V12_3
07031                   
07032 06131 18 00038.0  	OR	REG0B09	!regeneratiefase 9
07033 06132 18 00039.3  	OR	REG0B16	!regeneratiefase 16
07034 06133 18 00400.1  	OR	REG0B61	!regeneratie fase 61
07035 06134 18 00401.0  	OR	REG0B64	!regeneratie fase 64
07036 06135 02 00007.0    EQL DUMP_12
07037                   
07038 06136 16 00007.0    AND DUMP_12
07039 06137 16 00035.0    AND R_VOORW !regeneratievoorw. OK
07040 06138 02 00145.2  	EQL	V11_1
07041 06139 02 00140.2    EQL POMP_P11
07042                   
07043 06140 18 00039.0  	OR	REG0B13	!regeneratiefase 13
07044 06141 18 00040.3  	OR	REG0B20	!regeneratiefase 20
07045 06142 18 00041.3  	OR	REG0B24	!regeneratiefase 24
07046 06143 18 00042.2  	OR	REG0B27	!regeneratiefase 27
07047 06144 18 00043.0  	OR	REG0B29	!regeneratiefase 29
07048 06145 18 00043.2  	OR	REG0B31	!regeneratiefase 31
07049 06146 18 00043.3  	OR	REG0B32	!regeneratiefase 32
07050 06147 02 00007.1    EQL DUMP_13
07051                   
07052 06148 16 00035.0    AND R_VOORW !regeneratievoorw. OK
07053 06149 16 00007.1    AND DUMP_13
07054 06150 02 00144.0  	EQL	V9_2
07055                   
07056 06151 18 00036.0  	OR	BDR0B01	!bedrijfsfase 1
07057 06152 18 00036.1  	OR	BDR0B02	!bedrijfsfase 2
07058 06153 18 00036.2  	OR	BDR0B03	!bedrijfsfase 3
07059 06154 18 00036.3  	OR	BDR0B04	!bedrijfsfase 4
07060 06155 18 00037.0  	OR	BDR0B05	!bedrijfsfase 5
07061 06156 18 00037.1  	OR	BDR0B06	!bedrijfsfase 6
07062 06157 18 00044.3  	OR	REG0B88	!aanloopfase 88
07063 06158 02 00007.2    EQL DUMP_14
07064                   
07065 06159 16 00054.0  	AND	BDR0B10	!bedrijfsmelding
07066 06160 16 00007.2    AND DUMP_14
07067 06161 02 00007.3    EQL DUMP_15
07068                   
07069 06162 16 00035.0    AND R_VOORW !regeneratievoorw. OK
07070 06163 16 00044.0  	AND	REG0B33	!regeneratiefase 33
07071 06164 02 00008.0    EQL DUMP_16
07072                   
07073 06165 16 00007.3    AND DUMP_15
07074 06166 18 00008.0    OR  DUMP_16
07075 06167 02 00140.1    EQL POMP_P10
07076                   !
07077                   ! timer 42 vertraging afsluiter V1.2 tijdens fase 1
07078                   !
07079 06168 16 00511.1  	AND	S_1SEC	!triggerpuls 1,0 sec.
07080 06169 16 00036.0  	AND	BDR0B01	!bedrijfsfase 1
07081 06170 17 00030.1    ANDNT TIMER_42
07082 06171 06 01268    	CNTD	DSP42_0	!display 42 eenheden
07083 06172 06 01269    	CNTD	DSP42_1	!display 42 tientallen
07084 06173 06 01270    	CNTD	DSP42_2	!display 42 honderdtallen
07085 06174 06 01271    	CNTD	DSP42_3	!display 42 duizendtallen
07086 06175 10 00030.1    STRB  TIMER_42
07087                   
07088 06176 17 00036.0  	ANDNT	BDR0B01	!bedrijfsfase 1
07089 06177 13 02168    	FTCHD	STP42_0	!setpoint 42 eenheden
07090 06178 13 02169    	FTCHD	STP42_1	!setpoint 42 tientallen
07091 06179 13 02170    	FTCHD	STP42_2	!setpoint 42 honderdtallen
07092 06180 13 02171    	FTCHD	STP42_3	!setpoint 42 duizendtallen
07093 06181 14 01268    	STRD	DSP42_0	!display 42 eenheden
07094 06182 14 01269    	STRD	DSP42_1	!display 42 tientallen
07095 06183 14 01270    	STRD	DSP42_2	!display 42 honderdtallen
07096 06184 14 01271    	STRD	DSP42_3	!display 42 duizendtallen
07097 06185 08 00030.1    SET0  TIMER_42
07098                   !
07099                   ! timer 43 vertraging afsluiter V3.2 tijdens fase 3
07100                   !
07101 06186 16 00511.1  	AND	S_1SEC	!triggerpuls 1,0 sec.
07102 06187 16 00036.2  	AND	BDR0B03	!bedrijfsfase 3
07103 06188 17 00030.2    ANDNT TIMER_43
07104 06189 06 01272    	CNTD	DSP43_0	!display 43 eenheden
07105 06190 06 01273    	CNTD	DSP43_1	!display 43 tientallen
07106 06191 06 01274    	CNTD	DSP43_2	!display 43 honderdtallen
07107 06192 06 01275    	CNTD	DSP43_3	!display 43 duizendtallen
07108 06193 10 00030.2    STRB  TIMER_43
07109                   
07110 06194 17 00036.2  	ANDNT	BDR0B03	!bedrijfsfase 3
07111 06195 13 02172    	FTCHD	STP43_0	!setpoint 43 eenheden
07112 06196 13 02173    	FTCHD	STP43_1	!setpoint 43 tientallen
07113 06197 13 02174    	FTCHD	STP43_2	!setpoint 43 honderdtallen
07114 06198 13 02175    	FTCHD	STP43_3	!setpoint 43 duizendtallen
07115 06199 14 01272    	STRD	DSP43_0	!display 43 eenheden
07116 06200 14 01273    	STRD	DSP43_1	!display 43 tientallen
07117 06201 14 01274    	STRD	DSP43_2	!display 43 honderdtallen
07118 06202 14 01275    	STRD	DSP43_3	!display 43 duizendtallen
07119 06203 08 00030.2    SET0  TIMER_43
07120                   !
07121                   ! timer 44 vertraging afsluiter V5.3 tijdens fase 5
07122                   !
07123 06204 16 00511.1  	AND	S_1SEC	!triggerpuls 1,0 sec.
07124 06205 16 00037.0  	AND	BDR0B05	!bedrijfsfase 5
07125 06206 17 00030.3    ANDNT TIMER_44
07126 06207 06 01276    	CNTD	DSP44_0	!display 44 eenheden
07127 06208 06 01277    	CNTD	DSP44_1	!display 44 tientallen
07128 06209 06 01278    	CNTD	DSP44_2	!display 44 honderdtallen
07129 06210 06 01279    	CNTD	DSP44_3	!display 44 duizendtallen
07130 06211 10 00030.3    STRB  TIMER_44
07131                   
07132 06212 17 00037.0  	ANDNT	BDR0B05	!bedrijfsfase 5
07133 06213 13 02176    	FTCHD	STP44_0	!setpoint 44 eenheden
07134 06214 13 02177    	FTCHD	STP44_1	!setpoint 44 tientallen
07135 06215 13 02178    	FTCHD	STP44_2	!setpoint 44 honderdtallen
07136 06216 13 02179    	FTCHD	STP44_3	!setpoint 44 duizendtallen
07137 06217 14 01276    	STRD	DSP44_0	!display 44 eenheden
07138 06218 14 01277    	STRD	DSP44_1	!display 44 tientallen
07139 06219 14 01278    	STRD	DSP44_2	!display 44 honderdtallen
07140 06220 14 01279    	STRD	DSP44_3	!display 44 duizendtallen
07141 06221 08 00030.3    SET0  TIMER_44
07142                   
07143 06222 16 00030.1    AND TIMER_42
07144 06223 16 00054.0  	AND	BDR0B10	!bedrijfsmelding
07145 06224 02 00008.1    EQL DUMP_17
07146                   
07147 06225 16 00030.2    AND TIMER_43
07148 06226 16 00054.0  	AND	BDR0B10	!bedrijfsmelding
07149 06227 02 00008.2    EQL DUMP_18
07150                   
07151 06228 16 00030.3    AND TIMER_44
07152 06229 16 00054.0  	AND	BDR0B10	!bedrijfsmelding
07153 06230 02 00008.3    EQL DUMP_19
07154                   
07155 06231 18 00037.3  	OR	REG0B08	!regeneratiefase 8
07156 06232 18 00038.0  	OR	REG0B09	!regeneratiefase 9
07157 06233 18 00038.1  	OR	REG0B10	!regeneratiefase 10
07158 06234 18 00038.2  	OR	REG0B11	!regeneratiefase 11
07159 06235 18 00038.3  	OR	REG0B12	!regeneratiefase 12
07160 06236 18 00039.0  	OR	REG0B13	!regeneratiefase 13
07161 06237 18 00039.1  	OR	REG0B14	!regeneratiefase 14
07162 06238 18 00039.2  	OR	REG0B15	!regeneratiefase 15
07163 06239 18 00039.3  	OR	REG0B16	!regeneratiefase 16
07164 06240 18 00040.0  	OR	REG0B17	!regeneratiefase 17
07165 06241 18 00040.1  	OR	REG0B18	!regeneratiefase 18
07166 06242 18 00040.2  	OR	REG0B19	!regeneratiefase 19
07167 06243 18 00040.3  	OR	REG0B20	!regeneratiefase 20
07168 06244 18 00041.0  	OR	REG0B21	!regeneratiefase 21
07169 06245 18 00041.1  	OR	REG0B22	!regeneratiefase 22
07170 06246 18 00041.2  	OR	REG0B23	!regeneratiefase 23
07171 06247 18 00041.3  	OR	REG0B24	!regeneratiefase 24
07172 06248 18 00042.0  	OR	REG0B25	!regeneratiefase 25
07173 06249 18 00042.1  	OR	REG0B26	!regeneratiefase 26
07174 06250 18 00042.2  	OR	REG0B27	!regeneratiefase 27
07175 06251 18 00042.3  	OR	REG0B28	!regeneratiefase 28
07176 06252 18 00043.0  	OR	REG0B29	!regeneratiefase 29
07177 06253 18 00043.1  	OR	REG0B30	!regeneratiefase 30
07178 06254 18 00043.2  	OR	REG0B31	!regeneratiefase 31
07179 06255 18 00043.3  	OR	REG0B32	!regeneratiefase 32
07180 06256 18 00400.0  	OR	REG0B60	!regeneratie fase 60
07181 06257 18 00400.1  	OR	REG0B61	!regeneratie fase 61
07182 06258 18 00400.2  	OR	REG0B62	!regeneratie fase 62
07183 06259 18 00400.3  	OR	REG0B63	!regeneratie fase 63
07184 06260 18 00401.0  	OR	REG0B64	!regeneratie fase 64
07185 06261 18 00401.1  	OR	REG0B65	!regeneratie fase 65
07186 06262 02 00009.0    EQL DUMP_20
07187                   
07188 06263 16 00035.0    AND R_VOORW !regeneratievoorw. OK
07189 06264 16 00009.0    AND DUMP_20
07190 06265 02 00009.1    EQL DUMP_21
07191                   
07192 06266 18 00008.1    OR  DUMP_17
07193 06267 18 00009.1    OR  DUMP_21
07194 06268 18 00358.2  	OR	REG0B53	!handmatig vullen CMF
07195 06269 18 00358.3  	OR	REG0B54	!handmatig ledigen CMF
07196 06270 02 00141.1  	EQL	V1_2
07197                   
07198 06271 18 00008.2    OR  DUMP_18
07199 06272 18 00009.1    OR  DUMP_21
07200 06273 18 00358.2  	OR	REG0B53	!handmatig vullen CMF
07201 06274 18 00358.3  	OR	REG0B54	!handmatig ledigen CMF
07202 06275 02 00142.0  	EQL	V3_2
07203                   
07204 06276 18 00008.3    OR  DUMP_19
07205 06277 18 00009.1    OR  DUMP_21
07206 06278 18 00358.2  	OR	REG0B53	!handmatig vullen CMF
07207 06279 18 00358.3  	OR	REG0B54	!handmatig ledigen CMF
07208 06280 02 00142.3  	EQL	V5_2
07209                   
07210 06281 16 00036.0  	AND	BDR0B01	!bedrijfsfase 1
07211 06282 18 00036.2  	OR	BDR0B03	!bedrijfsfase 3
07212 06283 18 00037.0  	OR	BDR0B05	!bedrijfsfase 5
07213 06284 02 00009.2    EQL DUMP_22
07214                   
07215 06285 16 00054.0  	AND	BDR0B10	!bedrijfsmelding
07216 06286 16 00009.2    AND DUMP_22
07217 06287 18 00054.0  	OR	BDR0B10	!bedrijfsmelding
07218 06288 16 00355.3  	AND	REG0B46	!openen commando V10.4
07219 06289 18 00044.1  	OR	REG0B34	!regeneratiefase 33.1
07220 06290 17 00117.3  	ANDNT	ALM0I37	!rondpompdruk correct
07221 06291 02 00145.1  	EQL	V10_4
07222                   !
07223                   ! timer 45 vertraging afsluiter V1.1 tijdens fase 2
07224                   !
07225 06292 16 00511.1  	AND	S_1SEC	!triggerpuls 1,0 sec.
07226 06293 16 00036.1  	AND	BDR0B02	!bedrijfsfase 2
07227 06294 17 00031.0    ANDNT TIMER_45
07228 06295 06 01280    	CNTD	DSP45_0	!display 45 eenheden
07229 06296 06 01281    	CNTD	DSP45_1	!display 45 tientallen
07230 06297 06 01282    	CNTD	DSP45_2	!display 45 honderdtallen
07231 06298 06 01283    	CNTD	DSP45_3	!display 45 duizendtallen
07232 06299 10 00031.0    STRB  TIMER_45
07233                   
07234 06300 17 00036.1  	ANDNT	BDR0B02	!bedrijfsfase 2
07235 06301 13 02180    	FTCHD	STP45_0	!setpoint 45 eenheden
07236 06302 13 02181    	FTCHD	STP45_1	!setpoint 45 tientallen
07237 06303 13 02182    	FTCHD	STP45_2	!setpoint 45 honderdtallen
07238 06304 13 02183    	FTCHD	STP45_3	!setpoint 45 duizendtallen
07239 06305 14 01280    	STRD	DSP45_0	!display 45 eenheden
07240 06306 14 01281    	STRD	DSP45_1	!display 45 tientallen
07241 06307 14 01282    	STRD	DSP45_2	!display 45 honderdtallen
07242 06308 14 01283    	STRD	DSP45_3	!display 45 duizendtallen
07243 06309 08 00031.0    SET0  TIMER_45
07244                   !
07245                   ! timer 46 vertraging afsluiter V3.1 tijdens fase 4
07246                   !
07247 06310 16 00511.1  	AND	S_1SEC	!triggerpuls 1,0 sec.
07248 06311 16 00036.3  	AND	BDR0B04	!bedrijfsfase 4
07249 06312 17 00031.1    ANDNT TIMER_46
07250 06313 06 01284    	CNTD	DSP46_0	!display 46 eenheden
07251 06314 06 01285    	CNTD	DSP46_1	!display 46 tientallen
07252 06315 06 01286    	CNTD	DSP46_2	!display 46 honderdtallen
07253 06316 06 01287    	CNTD	DSP46_3	!display 46 duizendtallen
07254 06317 10 00031.1    STRB  TIMER_46
07255                   
07256 06318 17 00036.3  	ANDNT	BDR0B04	!bedrijfsfase 4
07257 06319 13 02184    	FTCHD	STP46_0	!setpoint 46 eenheden
07258 06320 13 02185    	FTCHD	STP46_1	!setpoint 46 tientallen
07259 06321 13 02186    	FTCHD	STP46_2	!setpoint 46 honderdtallen
07260 06322 13 02187    	FTCHD	STP46_3	!setpoint 46 duizendtallen
07261 06323 14 01284    	STRD	DSP46_0	!display 46 eenheden
07262 06324 14 01285    	STRD	DSP46_1	!display 46 tientallen
07263 06325 14 01286    	STRD	DSP46_2	!display 46 honderdtallen
07264 06326 14 01287    	STRD	DSP46_3	!display 46 duizendtallen
07265 06327 08 00031.1    SET0  TIMER_46
07266                   !
07267                   ! timer 47 vertraging afsluiter V5.1 tijdens fase 6
07268                   !
07269 06328 16 00511.1  	AND	S_1SEC	!triggerpuls 1,0 sec.
07270 06329 16 00037.1  	AND	BDR0B06	!bedrijfsfase 6
07271 06330 17 00031.2    ANDNT TIMER_47
07272 06331 06 01288    	CNTD	DSP47_0	!display 47 eenheden
07273 06332 06 01289    	CNTD	DSP47_1	!display 47 tientallen
07274 06333 06 01290    	CNTD	DSP47_2	!display 47 honderdtallen
07275 06334 06 01291    	CNTD	DSP47_3	!display 47 duizendtallen
07276 06335 10 00031.2    STRB  TIMER_47
07277                   
07278 06336 17 00037.1  	ANDNT	BDR0B06	!bedrijfsfase 6
07279 06337 13 02188    	FTCHD	STP47_0	!setpoint 47 eenheden
07280 06338 13 02189    	FTCHD	STP47_1	!setpoint 47 tientallen
07281 06339 13 02190    	FTCHD	STP47_2	!setpoint 47 honderdtallen
07282 06340 13 02191    	FTCHD	STP47_3	!setpoint 47 duizendtallen
07283 06341 14 01288    	STRD	DSP47_0	!display 47 eenheden
07284 06342 14 01289    	STRD	DSP47_1	!display 47 tientallen
07285 06343 14 01290    	STRD	DSP47_2	!display 47 honderdtallen
07286 06344 14 01291    	STRD	DSP47_3	!display 47 duizendtallen
07287 06345 08 00031.2    SET0  TIMER_47
07288                   
07289 06346 16 00054.0  	AND	BDR0B10	!bedrijfsmelding
07290 06347 16 00031.0    AND TIMER_45
07291 06348 02 00009.3    EQL DUMP_23
07292                   
07293 06349 16 00054.0  	AND	BDR0B10	!bedrijfsmelding
07294 06350 16 00031.1    AND TIMER_46
07295 06351 02 00010.0    EQL DUMP_24
07296                   
07297 06352 16 00054.0  	AND	BDR0B10	!bedrijfsmelding
07298 06353 16 00031.2    AND TIMER_47
07299 06354 02 00010.1    EQL DUMP_25
07300                   
07301 06355 18 00036.2  	OR	BDR0B03	!bedrijfsfase 3
07302 06356 18 00036.3  	OR	BDR0B04	!bedrijfsfase 4
07303 06357 18 00037.0  	OR	BDR0B05	!bedrijfsfase 5
07304 06358 18 00037.1  	OR	BDR0B06	!bedrijfsfase 6
07305 06359 18 00044.3  	OR	REG0B88	!aanloopfase 88
07306 06360 02 00010.2    EQL DUMP_26
07307                   
07308 06361 18 00036.0  	OR	BDR0B01	!bedrijfsfase 1
07309 06362 18 00036.1  	OR	BDR0B02	!bedrijfsfase 2
07310 06363 18 00037.0  	OR	BDR0B05	!bedrijfsfase 5
07311 06364 18 00037.1  	OR	BDR0B06	!bedrijfsfase 6
07312 06365 18 00044.3  	OR	REG0B88	!aanloopfase 88
07313 06366 02 00010.3    EQL DUMP_27
07314                   
07315 06367 18 00036.0  	OR	BDR0B01	!bedrijfsfase 1
07316 06368 18 00036.1  	OR	BDR0B02	!bedrijfsfase 2
07317 06369 18 00036.2  	OR	BDR0B03	!bedrijfsfase 3
07318 06370 18 00036.3  	OR	BDR0B04	!bedrijfsfase 4
07319 06371 18 00044.3  	OR	REG0B88	!aanloopfase 88
07320 06372 02 00011.0    EQL DUMP_28
07321                   
07322 06373 16 00054.0  	AND	BDR0B10	!bedrijfsmelding
07323 06374 16 00010.2    AND DUMP_26
07324 06375 18 00009.3    OR  DUMP_23
07325 06376 18 00004.2    OR  DUMP_2
07326 06377 02 00141.0  	EQL	V1_1
07327                   
07328 06378 16 00054.0  	AND	BDR0B10	!bedrijfsmelding
07329 06379 16 00010.3    AND DUMP_27
07330 06380 18 00010.0    OR  DUMP_24
07331 06381 18 00004.2    OR  DUMP_2
07332 06382 02 00141.3  	EQL	V3_1
07333                   
07334 06383 16 00054.0  	AND	BDR0B10	!bedrijfsmelding
07335 06384 16 00011.0    AND DUMP_28
07336 06385 18 00010.1    OR  DUMP_25
07337 06386 18 00004.2    OR  DUMP_2
07338 06387 02 00142.2  	EQL	V5_1
07339                   
07340 06388 18 00038.3  	OR	REG0B12	!regeneratiefase 12
07341 06389 18 00040.2  	OR	REG0B19	!regeneratiefase 19
07342 06390 18 00041.1  	OR	REG0B22	!regeneratiefase 22
07343 06391 18 00042.1  	OR	REG0B26	!regeneratiefase 26
07344 06392 02 00011.1    EQL DUMP_29
07345                   
07346 06393 16 00035.0    AND R_VOORW !regeneratievoorw. OK
07347 06394 16 00011.1    AND DUMP_29
07348 06395 18 00358.2  	OR	REG0B53	!handmatig vullen CMF
07349 06396 02 00144.1  	EQL	V9_3
07350                   
07351 06397 18 00038.0  	OR	REG0B09	!regeneratiefase 9
07352 06398 18 00400.1  	OR	REG0B61	!regeneratie fase 61
07353 06399 18 00401.0  	OR	REG0B64	!regeneratie fase 64
07354 06400 02 00011.1    EQL DUMP_29
07355                   
07356 06401 16 00035.0    AND R_VOORW !regeneratievoorw. OK
07357 06402 16 00011.1    AND DUMP_29
07358 06403 02 00145.3  	EQL	V11_2
07359                   
07360 06404 16 00035.0    AND R_VOORW !regeneratievoorw. OK
07361 06405 16 00039.3  	AND	REG0B16	!regeneratiefase 16
07362 06406 02 00146.0  	EQL	V11_3
07363                   
07364 06407 18 00036.0  	OR	BDR0B01	!bedrijfsfase 1
07365 06408 18 00036.1  	OR	BDR0B02	!bedrijfsfase 2
07366 06409 18 00036.2  	OR	BDR0B03	!bedrijfsfase 3
07367 06410 18 00036.3  	OR	BDR0B04	!bedrijfsfase 4
07368 06411 18 00037.0  	OR	BDR0B05	!bedrijfsfase 5
07369 06412 18 00037.1  	OR	BDR0B06	!bedrijfsfase 6
07370 06413 02 00011.2    EQL DUMP_30
07371                   
07372 06414 17 00336.0  	ANDNT	ALM0B04	!tijdvertr. rho alarm proceswater
07373 06415 16 00054.0  	AND	BDR0B10	!bedrijfsmelding
07374 06416 16 00011.2    AND DUMP_30
07375 06417 02 00143.1  	EQL	V7_1
07376                   
07377 06418 16 00044.0  	AND	REG0B33	!regeneratiefase 33
07378 06419 16 00035.0    AND R_VOORW !regeneratievoorw. OK
07379 06420 18 00336.0  	OR	ALM0B04	!tijdvertr. rho alarm proceswater
07380 06421 16 00054.0  	AND	BDR0B10	!bedrijfsmelding
07381 06422 18 00044.3  	OR	REG0B88	!aanloopfase 88
07382 06423 16 00054.0  	AND	BDR0B10	!bedrijfsmelding
07383 06424 02 00143.2  	EQL	V7_2
07384                   !
07385                   ! inbedrijfmelding CMF_unit t.b.v. kast algemene installatie
07386                   !
07387 06425 16 00140.1    AND POMP_P10
07388 06426 16 00125.0    AND V10_3_O !eindschak.afsluiter V10.3 geopend
07389 06427 02 00004.1    EQL DUMP_1
07390                   
07391 06428 16 00035.0    AND R_VOORW !regeneratievoorw. OK
07392 06429 16 00144.0  	AND	V9_2
07393 06430 18 00035.0    OR  R_VOORW !regeneratievoorw. OK
07394 06431 16 00038.3  	AND	REG0B12	!regeneratiefase 12
07395 06432 18 00035.0    OR  R_VOORW !regeneratievoorw. OK
07396 06433 16 00040.2  	AND	REG0B19	!regeneratiefase 19
07397 06434 18 00035.0    OR  R_VOORW !regeneratievoorw. OK
07398 06435 16 00041.1  	AND	REG0B22	!regeneratiefase 22
07399 06436 18 00035.0    OR  R_VOORW !regeneratievoorw. OK
07400 06437 16 00042.1  	AND	REG0B26	!regeneratiefase 26
07401 06438 02 00004.2    EQL DUMP_2
07402                   
07403 06439 16 00004.1    AND DUMP_1
07404 06440 18 00004.2    OR  DUMP_2
07405 06441 02 00140.3    EQL CMF_IN  !inbedrijfmelding CMF naar kast algemeen
07406                   
07407 06442 18 00037.3  	OR	REG0B08	!regeneratiefase 8
07408 06443 18 00038.0  	OR	REG0B09	!regeneratiefase 9
07409 06444 18 00038.1  	OR	REG0B10	!regeneratiefase 10
07410 06445 18 00038.2  	OR	REG0B11	!regeneratiefase 11
07411 06446 18 00038.3  	OR	REG0B12	!regeneratiefase 12
07412 06447 18 00039.0  	OR	REG0B13	!regeneratiefase 13
07413 06448 18 00039.1  	OR	REG0B14	!regeneratiefase 14
07414 06449 18 00039.2  	OR	REG0B15	!regeneratiefase 15
07415 06450 18 00039.3  	OR	REG0B16	!regeneratiefase 16
07416 06451 18 00040.1  	OR	REG0B18	!regeneratiefase 18
07417 06452 18 00040.2  	OR	REG0B19	!regeneratiefase 19
07418 06453 18 00041.0  	OR	REG0B21	!regeneratiefase 21
07419 06454 18 00041.1  	OR	REG0B22	!regeneratiefase 22
07420 06455 18 00042.0  	OR	REG0B25	!regeneratiefase 25
07421 06456 18 00042.1  	OR	REG0B26	!regeneratiefase 26
07422 06457 18 00400.0  	OR	REG0B60	!regeneratie fase 60
07423 06458 18 00400.1  	OR	REG0B61	!regeneratie fase 61
07424 06459 18 00400.2  	OR	REG0B62	!regeneratie fase 62
07425 06460 18 00400.3  	OR	REG0B63	!regeneratie fase 63
07426 06461 18 00401.0  	OR	REG0B64	!regeneratie fase 64
07427 06462 18 00401.1  	OR	REG0B65	!regeneratie fase 65
07428 06463 02 00004.3    EQL DUMP_3
07429                   
07430 06464 16 00004.3    AND DUMP_3
07431 06465 18 00358.2  	OR	REG0B53	!handmatig vullen CMF
07432 06466 18 00358.3  	OR	REG0B54	!handmatig ledigen CMF
07433 06467 02 00147.0    EQL V13_1__2
07434                   !
07435                   ! vrijgave loogverwarming via kast algemene voorzieningen
07436                   !
07437 06468 16 00037.3  	AND	REG0B08	!regeneratiefase 8
07438 06469 18 00038.0  	OR	REG0B09	!regeneratiefase 9
07439 06470 18 00038.1  	OR	REG0B10	!regeneratiefase 10
07440 06471 18 00038.2  	OR	REG0B11	!regeneratiefase 11
07441 06472 18 00038.3  	OR	REG0B12	!regeneratiefase 12
07442 06473 18 00039.0  	OR	REG0B13	!regeneratiefase 13
07443 06474 18 00039.1  	OR	REG0B14	!regeneratiefase 14
07444 06475 18 00039.2  	OR	REG0B15	!regeneratiefase 15
07445 06476 18 00039.3  	OR	REG0B16	!regeneratiefase 16
07446 06477 18 00400.0  	OR	REG0B60	!regeneratie fase 60
07447 06478 18 00400.1  	OR	REG0B61	!regeneratie fase 61
07448 06479 18 00400.2  	OR	REG0B62	!regeneratie fase 62
07449 06480 18 00400.3  	OR	REG0B63	!regeneratie fase 63
07450 06481 18 00401.0  	OR	REG0B64	!regeneratie fase 64
07451 06482 18 00401.1  	OR	REG0B65	!regeneratie fase 65
07452 06483 02 00166.0  	EQL	166.0
07453 06484 02 00005.0    EQL DUMP_4
07454                   !
07455                   ! aansturing concentraatafvoerklep technische bedrijven fase 8 t/m 23
07456                   !
07457 06485 16 00005.0    AND DUMP_4
07458 06486 18 00040.0  	OR	REG0B17	!regeneratiefase 17
07459 06487 18 00040.1  	OR	REG0B18	!regeneratiefase 18
07460 06488 18 00040.2  	OR	REG0B19	!regeneratiefase 19
07461 06489 18 00040.3  	OR	REG0B20	!regeneratiefase 20
07462 06490 18 00041.0  	OR	REG0B21	!regeneratiefase 21
07463 06491 18 00041.1  	OR	REG0B22	!regeneratiefase 22
07464 06492 18 00041.2  	OR	REG0B23	!regeneratiefase 23
07465 06493 18 00358.3  	OR	REG0B54	!handmatig ledigen CMF
07466 06494 02 00166.2  	EQL	166.2
07467                   !
07468                   ! aansturing spoelwaterafvoerklep technische bedrijven
07469                   !
07470 06495 17 00166.2  	ANDNT	166.2
07471 06496 02 00166.1  	EQL	166.1
07472 06497 00          	NOP	3
07472 06498 00 
07472 06499 00 
07473                   !                               DR_AFSBW
07474                   !				********
07475                   !
07476                   !
07477                   ! In dit deel wordt gekeken of de kleppen die worden aangestuurd ook
07478                   ! werkelijk geopend of gesloten zijn.
07479                   !
07480 06500 16 00141.0  	AND	V1_1
07481 06501 17 00122.0    ANDNT V1_1_O  !eindschak.afsluiter V 1.1 geopend
07482 06502 19 00141.0  	ORNT	V1_1
07483 06503 17 00122.1    ANDNT V1_1_C  !eindschak.afsluiter V 1.1 gesloten
07484 06504 02 00012.0    EQL DUMP_31
07485                   
07486 06505 16 00511.1  	AND	S_1SEC	!triggerpuls 1,0 sec.
07487 06506 16 00012.0    AND DUMP_31
07488 06507 17 00032.0    ANDNT TIMER_49
07489 06508 06 01296    	CNTD	DSP49_0	!display 49 eenheden
07490 06509 06 01297    	CNTD	DSP49_1	!display 49 tientallen
07491 06510 06 01298    	CNTD	DSP49_2	!display 49 honderdtallen
07492 06511 06 01299    	CNTD	DSP49_3	!display 49 duizendtallen
07493 06512 10 00032.0    STRB  TIMER_49
07494                   
07495 06513 17 00012.0    ANDNT DUMP_31
07496 06514 18 00045.0  	OR	ALARM29	!V 1.1 niet geopend
07497 06515 13 02196    	FTCHD	STP49_0	!setpoint 49 eenheden
07498 06516 13 02197    	FTCHD	STP49_1	!setpoint 49 tientallen
07499 06517 13 02198    	FTCHD	STP49_2	!setpoint 49 honderdtallen
07500 06518 13 02199    	FTCHD	STP49_3	!setpoint 49 duizendtallen
07501 06519 14 01296    	STRD	DSP49_0	!display 49 eenheden
07502 06520 14 01297    	STRD	DSP49_1	!display 49 tientallen
07503 06521 14 01298    	STRD	DSP49_2	!display 49 honderdtallen
07504 06522 14 01299    	STRD	DSP49_3	!display 49 duizendtallen
07505 06523 08 00032.0    SET0  TIMER_49
07506                   
07507 06524 16 00141.3  	AND	V3_1
07508 06525 17 00122.2    ANDNT V3_1_O  !eindschak.afsluiter V 3.1 geopend
07509 06526 19 00141.3  	ORNT	V3_1
07510 06527 17 00122.3    ANDNT V3_1_C  !eindschak.afsluiter V 3.1 gesloten
07511 06528 02 00012.1    EQL DUMP_32
07512                   
07513 06529 16 00511.1  	AND	S_1SEC	!triggerpuls 1,0 sec.
07514 06530 16 00012.1    AND DUMP_32
07515 06531 17 00032.1    ANDNT TIMER_50
07516 06532 06 01300    	CNTD	DSP50_0	!display 50 eenheden
07517 06533 06 01301    	CNTD	DSP50_1	!display 50 tientallen
07518 06534 06 01302    	CNTD	DSP50_2	!display 50 honderdtallen
07519 06535 06 01303    	CNTD	DSP50_3	!display 50 duizendtallen
07520 06536 10 00032.1    STRB  TIMER_50
07521                   
07522 06537 17 00012.1    ANDNT DUMP_32
07523 06538 18 00045.2  	OR	ALARM31	!V 3.1 niet geopend
07524 06539 13 02200    	FTCHD	STP50_0	!setpoint 50 eenheden
07525 06540 13 02201    	FTCHD	STP50_1	!setpoint 50 tientallen
07526 06541 13 02202    	FTCHD	STP50_2	!setpoint 50 honderdtallen
07527 06542 13 02203    	FTCHD	STP50_3	!setpoint 50 duizendtallen
07528 06543 14 01300    	STRD	DSP50_0	!display 50 eenheden
07529 06544 14 01301    	STRD	DSP50_1	!display 50 tientallen
07530 06545 14 01302    	STRD	DSP50_2	!display 50 honderdtallen
07531 06546 14 01303    	STRD	DSP50_3	!display 50 duizendtallen
07532 06547 08 00032.1    SET0  TIMER_50
07533                   
07534 06548 16 00142.2  	AND	V5_1
07535 06549 17 00123.0    ANDNT V5_1_O  !eindschak.afsluiter V 5.1 geopend
07536 06550 19 00142.2  	ORNT	V5_1
07537 06551 17 00123.1    ANDNT V5_1_C  !eindschak.afsluiter V 5.1 gesloten
07538 06552 02 00012.2    EQL DUMP_33
07539                   
07540 06553 16 00511.1  	AND	S_1SEC	!triggerpuls 1,0 sec.
07541 06554 16 00012.2    AND DUMP_33
07542 06555 17 00032.2    ANDNT TIMER_51
07543 06556 06 01304    	CNTD	DSP51_0	!display 51 eenheden
07544 06557 06 01305    	CNTD	DSP51_1	!display 51 tientallen
07545 06558 06 01306    	CNTD	DSP51_2	!display 51 honderdtallen
07546 06559 06 01307    	CNTD	DSP51_3	!display 51 duizendtallen
07547 06560 10 00032.2    STRB  TIMER_51
07548                   
07549 06561 17 00012.2    ANDNT DUMP_33
07550 06562 18 00046.0  	OR	ALARM33	!V 5.1 niet geopend
07551 06563 13 02204    	FTCHD	STP51_0	!setpoint 51 eenheden
07552 06564 13 02205    	FTCHD	STP51_1	!setpoint 51 tientallen
07553 06565 13 02206    	FTCHD	STP51_2	!setpoint 51 honderdtallen
07554 06566 13 02207    	FTCHD	STP51_3	!setpoint 51 duizendtallen
07555 06567 14 01304    	STRD	DSP51_0	!display 51 eenheden
07556 06568 14 01305    	STRD	DSP51_1	!display 51 tientallen
07557 06569 14 01306    	STRD	DSP51_2	!display 51 honderdtallen
07558 06570 14 01307    	STRD	DSP51_3	!display 51 duizendtallen
07559 06571 08 00032.2    SET0  TIMER_51
07560                   
07561 06572 16 00143.1  	AND	V7_1
07562 06573 17 00123.2    ANDNT V7_1_O  !eindschak.afsluiter V 7.1 geopend
07563 06574 19 00143.1  	ORNT	V7_1
07564 06575 17 00123.3    ANDNT V7_1_C  !eindschak.afsluiter V 7.1 gesloten
07565 06576 02 00012.3    EQL DUMP_34
07566                   
07567 06577 16 00511.1  	AND	S_1SEC	!triggerpuls 1,0 sec.
07568 06578 16 00012.3    AND DUMP_34
07569 06579 17 00032.3    ANDNT TIMER_52
07570 06580 06 01308    	CNTD	DSP52_0	!display 52 eenheden
07571 06581 06 01309    	CNTD	DSP52_1	!display 52 tientallen
07572 06582 06 01310    	CNTD	DSP52_2	!display 52 honderdtallen
07573 06583 06 01311    	CNTD	DSP52_3	!display 52 duizendtallen
07574 06584 10 00032.3    STRB  TIMER_52
07575                   
07576 06585 17 00012.3    ANDNT DUMP_34
07577 06586 18 00046.2  	OR	ALARM35	!V 7.1 niet geopend
07578 06587 13 02208    	FTCHD	STP52_0	!setpoint 52 eenheden
07579 06588 13 02209    	FTCHD	STP52_1	!setpoint 52 tientallen
07580 06589 13 02210    	FTCHD	STP52_2	!setpoint 52 honderdtallen
07581 06590 13 02211    	FTCHD	STP52_3	!setpoint 52 duizendtallen
07582 06591 14 01308    	STRD	DSP52_0	!display 52 eenheden
07583 06592 14 01309    	STRD	DSP52_1	!display 52 tientallen
07584 06593 14 01310    	STRD	DSP52_2	!display 52 honderdtallen
07585 06594 14 01311    	STRD	DSP52_3	!display 52 duizendtallen
07586 06595 08 00032.3    SET0  TIMER_52
07587                   
07588 06596 16 00144.2  	AND	V10_1
07589 06597 17 00124.0    ANDNT V10_1_O !eindschak.afsluiter V10.1 geopend
07590 06598 19 00144.2  	ORNT	V10_1
07591 06599 17 00124.1    ANDNT V10_1_C !eindschak.afsluiter V10.1 gesloten
07592 06600 02 00013.0    EQL DUMP_35
07593                   
07594 06601 16 00511.1  	AND	S_1SEC	!triggerpuls 1,0 sec.
07595 06602 16 00013.0    AND DUMP_35
07596 06603 17 00033.0    ANDNT TIMER_53
07597 06604 06 01312    	CNTD	DSP53_0	!display 53 eenheden
07598 06605 06 01313    	CNTD	DSP53_1	!display 53 tientallen
07599 06606 06 01314    	CNTD	DSP53_2	!display 53 honderdtallen
07600 06607 06 01315    	CNTD	DSP53_3	!display 53 duizendtallen
07601 06608 10 00033.0    STRB  TIMER_53
07602                   
07603 06609 17 00013.0    ANDNT DUMP_35
07604 06610 18 00047.0  	OR	ALARM13	!V10.1 niet geopend
07605 06611 13 02212    	FTCHD	STP53_0	!setpoint 53 eenheden
07606 06612 13 02213    	FTCHD	STP53_1	!setpoint 53 tientallen
07607 06613 13 02214    	FTCHD	STP53_2	!setpoint 53 honderdtallen
07608 06614 13 02215    	FTCHD	STP53_3	!setpoint 53 duizendtallen
07609 06615 14 01312    	STRD	DSP53_0	!display 53 eenheden
07610 06616 14 01313    	STRD	DSP53_1	!display 53 tientallen
07611 06617 14 01314    	STRD	DSP53_2	!display 53 honderdtallen
07612 06618 14 01315    	STRD	DSP53_3	!display 53 duizendtallen
07613 06619 08 00033.0    SET0  TIMER_53
07614                   
07615 06620 16 00144.3  	AND	V10_2
07616 06621 17 00124.2    ANDNT V10_2_O !eindschak.afsluiter V10.2 geopend
07617 06622 19 00144.3  	ORNT	V10_2
07618 06623 17 00124.3    ANDNT V10_2_C !eindschak.afsluiter V10.2 gesloten
07619 06624 02 00013.1    EQL DUMP_36
07620                   
07621 06625 16 00511.1  	AND	S_1SEC	!triggerpuls 1,0 sec.
07622 06626 16 00013.1    AND DUMP_36
07623 06627 17 00033.1    ANDNT TIMER_54
07624 06628 06 01316    	CNTD	DSP54_0	!display 54 eenheden
07625 06629 06 01317    	CNTD	DSP54_1	!display 54 tientallen
07626 06630 06 01318    	CNTD	DSP54_2	!display 54 honderdtallen
07627 06631 06 01319    	CNTD	DSP54_3	!display 54 duizendtallen
07628 06632 10 00033.1    STRB  TIMER_54
07629                   
07630 06633 17 00013.1    ANDNT DUMP_36
07631 06634 18 00047.2  	OR	ALARM15	!V10.2 niet geopend
07632 06635 13 02216    	FTCHD	STP54_0	!setpoint 54 eenheden
07633 06636 13 02217    	FTCHD	STP54_1	!setpoint 54 tientallen
07634 06637 13 02218    	FTCHD	STP54_2	!setpoint 54 honderdtallen
07635 06638 13 02219    	FTCHD	STP54_3	!setpoint 54 duizendtallen
07636 06639 14 01316    	STRD	DSP54_0	!display 54 eenheden
07637 06640 14 01317    	STRD	DSP54_1	!display 54 tientallen
07638 06641 14 01318    	STRD	DSP54_2	!display 54 honderdtallen
07639 06642 14 01319    	STRD	DSP54_3	!display 54 duizendtallen
07640 06643 08 00033.1    SET0  TIMER_54
07641                   
07642 06644 16 00145.0  	AND	V10_3
07643 06645 17 00125.0    ANDNT V10_3_O !eindschak.afsluiter V10.3 geopend
07644 06646 19 00145.0  	ORNT	V10_3
07645 06647 17 00125.1    ANDNT V10_3_C !eindschak.afsluiter V10.3 gesloten
07646 06648 02 00013.2    EQL DUMP_37
07647                   
07648 06649 16 00511.1  	AND	S_1SEC	!triggerpuls 1,0 sec.
07649 06650 16 00013.2    AND DUMP_37
07650 06651 17 00033.2    ANDNT TIMER_55
07651 06652 06 01320    	CNTD	DSP55_0	!display 55 eenheden
07652 06653 06 01321    	CNTD	DSP55_1	!display 55 tientallen
07653 06654 06 01322    	CNTD	DSP55_2	!display 55 honderdtallen
07654 06655 06 01323    	CNTD	DSP55_3	!display 55 duizendtallen
07655 06656 10 00033.2    STRB  TIMER_55
07656                   
07657 06657 17 00013.2    ANDNT DUMP_37
07658 06658 18 00048.0  	OR	ALARM17	!V10.3 niet geopend
07659 06659 13 02220    	FTCHD	STP55_0	!setpoint 55 eenheden
07660 06660 13 02221    	FTCHD	STP55_1	!setpoint 55 tientallen
07661 06661 13 02222    	FTCHD	STP55_2	!setpoint 55 honderdtallen
07662 06662 13 02223    	FTCHD	STP55_3	!setpoint 55 duizendtallen
07663 06663 14 01320    	STRD	DSP55_0	!display 55 eenheden
07664 06664 14 01321    	STRD	DSP55_1	!display 55 tientallen
07665 06665 14 01322    	STRD	DSP55_2	!display 55 honderdtallen
07666 06666 14 01323    	STRD	DSP55_3	!display 55 duizendtallen
07667 06667 08 00033.2    SET0  TIMER_55
07668                   
07669 06668 16 00145.1  	AND	V10_4
07670 06669 17 00125.2    ANDNT V10_4_O !eindschak.afsluiter V10.4 geopend
07671 06670 19 00145.1  	ORNT	V10_4
07672 06671 17 00125.3    ANDNT V10_4_C !eindschak.afsluiter V10.4 gesloten
07673 06672 02 00013.3    EQL DUMP_38
07674                   
07675 06673 16 00511.1  	AND	S_1SEC	!triggerpuls 1,0 sec.
07676 06674 16 00013.3    AND DUMP_38
07677 06675 17 00033.3    ANDNT TIMER_56
07678 06676 06 01324    	CNTD	DSP56_0	!display 56 eenheden
07679 06677 06 01325    	CNTD	DSP56_1	!display 56 tientallen
07680 06678 06 01326    	CNTD	DSP56_2	!display 56 honderdtallen
07681 06679 06 01327    	CNTD	DSP56_3	!display 56 duizendtallen
07682 06680 10 00033.3    STRB  TIMER_56
07683                   
07684 06681 17 00013.3    ANDNT DUMP_38
07685 06682 18 00048.2  	OR	ALARM19	!V10.4 niet geopend
07686 06683 13 02224    	FTCHD	STP56_0	!setpoint 56 eenheden
07687 06684 13 02225    	FTCHD	STP56_1	!setpoint 56 tientallen
07688 06685 13 02226    	FTCHD	STP56_2	!setpoint 56 honderdtallen
07689 06686 13 02227    	FTCHD	STP56_3	!setpoint 56 duizendtallen
07690 06687 14 01324    	STRD	DSP56_0	!display 56 eenheden
07691 06688 14 01325    	STRD	DSP56_1	!display 56 tientallen
07692 06689 14 01326    	STRD	DSP56_2	!display 56 honderdtallen
07693 06690 14 01327    	STRD	DSP56_3	!display 56 duizendtallen
07694 06691 08 00033.3    SET0  TIMER_56
07695                   
07696 06692 16 00145.2  	AND	V11_1
07697 06693 17 00126.0    ANDNT V11_1_O !eindschak.afsluiter V11.1 geopend
07698 06694 19 00145.2  	ORNT	V11_1
07699 06695 17 00126.1    ANDNT V11_1_C !eindschak.afsluiter V11.1 gesloten
07700 06696 02 00014.0    EQL DUMP_39
07701                   
07702 06697 16 00511.1  	AND	S_1SEC	!triggerpuls 1,0 sec.
07703 06698 16 00014.0    AND DUMP_39
07704 06699 17 00034.0    ANDNT TIMER_57
07705 06700 06 01328    	CNTD	DSP57_0	!display 57 eenheden
07706 06701 06 01329    	CNTD	DSP57_1	!display 57 tientallen
07707 06702 06 01330    	CNTD	DSP57_2	!display 57 honderdtallen
07708 06703 06 01331    	CNTD	DSP57_3	!display 57 duizendtallen
07709 06704 10 00034.0    STRB  TIMER_57
07710                   
07711 06705 17 00014.0    ANDNT DUMP_39
07712 06706 18 00049.0  	OR	ALARM21	!V11.1 niet geopend
07713 06707 13 02228    	FTCHD	STP57_0	!setpoint 57 eenheden
07714 06708 13 02229    	FTCHD	STP57_1	!setpoint 57 tientallen
07715 06709 13 02230    	FTCHD	STP57_2	!setpoint 57 honderdtallen
07716 06710 13 02231    	FTCHD	STP57_3	!setpoint 57 duizendtallen
07717 06711 14 01328    	STRD	DSP57_0	!display 57 eenheden
07718 06712 14 01329    	STRD	DSP57_1	!display 57 tientallen
07719 06713 14 01330    	STRD	DSP57_2	!display 57 honderdtallen
07720 06714 14 01331    	STRD	DSP57_3	!display 57 duizendtallen
07721 06715 08 00034.0    SET0  TIMER_57
07722                   
07723 06716 16 00145.3  	AND	V11_2
07724 06717 17 00126.2    ANDNT V11_2_O !eindschak.afsluiter V11.2 geopend
07725 06718 16 00044.2  	AND	REG0B00	!start regen. fasen 8 t/m 33.1
07726 06719 19 00145.3  	ORNT	V11_2
07727 06720 17 00126.3    ANDNT V11_2_C !eindschak.afsluiter V11.2 gesloten
07728 06721 16 00044.2  	AND	REG0B00	!start regen. fasen 8 t/m 33.1
07729 06722 02 00014.1    EQL DUMP_40
07730                   
07731 06723 16 00511.1  	AND	S_1SEC	!triggerpuls 1,0 sec.
07732 06724 16 00014.1    AND DUMP_40
07733 06725 17 00034.1    ANDNT TIMER_58
07734 06726 06 01332    	CNTD	DSP58_0	!display 58 eenheden
07735 06727 06 01333    	CNTD	DSP58_1	!display 58 tientallen
07736 06728 06 01334    	CNTD	DSP58_2	!display 58 honderdtallen
07737 06729 06 01335    	CNTD	DSP58_3	!display 58 duizendtallen
07738 06730 10 00034.1    STRB  TIMER_58
07739                   
07740 06731 17 00014.1    ANDNT DUMP_40
07741 06732 18 00049.2  	OR	ALARM23	!V11.2 niet geopend
07742 06733 13 02232    	FTCHD	STP58_0	!setpoint 58 eenheden
07743 06734 13 02233    	FTCHD	STP58_1	!setpoint 58 tientallen
07744 06735 13 02234    	FTCHD	STP58_2	!setpoint 58 honderdtallen
07745 06736 13 02235    	FTCHD	STP58_3	!setpoint 58 duizendtallen
07746 06737 14 01332    	STRD	DSP58_0	!display 58 eenheden
07747 06738 14 01333    	STRD	DSP58_1	!display 58 tientallen
07748 06739 14 01334    	STRD	DSP58_2	!display 58 honderdtallen
07749 06740 14 01335    	STRD	DSP58_3	!display 58 duizendtallen
07750 06741 08 00034.1    SET0  TIMER_58
07751                   
07752 06742 16 00146.0  	AND	V11_3
07753 06743 17 00127.0    ANDNT V11_3_O !eindschak.afsluiter V11.3 geopend
07754 06744 16 00044.2  	AND	REG0B00	!start regen. fasen 8 t/m 33.1
07755 06745 19 00146.0  	ORNT	V11_3
07756 06746 17 00127.1    ANDNT V11_3_C !eindschak.afsluiter V11.3 gesloten
07757 06747 16 00044.2  	AND	REG0B00	!start regen. fasen 8 t/m 33.1
07758 06748 02 00014.2    EQL DUMP_41
07759                   
07760 06749 16 00511.1  	AND	S_1SEC	!triggerpuls 1,0 sec.
07761 06750 16 00014.2    AND DUMP_41
07762 06751 17 00034.2    ANDNT TIMER_59
07763 06752 06 01336    	CNTD	DSP59_0	!display 59 eenheden
07764 06753 06 01337    	CNTD	DSP59_1	!display 59 tientallen
07765 06754 06 01338    	CNTD	DSP59_2	!display 59 honderdtallen
07766 06755 06 01339    	CNTD	DSP59_3	!display 59 duizendtallen
07767 06756 10 00034.2    STRB  TIMER_59
07768                   
07769 06757 17 00014.2    ANDNT DUMP_41
07770 06758 18 00050.0  	OR	ALARM25	!V11.3 niet geopend
07771 06759 13 02236    	FTCHD	STP59_0	!setpoint 59 eenheden
07772 06760 13 02237    	FTCHD	STP59_1	!setpoint 59 tientallen
07773 06761 13 02238    	FTCHD	STP59_2	!setpoint 59 honderdtallen
07774 06762 13 02239    	FTCHD	STP59_3	!setpoint 59 duizendtallen
07775 06763 14 01336    	STRD	DSP59_0	!display 59 eenheden
07776 06764 14 01337    	STRD	DSP59_1	!display 59 tientallen
07777 06765 14 01338    	STRD	DSP59_2	!display 59 honderdtallen
07778 06766 14 01339    	STRD	DSP59_3	!display 59 duizendtallen
07779 06767 08 00034.2    SET0  TIMER_59
07780                   
07781 06768 16 00146.1  	AND	V12_1
07782 06769 17 00127.2    ANDNT V12_1_O !eindschak.afsluiter V12.1 geopend
07783 06770 19 00146.1  	ORNT	V12_1
07784 06771 17 00127.3    ANDNT V12_1_C !eindschak.afsluiter V12.1 gesloten
07785 06772 02 00014.3    EQL DUMP_42
07786                   
07787 06773 16 00511.1  	AND	S_1SEC	!triggerpuls 1,0 sec.
07788 06774 16 00014.3    AND DUMP_42
07789 06775 17 00034.3    ANDNT TIMER_60
07790 06776 06 01340    	CNTD	DSP60_0	!display 60 eenheden
07791 06777 06 01341    	CNTD	DSP60_1	!display 60 tientallen
07792 06778 06 01342    	CNTD	DSP60_2	!display 60 honderdtallen
07793 06779 06 01343    	CNTD	DSP60_3	!display 60 duizendtallen
07794 06780 10 00034.3    STRB  TIMER_60
07795                   
07796 06781 17 00014.3    ANDNT DUMP_42
07797 06782 18 00050.2  	OR	ALARM27	!V12.1 niet geopend
07798 06783 13 02240    	FTCHD	STP60_0	!setpoint 60 eenheden
07799 06784 13 02241    	FTCHD	STP60_1	!setpoint 60 tientallen
07800 06785 13 02242    	FTCHD	STP60_2	!setpoint 60 honderdtallen
07801 06786 13 02243    	FTCHD	STP60_3	!setpoint 60 duizendtallen
07802 06787 14 01340    	STRD	DSP60_0	!display 60 eenheden
07803 06788 14 01341    	STRD	DSP60_1	!display 60 tientallen
07804 06789 14 01342    	STRD	DSP60_2	!display 60 honderdtallen
07805 06790 14 01343    	STRD	DSP60_3	!display 60 duizendtallen
07806 06791 08 00034.3    SET0  TIMER_60
07807                   !
07808                   ! Maken van de alarmen indien een klepstand niet overeenkomt met de
07809                   ! aansturing
07810                   !
07811 06792 16 00141.0  	AND	V1_1
07812 06793 16 00032.0    AND TIMER_49
07813 06794 02 00045.0  	EQL	ALARM29	!V 1.1 niet geopend
07814                   
07815 06795 17 00141.0  	ANDNT	V1_1
07816 06796 16 00032.0    AND TIMER_49
07817 06797 02 00045.1  	EQL	ALARM30	!V 1.1 niet gesloten
07818                   
07819 06798 16 00141.3  	AND	V3_1
07820 06799 16 00032.1    AND TIMER_50
07821 06800 02 00045.2  	EQL	ALARM31	!V 3.1 niet geopend
07822                   
07823 06801 17 00141.3  	ANDNT	V3_1
07824 06802 16 00032.1    AND TIMER_50
07825 06803 02 00045.3  	EQL	ALARM32	!V 3.1 niet gesloten
07826                   
07827 06804 16 00142.2  	AND	V5_1
07828 06805 16 00032.2    AND TIMER_51
07829 06806 02 00046.0  	EQL	ALARM33	!V 5.1 niet geopend
07830                   
07831 06807 17 00142.2  	ANDNT	V5_1
07832 06808 16 00032.2    AND TIMER_51
07833 06809 02 00046.1  	EQL	ALARM34	!V 5.1 niet gesloten
07834                   
07835 06810 16 00143.1  	AND	V7_1
07836 06811 16 00032.3    AND TIMER_52
07837 06812 02 00046.2  	EQL	ALARM35	!V 7.1 niet geopend
07838                   
07839 06813 17 00143.1  	ANDNT	V7_1
07840 06814 16 00032.3    AND TIMER_52
07841 06815 02 00046.3  	EQL	ALARM36	!V 7.1 niet gesloten
07842                   
07843 06816 16 00144.2  	AND	V10_1
07844 06817 16 00033.0    AND TIMER_53
07845 06818 02 00047.0  	EQL	ALARM13	!V10.1 niet geopend
07846                   
07847 06819 17 00144.2  	ANDNT	V10_1
07848 06820 16 00033.0    AND TIMER_53
07849 06821 02 00047.1  	EQL	ALARM14	!V10.1 niet gesloten
07850                   
07851 06822 16 00144.3  	AND	V10_2
07852 06823 16 00033.1    AND TIMER_54
07853 06824 02 00047.2  	EQL	ALARM15	!V10.2 niet geopend
07854                   
07855 06825 17 00144.3  	ANDNT	V10_2
07856 06826 16 00033.1    AND TIMER_54
07857 06827 02 00047.3  	EQL	ALARM16	!V10.2 niet gesloten
07858                   
07859 06828 16 00145.0  	AND	V10_3
07860 06829 16 00033.2    AND TIMER_55
07861 06830 02 00048.0  	EQL	ALARM17	!V10.3 niet geopend
07862                   
07863 06831 17 00145.0  	ANDNT	V10_3
07864 06832 16 00033.2    AND TIMER_55
07865 06833 02 00048.1  	EQL	ALARM18	!V10.3 niet gesloten
07866                   
07867 06834 16 00145.1  	AND	V10_4
07868 06835 16 00033.3    AND TIMER_56
07869 06836 02 00048.2  	EQL	ALARM19	!V10.4 niet geopend
07870                   
07871 06837 17 00145.1  	ANDNT	V10_4
07872 06838 16 00033.3    AND TIMER_56
07873 06839 02 00048.3  	EQL	ALARM20	!V10.4 niet gesloten
07874                   
07875 06840 16 00145.2  	AND	V11_1
07876 06841 16 00034.0    AND TIMER_57
07877 06842 02 00049.0  	EQL	ALARM21	!V11.1 niet geopend
07878                   
07879 06843 17 00145.2  	ANDNT	V11_1
07880 06844 16 00034.0    AND TIMER_57
07881 06845 02 00049.1  	EQL	ALARM22	!V11.1 niet gesloten
07882                   
07883 06846 16 00145.3  	AND	V11_2
07884 06847 16 00034.1    AND TIMER_58
07885 06848 02 00049.2  	EQL	ALARM23	!V11.2 niet geopend
07886                   
07887 06849 17 00145.3  	ANDNT	V11_2
07888 06850 16 00034.1    AND TIMER_58
07889 06851 02 00049.3  	EQL	ALARM24	!V11.2 niet gesloten
07890                   
07891 06852 16 00146.0  	AND	V11_3
07892 06853 16 00034.2    AND TIMER_59
07893 06854 02 00050.0  	EQL	ALARM25	!V11.3 niet geopend
07894                   
07895 06855 17 00146.0  	ANDNT	V11_3
07896 06856 16 00034.2    AND TIMER_59
07897 06857 02 00050.1  	EQL	ALARM26	!V11.3 niet gesloten
07898                   
07899 06858 16 00146.1  	AND	V12_1
07900 06859 16 00034.3    AND TIMER_60
07901 06860 02 00050.2  	EQL	ALARM27	!V12.1 niet geopend
07902                   
07903 06861 17 00146.1  	ANDNT	V12_1
07904 06862 16 00034.3    AND TIMER_60
07905 06863 02 00050.3  	EQL	ALARM28	!V12.1 niet gesloten
07906 06864 00          	NOP	136
07906 06865 00 
07906 06866 00 
07906 06867 00 
07906 06868 00 
07906 06869 00 
07906 06870 00 
07906 06871 00 
07906 06872 00 
07906 06873 00 
07906 06874 00 
07906 06875 00 
07906 06876 00 
07906 06877 00 
07906 06878 00 
07906 06879 00 
07906 06880 00 
07906 06881 00 
07906 06882 00 
07906 06883 00 
07906 06884 00 
07906 06885 00 
07906 06886 00 
07906 06887 00 
07906 06888 00 
07906 06889 00 
07906 06890 00 
07906 06891 00 
07906 06892 00 
07906 06893 00 
07906 06894 00 
07906 06895 00 
07906 06896 00 
07906 06897 00 
07906 06898 00 
07906 06899 00 
07906 06900 00 
07906 06901 00 
07906 06902 00 
07906 06903 00 
07906 06904 00 
07906 06905 00 
07906 06906 00 
07906 06907 00 
07906 06908 00 
07906 06909 00 
07906 06910 00 
07906 06911 00 
07906 06912 00 
07906 06913 00 
07906 06914 00 
07906 06915 00 
07906 06916 00 
07906 06917 00 
07906 06918 00 
07906 06919 00 
07906 06920 00 
07906 06921 00 
07906 06922 00 
07906 06923 00 
07906 06924 00 
07906 06925 00 
07906 06926 00 
07906 06927 00 
07906 06928 00 
07906 06929 00 
07906 06930 00 
07906 06931 00 
07906 06932 00 
07906 06933 00 
07906 06934 00 
07906 06935 00 
07906 06936 00 
07906 06937 00 
07906 06938 00 
07906 06939 00 
07906 06940 00 
07906 06941 00 
07906 06942 00 
07906 06943 00 
07906 06944 00 
07906 06945 00 
07906 06946 00 
07906 06947 00 
07906 06948 00 
07906 06949 00 
07906 06950 00 
07906 06951 00 
07906 06952 00 
07906 06953 00 
07906 06954 00 
07906 06955 00 
07906 06956 00 
07906 06957 00 
07906 06958 00 
07906 06959 00 
07906 06960 00 
07906 06961 00 
07906 06962 00 
07906 06963 00 
07906 06964 00 
07906 06965 00 
07906 06966 00 
07906 06967 00 
07906 06968 00 
07906 06969 00 
07906 06970 00 
07906 06971 00 
07906 06972 00 
07906 06973 00 
07906 06974 00 
07906 06975 00 
07906 06976 00 
07906 06977 00 
07906 06978 00 
07906 06979 00 
07906 06980 00 
07906 06981 00 
07906 06982 00 
07906 06983 00 
07906 06984 00 
07906 06985 00 
07906 06986 00 
07906 06987 00 
07906 06988 00 
07906 06989 00 
07906 06990 00 
07906 06991 00 
07906 06992 00 
07906 06993 00 
07906 06994 00 
07906 06995 00 
07906 06996 00 
07906 06997 00 
07906 06998 00 
07906 06999 00 
07907                   !                               DR_ALM
07908                   !				******
07909                   !
07910                   ! Spoeldruk te hoog
07911                   !
07912 07000 16 00141.1  	AND	V1_2
07913 07001 18 00142.0  	OR	V3_2
07914 07002 18 00142.3  	OR	V5_2
07915 07003 02 00341.0  	EQL	ALM0B24	!aansturing V1.2,of V3.2,of V5.2
07916                   
07917 07004 16 00118.0  	AND	ALM0I01	!spoeldruk correct
07918 07005 19 00341.0  	ORNT	ALM0B24	!aansturing V1.2,of V3.2,of V5.2
07919 07006 13 02244    	FTCHD	STP61_0	!setpoint 61 eenheden
07920 07007 13 02245    	FTCHD	STP61_1	!setpoint 61 tientallen
07921 07008 13 02246    	FTCHD	STP61_2	!setpoint 61 honderdtallen
07922 07009 13 02247    	FTCHD	STP61_3	!setpoint 61 duizendtallen
07923 07010 14 01344    	STRD	DSP61_0	!display 61 eenheden
07924 07011 14 01345    	STRD	DSP61_1	!display 61 tientallen
07925 07012 14 01346    	STRD	DSP61_2	!display 61 honderdtallen
07926 07013 14 01347    	STRD	DSP61_3	!display 61 duizendtallen
07927 07014 08 00335.1  	SET0	ALM0B01	!timer spoeldrukbewaking
07928                   
07929 07015 16 00511.1  	AND	S_1SEC	!triggerpuls 1,0 sec.
07930 07016 17 00118.0  	ANDNT	ALM0I01	!spoeldruk correct
07931 07017 16 00341.0  	AND	ALM0B24	!aansturing V1.2,of V3.2,of V5.2
07932 07018 17 00335.1  	ANDNT	ALM0B01	!timer spoeldrukbewaking
07933 07019 06 01344    	CNTD	DSP61_0	!display 61 eenheden
07934 07020 06 01345    	CNTD	DSP61_1	!display 61 tientallen
07935 07021 06 01346    	CNTD	DSP61_2	!display 61 honderdtallen
07936 07022 06 01347    	CNTD	DSP61_3	!display 61 duizendtallen
07937 07023 10 00335.1  	STRB	ALM0B01	!timer spoeldrukbewaking
07938                   
07939 07024 16 00335.1  	AND	ALM0B01	!timer spoeldrukbewaking
07940 07025 02 00320.0  	EQL	ALARM01	!spoeldruk te hoog
07941                   !
07942                   ! stuurlucht alarm
07943                   !
07944 07026 17 00112.0  	ANDNT	ALM0I02	!stuurlucht te laag
07945 07027 01 00341.3  	TRIG	ALM0T03	!triggerpuls
07946 07028 02 00339.0  	EQL	ALM0B16
07947                   
07948 07029 16 00339.0  	AND	ALM0B16
07949 07030 18 00112.0  	OR	ALM0I02	!stuurlucht te laag
07950 07031 13 02256    	FTCHD	STP64_0	!setpoint 64 eenheden
07951 07032 13 02257    	FTCHD	STP64_1	!setpoint 64 tientallen
07952 07033 13 02258    	FTCHD	STP64_2	!setpoint 64 honderdtallen
07953 07034 13 02259    	FTCHD	STP64_3	!setpoint 64 duizendtallen
07954 07035 14 01356    	STRD	DSP64_0	!display 64 eenheden
07955 07036 14 01357    	STRD	DSP64_1	!display 64 tientallen
07956 07037 14 01358    	STRD	DSP64_2	!display 64 honderdtallen
07957 07038 14 01359    	STRD	DSP64_3	!display 64 duizendtallen
07958 07039 08 00339.1  	SET0	ALM0B17
07959                   
07960 07040 16 00511.1  	AND	S_1SEC	!triggerpuls 1,0 sec.
07961 07041 17 00112.0  	ANDNT	ALM0I02	!stuurlucht te laag
07962 07042 17 00339.1  	ANDNT	ALM0B17
07963 07043 06 01356    	CNTD	DSP64_0	!display 64 eenheden
07964 07044 06 01357    	CNTD	DSP64_1	!display 64 tientallen
07965 07045 06 01358    	CNTD	DSP64_2	!display 64 honderdtallen
07966 07046 06 01359    	CNTD	DSP64_3	!display 64 duizendtallen
07967 07047 10 00339.1  	STRB	ALM0B17
07968                   
07969 07048 16 00339.1  	AND	ALM0B17
07970 07049 02 00320.1  	EQL	ALARM02	!stuurlucht gestoord
07971                   !
07972                   ! stuurspanning alarm
07973                   !
07974 07050 17 00120.0  	ANDNT	ALM0I03	!stuursp. gestoord
07975 07051 02 00320.2  	EQL	ALARM03	!stuurspanning gestoord
07976                   !
07977                   ! vuilwatertank bijna leeg
07978                   !
07979 07052 17 00119.0    ANDNT ALM0I04 !LN_vooralarm vuilwatertank
07980 07053 02 00320.3  	EQL	ALARM04	!vuilwatertank bijna leeg
07981                   !
07982                   ! vuilwatertank leeg
07983                   !
07984 07054 17 00119.1    ANDNT ALM0I05 !LN_alarm vuilwatertank
07985 07055 02 00321.0  	EQL	ALARM05	!vuilwatertank leeg
07986                   !
07987                   ! geleidbaarheidalarm na regeneratie of bedrijf
07988                   !
07989 07056 16 00044.1  	AND	REG0B34	!regeneratiefase 33.1
07990 07057 01 00341.1  	TRIG	ALM0T01	!triggerpuls
07991 07058 02 00335.2  	EQL	ALM0B02	!triggerpuls fase 33.1
07992                   
07993 07059 16 00335.2  	AND	ALM0B02	!triggerpuls fase 33.1
07994 07060 16 00117.0  	AND	ALM0I44	!slechte geleidb.h. reinwater
07995 07061 18 00336.2  	OR	ALM0B06	!tijdvertr.alarm geleidb.h. bedrijf
07996 07062 18 00054.3  	OR	TMRAAN88	!timer aanloopfase 88
07997 07063 02 00324.3  	EQL	ALARM44	!rho proceswater
07998                   !
07999                   ! tijdvertraging rioolbedrijf t.g.v. slechte geleidendheid
08000                   !
08001 07064 19 00117.0  	ORNT	ALM0I44	!slechte geleidb.h. reinwater
08002 07065 18 00121.1  	OR	RESET
08003 07066 13 02248    	FTCHD	STP62_0	!setpoint 62 eenheden
08004 07067 13 02249    	FTCHD	STP62_1	!setpoint 62 tientallen
08005 07068 13 02250    	FTCHD	STP62_2	!setpoint 62 honderdtallen
08006 07069 13 02251    	FTCHD	STP62_3	!setpoint 62 duizendtallen
08007 07070 14 01348    	STRD	DSP62_0	!display 62 eenheden
08008 07071 14 01349    	STRD	DSP62_1	!display 62 tientallen
08009 07072 14 01350    	STRD	DSP62_2	!display 62 honderdtallen
08010 07073 14 01351    	STRD	DSP62_3	!display 62 duizendtallen
08011 07074 08 00336.0  	SET0	ALM0B04	!tijdvertr. rho alarm proceswater
08012                   
08013 07075 16 00511.1  	AND	S_1SEC	!triggerpuls 1,0 sec.
08014 07076 16 00054.0  	AND	BDR0B10	!bedrijfsmelding
08015 07077 16 00117.0  	AND	ALM0I44	!slechte geleidb.h. reinwater
08016 07078 17 00044.3  	ANDNT	REG0B88	!aanloopfase 88
08017 07079 17 00336.0  	ANDNT	ALM0B04	!tijdvertr. rho alarm proceswater
08018 07080 06 01348    	CNTD	DSP62_0	!display 62 eenheden
08019 07081 06 01349    	CNTD	DSP62_1	!display 62 tientallen
08020 07082 06 01350    	CNTD	DSP62_2	!display 62 honderdtallen
08021 07083 06 01351    	CNTD	DSP62_3	!display 62 duizendtallen
08022 07084 10 00336.0  	STRB	ALM0B04	!tijdvertr. rho alarm proceswater
08023                   
08024 07085 17 00336.0  	ANDNT	ALM0B04	!tijdvertr. rho alarm proceswater
08025 07086 13 02252    	FTCHD	STP63_0	!setpoint 63 eenheden
08026 07087 13 02253    	FTCHD	STP63_1	!setpoint 63 tientallen
08027 07088 13 02254    	FTCHD	STP63_2	!setpoint 63 honderdtallen
08028 07089 13 02255    	FTCHD	STP63_3	!setpoint 63 duizendtallen
08029 07090 14 01352    	STRD	DSP63_0	!display 63 eenheden
08030 07091 14 01353    	STRD	DSP63_1	!display 63 tientallen
08031 07092 14 01354    	STRD	DSP63_2	!display 63 honderdtallen
08032 07093 14 01355    	STRD	DSP63_3	!display 63 duizendtallen
08033 07094 08 00336.2  	SET0	ALM0B06	!tijdvertr.alarm geleidb.h. bedrijf
08034                   
08035 07095 16 00511.1  	AND	S_1SEC	!triggerpuls 1,0 sec.
08036 07096 16 00336.0  	AND	ALM0B04	!tijdvertr. rho alarm proceswater
08037 07097 17 00336.2  	ANDNT	ALM0B06	!tijdvertr.alarm geleidb.h. bedrijf
08038 07098 06 01352    	CNTD	DSP63_0	!display 63 eenheden
08039 07099 06 01353    	CNTD	DSP63_1	!display 63 tientallen
08040 07100 06 01354    	CNTD	DSP63_2	!display 63 honderdtallen
08041 07101 06 01355    	CNTD	DSP63_3	!display 63 duizendtallen
08042 07102 10 00336.2  	STRB	ALM0B06	!tijdvertr.alarm geleidb.h. bedrijf
08043                   !
08044                   ! geleidbaarheidalarm na spoelen fase 32
08045                   !
08046 07103 16 00044.0  	AND	REG0B33	!regeneratiefase 33
08047 07104 01 00341.2  	TRIG	ALM0T02	!triggerpuls
08048 07105 02 00335.3  	EQL	ALM0B03
08049                   
08050 07106 16 00335.3  	AND	ALM0B03
08051 07107 16 00117.1  	AND	ALM0I06	!slechte geleidb.h. spoelfase 32
08052 07108 02 00321.1  	EQL	ALARM06	!geleidbaarheid na spoelen
08053                   !
08054                   ! filtercapaciteit te laag
08055                   !
08056 07109 17 00354.3  	ANDNT	REG0B42	!regeneratieaanvraag
08057 07110 16 00374.0  	AND	FLW0B04	!tijdvertr. flowalarm
08058 07111 16 00054.0  	AND	BDR0B10	!bedrijfsmelding
08059 07112 16 00143.1  	AND	V7_1
08060 07113 02 00321.2  	EQL	ALARM07	!filtercapaciteit te laag
08061                   !
08062                   ! concentraatafvoer te laag
08063                   !
08064 07114 16 00374.2  	AND	FLW2B04	!tijdvertr. flowalarm
08065 07115 16 00145.1  	AND	V10_4
08066 07116 02 00321.3  	EQL	ALARM08	!concentraat afvoer gestoord
08067                   !
08068                   ! nivo alarm warme loog
08069                   !
08070 07117 16 00044.2  	AND	REG0B00	!start regen. fasen 8 t/m 33.1
08071 07118 17 00118.2  	ANDNT	ALM0I09	!nivo warme loog
08072 07119 18 00354.3  	OR	REG0B42	!regeneratieaanvraag
08073 07120 17 00118.2  	ANDNT	ALM0I09	!nivo warme loog
08074 07121 02 00322.0  	EQL	ALARM09	!nivo warme loog
08075                   !
08076                   ! nivo alarm zoutzuur
08077                   !
08078 07122 16 00044.2  	AND	REG0B00	!start regen. fasen 8 t/m 33.1
08079 07123 17 00118.3  	ANDNT	ALM0I10	!nivo zoutzuur
08080 07124 18 00354.3  	OR	REG0B42	!regeneratieaanvraag
08081 07125 17 00118.3  	ANDNT	ALM0I10	!nivo zoutzuur
08082 07126 02 00322.1  	EQL	ALARM10	!nivo zoutzuur
08083                   !
08084                   ! temperatuuralarm warme loog
08085                   !
08086 07127 16 00044.2  	AND	REG0B00	!start regen. fasen 8 t/m 33.1
08087 07128 16 00119.3  	AND	TMP0I00	!termostaat warme loog
08088 07129 09 00336.3  	SET1	ALM0B07	!temperatuur loog korrekt
08089                   
08090 07130 17 00044.2  	ANDNT	REG0B00	!start regen. fasen 8 t/m 33.1
08091 07131 08 00336.3  	SET0	ALM0B07	!temperatuur loog korrekt
08092                   
08093 07132 16 00039.3  	AND	REG0B16	!regeneratiefase 16
08094 07133 17 00336.3  	ANDNT	ALM0B07	!temperatuur loog korrekt
08095 07134 02 00322.2  	EQL	ALARM11	!temperatuur loog
08096                   !
08097                   ! nivo neuttank te hoog
08098                   !
08099 07135 16 00112.1  	AND	BDR0I00	!bedrijfskeuze schak. "REGENERATIE"
08100 07136 01 00342.2  	TRIG	ALM0T06	!triggerpuls
08101 07137 02 00343.1  	EQL	ALM0B26	!trigger keuzeschak. REGENERATIE
08102                   
08103 07138 16 00354.3  	AND	REG0B42	!regeneratieaanvraag
08104 07139 18 00343.1  	OR	ALM0B26	!trigger keuzeschak. REGENERATIE
08105 07140 02 00011.3  	EQL	DUMP
08106                   
08107 07141 17 00044.2  	ANDNT	REG0B00	!start regen. fasen 8 t/m 33.1
08108 07142 16 00011.3  	AND	DUMP
08109 07143 17 00119.2  	ANDNT	ALM0I12	!nivo neuttank
08110 07144 02 00322.3  	EQL	ALARM12	!nivo neutralisatie
08111                   !
08112                   ! verzamelalarm looptijdbewaking afsluiters
08113                   !
08114 07145 18 00223.0  	OR	VERGR13
08115 07146 18 00223.1  	OR	VERGR14
08116 07147 18 00223.2  	OR	VERGR15
08117 07148 18 00223.3  	OR	VERGR16
08118 07149 18 00224.0  	OR	VERGR17
08119 07150 18 00224.1  	OR	VERGR18
08120 07151 18 00224.2  	OR	VERGR19
08121 07152 18 00224.3  	OR	VERGR20
08122 07153 18 00225.0  	OR	VERGR21
08123 07154 18 00225.1  	OR	VERGR22
08124 07155 18 00225.2  	OR	VERGR23
08125 07156 18 00225.3  	OR	VERGR24
08126 07157 18 00226.0  	OR	VERGR25
08127 07158 18 00226.1  	OR	VERGR26
08128 07159 18 00226.2  	OR	VERGR27
08129 07160 18 00226.3  	OR	VERGR28
08130 07161 18 00227.0  	OR	VERGR29
08131 07162 18 00227.1  	OR	VERGR30
08132 07163 18 00227.2  	OR	VERGR31
08133 07164 18 00227.3  	OR	VERGR32
08134 07165 18 00228.0  	OR	VERGR33
08135 07166 18 00228.1  	OR	VERGR34
08136 07167 18 00228.2  	OR	VERGR35
08137 07168 18 00228.3  	OR	VERGR36
08138 07169 02 00337.0  	EQL	ALM0B08	!een of meerdere afsl.gestoord
08139 07170 00          	NOP	3
08139 07171 00 
08139 07172 00 
08140                   !
08141                   ! rondpompdruk P10 te hoog
08142                   !
08143 07173 16 00117.3  	AND	ALM0I37	!rondpompdruk correct
08144 07174 13 02260    	FTCHD	STP65_0	!setpoint 65 eenheden
08145 07175 13 02261    	FTCHD	STP65_1	!setpoint 65 tientallen
08146 07176 13 02262    	FTCHD	STP65_2	!setpoint 65 honderdtallen
08147 07177 13 02263    	FTCHD	STP65_3	!setpoint 65 duizendtallen
08148 07178 14 01360    	STRD	DSP65_0	!display 65 eenheden
08149 07179 14 01361    	STRD	DSP65_1	!display 65 tientallen
08150 07180 14 01362    	STRD	DSP65_2	!display 65 honderdtallen
08151 07181 14 01363    	STRD	DSP65_3	!display 65 duizendtallen
08152 07182 08 00339.3  	SET0	ALM0B19
08153                   
08154 07183 16 00511.1  	AND	S_1SEC	!triggerpuls 1,0 sec.
08155 07184 17 00117.3  	ANDNT	ALM0I37	!rondpompdruk correct
08156 07185 17 00339.3  	ANDNT	ALM0B19
08157 07186 06 01360    	CNTD	DSP65_0	!display 65 eenheden
08158 07187 06 01361    	CNTD	DSP65_1	!display 65 tientallen
08159 07188 06 01362    	CNTD	DSP65_2	!display 65 honderdtallen
08160 07189 06 01363    	CNTD	DSP65_3	!display 65 duizendtallen
08161 07190 10 00339.3  	STRB	ALM0B19
08162                   
08163 07191 16 00339.3  	AND	ALM0B19
08164 07192 16 00140.1    AND POMP_P10
08165 07193 02 00323.0  	EQL	ALARM37	!P10 rondpompdruk te hoog
08166                   !
08167                   ! P10 niet paraat
08168                   !
08169 07194 17 00116.0  	ANDNT	BDR0I07	!P10 automatisch
08170 07195 18 00115.2  	OR	ALM0I39	!P10 therm. gestoord
08171 07196 02 00011.3  	EQL	DUMP
08172                   
08173 07197 16 00011.3  	AND	DUMP
08174 07198 16 00112.3  	AND	BDR0I02	!bedrijfskeuze schak. "NORMAAL"
08175 07199 02 00337.1  	EQL	ALM0B09	!alarmmelding P10
08176                   
08177 07200 16 00011.3  	AND	DUMP
08178 07201 16 00112.1  	AND	BDR0I00	!bedrijfskeuze schak. "REGENERATIE"
08179 07202 02 00337.2  	EQL	ALM0B10	!alarmmelding P10
08180                   
08181 07203 16 00337.1  	AND	ALM0B09	!alarmmelding P10
08182 07204 18 00337.2  	OR	ALM0B10	!alarmmelding P10
08183 07205 02 00323.2  	EQL	ALARM39	!P10 niet paraat
08184                   !
08185                   ! P11 niet paraat
08186                   !
08187 07206 17 00116.1  	ANDNT	REG0I07	!P11 paraat
08188 07207 16 00044.2  	AND	REG0B00	!start regen. fasen 8 t/m 33.1
08189 07208 18 00354.3  	OR	REG0B42	!regeneratieaanvraag
08190 07209 17 00116.1  	ANDNT	REG0I07	!P11 paraat
08191 07210 02 00323.3  	EQL	ALARM40	!P11 niet paraat
08192                   !
08193                   ! nivo proceswater
08194                   !
08195 07211 17 00044.2  	ANDNT	REG0B00	!start regen. fasen 8 t/m 33.1
08196 07212 17 00354.3  	ANDNT	REG0B42	!regeneratieaanvraag
08197 07213 18 00120.1  	OR	ALM0I42	!nivo proceswater
08198 07214 03 00324.1  	EQLNT	ALARM42	!nivo proceswater
08199 07215 00          	NOP	4
08199 07216 00 
08199 07217 00 
08199 07218 00 
08200                   !
08201                   ! druk vuil proceswater
08202                   !
08203 07219 16 00117.2  	AND	ALM0I43	!druk vuilproceswater correct
08204 07220 13 02264    	FTCHD	STP66_0	!setpoint 66 eenheden
08205 07221 13 02265    	FTCHD	STP66_1	!setpoint 66 tientallen
08206 07222 13 02266    	FTCHD	STP66_2	!setpoint 66 honderdtallen
08207 07223 13 02267    	FTCHD	STP66_3	!setpoint 66 duizendtallen
08208 07224 14 01364    	STRD	DSP66_0	!display 66 eenheden
08209 07225 14 01365    	STRD	DSP66_1	!display 66 tientallen
08210 07226 14 01366    	STRD	DSP66_2	!display 66 honderdtallen
08211 07227 14 01367    	STRD	DSP66_3	!display 66 duizendtallen
08212 07228 08 00340.1  	SET0	ALM0B21
08213                   
08214 07229 16 00511.1  	AND	S_1SEC	!triggerpuls 1,0 sec.
08215 07230 17 00117.2  	ANDNT	ALM0I43	!druk vuilproceswater correct
08216 07231 17 00340.1  	ANDNT	ALM0B21
08217 07232 06 01364    	CNTD	DSP66_0	!display 66 eenheden
08218 07233 06 01365    	CNTD	DSP66_1	!display 66 tientallen
08219 07234 06 01366    	CNTD	DSP66_2	!display 66 honderdtallen
08220 07235 06 01367    	CNTD	DSP66_3	!display 66 duizendtallen
08221 07236 10 00340.1  	STRB	ALM0B21
08222                   
08223 07237 16 00340.1  	AND	ALM0B21
08224 07238 02 00324.2  	EQL	ALARM43	!druk vuilproceswater
08225                   !
08226                   ! spoeldruk te hoog
08227                   !
08228 07239 17 00121.1  	ANDNT	RESET
08229 07240 16 00260.0  	AND	ALM1B01
08230 07241 18 00320.0  	OR	ALARM01	!spoeldruk te hoog
08231 07242 02 00011.3  	EQL	DUMP
08232                   
08233 07243 16 00011.3  	AND	DUMP
08234 07244 17 00300.0  	ANDNT	ALM3B01
08235 07245 02 00260.0  	EQL	ALM1B01
08236                   
08237 07246 18 00121.1  	OR	RESET
08238 07247 18 00300.0  	OR	ALM3B01
08239 07248 02 00280.0  	EQL	ALM2B01
08240                   
08241 07249 16 00280.0  	AND	ALM2B01
08242 07250 16 00320.0  	AND	ALARM01	!spoeldruk te hoog
08243 07251 02 00300.0  	EQL	ALM3B01
08244                   
08245 07252 16 00260.0  	AND	ALM1B01
08246 07253 16 00001.1  	AND	KNIPPER
08247 07254 18 00300.0  	OR	ALM3B01
08248 07255 02 00240.0  	EQL	MELD01
08249                   
08250 07256 18 00240.0  	OR	MELD01
08251 07257 18 00260.0  	OR	ALM1B01
08252 07258 02 00220.0  	EQL	VERGR01
08253                   
08254 07259 16 00220.0  	AND	VERGR01
08255 07260 17 00300.0  	ANDNT	ALM3B01
08256 07261 02 00200.0  	EQL	CA01
08257                   !
08258                   ! stuurlucht gestoord
08259                   !
08260 07262 17 00121.1  	ANDNT	RESET
08261 07263 16 00260.1  	AND	ALM1B02
08262 07264 18 00320.1  	OR	ALARM02	!stuurlucht gestoord
08263 07265 02 00011.3  	EQL	DUMP
08264                   
08265 07266 16 00011.3  	AND	DUMP
08266 07267 17 00300.1  	ANDNT	ALM3B02
08267 07268 02 00260.1  	EQL	ALM1B02
08268                   
08269 07269 18 00121.1  	OR	RESET
08270 07270 18 00300.1  	OR	ALM3B02
08271 07271 02 00280.1  	EQL	ALM2B02
08272                   
08273 07272 16 00280.1  	AND	ALM2B02
08274 07273 16 00320.1  	AND	ALARM02	!stuurlucht gestoord
08275 07274 02 00300.1  	EQL	ALM3B02
08276                   
08277 07275 16 00260.1  	AND	ALM1B02
08278 07276 16 00001.1  	AND	KNIPPER
08279 07277 18 00300.1  	OR	ALM3B02
08280 07278 02 00240.1  	EQL	MELD02
08281                   
08282 07279 18 00240.1  	OR	MELD02
08283 07280 18 00260.1  	OR	ALM1B02
08284 07281 02 00220.1  	EQL	VERGR02	!stuurlucht gestoord
08285                   
08286 07282 16 00220.1  	AND	VERGR02	!stuurlucht gestoord
08287 07283 17 00300.1  	ANDNT	ALM3B02
08288 07284 02 00200.1  	EQL	CA02
08289                   !
08290                   ! stuurspanning gestoord
08291                   !
08292 07285 17 00121.1  	ANDNT	RESET
08293 07286 16 00260.2  	AND	ALM1B03
08294 07287 18 00320.2  	OR	ALARM03	!stuurspanning gestoord
08295 07288 02 00011.3  	EQL	DUMP
08296                   
08297 07289 16 00011.3  	AND	DUMP
08298 07290 17 00300.2  	ANDNT	ALM3B03
08299 07291 02 00260.2  	EQL	ALM1B03
08300                   
08301 07292 18 00121.1  	OR	RESET
08302 07293 18 00300.2  	OR	ALM3B03
08303 07294 02 00280.2  	EQL	ALM2B03
08304                   
08305 07295 16 00280.2  	AND	ALM2B03
08306 07296 16 00320.2  	AND	ALARM03	!stuurspanning gestoord
08307 07297 02 00300.2  	EQL	ALM3B03
08308                   
08309 07298 16 00260.2  	AND	ALM1B03
08310 07299 16 00001.1  	AND	KNIPPER
08311 07300 18 00300.2  	OR	ALM3B03
08312 07301 02 00240.2  	EQL	MELD03
08313                   
08314 07302 18 00240.2  	OR	MELD03
08315 07303 18 00260.2  	OR	ALM1B03
08316 07304 02 00220.2  	EQL	VERGR03	!stuurspanning gestoord
08317                   
08318 07305 16 00220.2  	AND	VERGR03	!stuurspanning gestoord
08319 07306 17 00300.2  	ANDNT	ALM3B03
08320 07307 02 00200.2  	EQL	CA03
08321                   !
08322                   ! vuilwatertank bijna leeg
08323                   !
08324 07308 17 00121.1  	ANDNT	RESET
08325 07309 16 00260.3  	AND	ALM1B04
08326 07310 18 00320.3  	OR	ALARM04	!vuilwatertank bijna leeg
08327 07311 02 00011.3  	EQL	DUMP
08328                   
08329 07312 16 00011.3  	AND	DUMP
08330 07313 17 00300.3  	ANDNT	ALM3B04
08331 07314 02 00260.3  	EQL	ALM1B04
08332                   
08333 07315 18 00121.1  	OR	RESET
08334 07316 18 00300.3  	OR	ALM3B04
08335 07317 02 00280.3  	EQL	ALM2B04
08336                   
08337 07318 16 00280.3  	AND	ALM2B04
08338 07319 16 00320.3  	AND	ALARM04	!vuilwatertank bijna leeg
08339 07320 02 00300.3  	EQL	ALM3B04
08340                   
08341 07321 16 00260.3  	AND	ALM1B04
08342 07322 16 00001.1  	AND	KNIPPER
08343 07323 18 00300.3  	OR	ALM3B04
08344 07324 02 00240.3  	EQL	MELD04
08345                   
08346 07325 18 00240.3  	OR	MELD04
08347 07326 18 00260.3  	OR	ALM1B04
08348 07327 02 00220.3  	EQL	VERGR04
08349                   
08350 07328 16 00220.3  	AND	VERGR04
08351 07329 17 00300.3  	ANDNT	ALM3B04
08352 07330 02 00200.3  	EQL	CA04
08353                   !
08354                   ! vuilwatertank leeg
08355                   !
08356 07331 17 00121.1  	ANDNT	RESET
08357 07332 16 00261.0  	AND	ALM1B05
08358 07333 18 00321.0  	OR	ALARM05	!vuilwatertank leeg
08359 07334 02 00011.3  	EQL	DUMP
08360                   
08361 07335 16 00011.3  	AND	DUMP
08362 07336 17 00301.0  	ANDNT	ALM3B05
08363 07337 02 00261.0  	EQL	ALM1B05
08364                   
08365 07338 18 00121.1  	OR	RESET
08366 07339 18 00301.0  	OR	ALM3B05
08367 07340 02 00281.0  	EQL	ALM2B05
08368                   
08369 07341 16 00281.0  	AND	ALM2B05
08370 07342 16 00321.0  	AND	ALARM05	!vuilwatertank leeg
08371 07343 02 00301.0  	EQL	ALM3B05
08372                   
08373 07344 16 00261.0  	AND	ALM1B05
08374 07345 16 00001.1  	AND	KNIPPER
08375 07346 18 00301.0  	OR	ALM3B05
08376 07347 02 00241.0  	EQL	MELD05
08377                   
08378 07348 18 00241.0  	OR	MELD05
08379 07349 18 00261.0  	OR	ALM1B05
08380 07350 02 00221.0  	EQL	VERGR05	!vuilwater tank leeg
08381                   
08382 07351 16 00221.0  	AND	VERGR05	!vuilwater tank leeg
08383 07352 17 00301.0  	ANDNT	ALM3B05
08384 07353 02 00201.0  	EQL	CA05
08385                   !
08386                   ! rho na het spoelen
08387                   !
08388 07354 17 00121.1  	ANDNT	RESET
08389 07355 16 00261.1  	AND	ALM1B06
08390 07356 18 00321.1  	OR	ALARM06	!geleidbaarheid na spoelen
08391 07357 02 00011.3  	EQL	DUMP
08392                   
08393 07358 16 00011.3  	AND	DUMP
08394 07359 17 00301.1  	ANDNT	ALM3B06
08395 07360 02 00261.1  	EQL	ALM1B06
08396                   
08397 07361 18 00121.1  	OR	RESET
08398 07362 18 00301.1  	OR	ALM3B06
08399 07363 02 00281.1  	EQL	ALM2B06
08400                   
08401 07364 16 00281.1  	AND	ALM2B06
08402 07365 16 00321.1  	AND	ALARM06	!geleidbaarheid na spoelen
08403 07366 02 00301.1  	EQL	ALM3B06
08404                   
08405 07367 16 00261.1  	AND	ALM1B06
08406 07368 16 00001.1  	AND	KNIPPER
08407 07369 18 00301.1  	OR	ALM3B06
08408 07370 02 00241.1  	EQL	MELD06
08409                   
08410 07371 18 00241.1  	OR	MELD06
08411 07372 18 00261.1  	OR	ALM1B06
08412 07373 02 00221.1  	EQL	VERGR06
08413                   
08414 07374 16 00221.1  	AND	VERGR06
08415 07375 17 00301.1  	ANDNT	ALM3B06
08416 07376 02 00201.1  	EQL	CA06
08417                   !
08418                   ! filtercapaciteit te laag
08419                   !
08420 07377 17 00121.1  	ANDNT	RESET
08421 07378 16 00261.2  	AND	ALM1B07
08422 07379 18 00321.2  	OR	ALARM07	!filtercapaciteit te laag
08423 07380 02 00011.3  	EQL	DUMP
08424                   
08425 07381 16 00011.3  	AND	DUMP
08426 07382 17 00301.2  	ANDNT	ALM3B07
08427 07383 02 00261.2  	EQL	ALM1B07
08428                   
08429 07384 18 00121.1  	OR	RESET
08430 07385 18 00301.2  	OR	ALM3B07
08431 07386 02 00281.2  	EQL	ALM2B07
08432                   
08433 07387 16 00281.2  	AND	ALM2B07
08434 07388 16 00321.2  	AND	ALARM07	!filtercapaciteit te laag
08435 07389 02 00301.2  	EQL	ALM3B07
08436                   
08437 07390 16 00261.2  	AND	ALM1B07
08438 07391 16 00001.1  	AND	KNIPPER
08439 07392 18 00301.2  	OR	ALM3B07
08440 07393 02 00241.2  	EQL	MELD07
08441                   
08442 07394 18 00241.2  	OR	MELD07
08443 07395 18 00261.2  	OR	ALM1B07
08444 07396 02 00221.2  	EQL	VERGR07
08445                   
08446 07397 16 00221.2  	AND	VERGR07
08447 07398 17 00301.2  	ANDNT	ALM3B07
08448 07399 02 00201.2  	EQL	CA07
08449                   !
08450                   ! concentraat afvoer
08451                   !
08452 07400 17 00121.1  	ANDNT	RESET
08453 07401 16 00261.3  	AND	ALM1B08
08454 07402 18 00321.3  	OR	ALARM08	!concentraat afvoer gestoord
08455 07403 02 00011.3  	EQL	DUMP
08456                   
08457 07404 16 00011.3  	AND	DUMP
08458 07405 17 00301.3  	ANDNT	ALM3B08
08459 07406 02 00261.3  	EQL	ALM1B08
08460                   
08461 07407 18 00121.1  	OR	RESET
08462 07408 18 00301.3  	OR	ALM3B08
08463 07409 02 00281.3  	EQL	ALM2B08
08464                   
08465 07410 16 00281.3  	AND	ALM2B08
08466 07411 16 00321.3  	AND	ALARM08	!concentraat afvoer gestoord
08467 07412 02 00301.3  	EQL	ALM3B08
08468                   
08469 07413 16 00261.3  	AND	ALM1B08
08470 07414 16 00001.1  	AND	KNIPPER
08471 07415 18 00301.3  	OR	ALM3B08
08472 07416 02 00241.3  	EQL	MELD08
08473                   
08474 07417 18 00241.3  	OR	MELD08
08475 07418 18 00261.3  	OR	ALM1B08
08476 07419 02 00221.3  	EQL	VERGR08
08477                   
08478 07420 16 00221.3  	AND	VERGR08
08479 07421 17 00301.3  	ANDNT	ALM3B08
08480 07422 02 00201.3  	EQL	CA08
08481                   !
08482                   ! nivo warme loog te laag
08483                   !
08484 07423 17 00121.1  	ANDNT	RESET
08485 07424 16 00262.0  	AND	ALM1B09
08486 07425 18 00322.0  	OR	ALARM09	!nivo warme loog
08487 07426 02 00011.3  	EQL	DUMP
08488                   
08489 07427 16 00011.3  	AND	DUMP
08490 07428 17 00302.0  	ANDNT	ALM3B09
08491 07429 02 00262.0  	EQL	ALM1B09
08492                   
08493 07430 18 00121.1  	OR	RESET
08494 07431 18 00302.0  	OR	ALM3B09
08495 07432 02 00282.0  	EQL	ALM2B09
08496                   
08497 07433 16 00282.0  	AND	ALM2B09
08498 07434 16 00322.0  	AND	ALARM09	!nivo warme loog
08499 07435 02 00302.0  	EQL	ALM3B09
08500                   
08501 07436 16 00262.0  	AND	ALM1B09
08502 07437 16 00001.1  	AND	KNIPPER
08503 07438 18 00302.0  	OR	ALM3B09
08504 07439 02 00242.0  	EQL	MELD09
08505                   
08506 07440 18 00242.0  	OR	MELD09
08507 07441 18 00262.0  	OR	ALM1B09
08508 07442 02 00222.0  	EQL	VERGR09
08509                   
08510 07443 16 00222.0  	AND	VERGR09
08511 07444 17 00302.0  	ANDNT	ALM3B09
08512 07445 02 00202.0  	EQL	CA09
08513                   !
08514                   ! nivo zoutzuur te laag
08515                   !
08516 07446 17 00121.1  	ANDNT	RESET
08517 07447 16 00262.1  	AND	ALM1B10
08518 07448 18 00322.1  	OR	ALARM10	!nivo zoutzuur
08519 07449 02 00011.3  	EQL	DUMP
08520                   
08521 07450 16 00011.3  	AND	DUMP
08522 07451 17 00302.1  	ANDNT	ALM3B10
08523 07452 02 00262.1  	EQL	ALM1B10
08524                   
08525 07453 18 00121.1  	OR	RESET
08526 07454 18 00302.1  	OR	ALM3B10
08527 07455 02 00282.1  	EQL	ALM2B10
08528                   
08529 07456 16 00282.1  	AND	ALM2B10
08530 07457 16 00322.1  	AND	ALARM10	!nivo zoutzuur
08531 07458 02 00302.1  	EQL	ALM3B10
08532                   
08533 07459 16 00262.1  	AND	ALM1B10
08534 07460 16 00001.1  	AND	KNIPPER
08535 07461 18 00302.1  	OR	ALM3B10
08536 07462 02 00242.1  	EQL	MELD10
08537                   
08538 07463 18 00242.1  	OR	MELD10
08539 07464 18 00262.1  	OR	ALM1B10
08540 07465 02 00222.1  	EQL	VERGR10
08541                   
08542 07466 16 00222.1  	AND	VERGR10
08543 07467 17 00302.1  	ANDNT	ALM3B10
08544 07468 02 00202.1  	EQL	CA10
08545                   !
08546                   ! temp loog te laag
08547                   !
08548 07469 17 00121.1  	ANDNT	RESET
08549 07470 16 00262.2  	AND	ALM1B11
08550 07471 18 00322.2  	OR	ALARM11	!temperatuur loog
08551 07472 02 00011.3  	EQL	DUMP
08552                   
08553 07473 16 00011.3  	AND	DUMP
08554 07474 17 00302.2  	ANDNT	ALM3B11
08555 07475 02 00262.2  	EQL	ALM1B11
08556                   
08557 07476 18 00121.1  	OR	RESET
08558 07477 18 00302.2  	OR	ALM3B11
08559 07478 02 00282.2  	EQL	ALM2B11
08560                   
08561 07479 16 00282.2  	AND	ALM2B11
08562 07480 16 00322.2  	AND	ALARM11	!temperatuur loog
08563 07481 02 00302.2  	EQL	ALM3B11
08564                   
08565 07482 16 00262.2  	AND	ALM1B11
08566 07483 16 00001.1  	AND	KNIPPER
08567 07484 18 00302.2  	OR	ALM3B11
08568 07485 02 00242.2  	EQL	MELD11
08569                   
08570 07486 18 00242.2  	OR	MELD11
08571 07487 18 00262.2  	OR	ALM1B11
08572 07488 02 00222.2  	EQL	VERGR11
08573                   
08574 07489 16 00222.2  	AND	VERGR11
08575 07490 17 00302.2  	ANDNT	ALM3B11
08576 07491 02 00202.2  	EQL	CA11
08577                   !
08578                   ! nivo neutralisatie
08579                   !
08580 07492 17 00121.1  	ANDNT	RESET
08581 07493 16 00262.3  	AND	ALM1B12
08582 07494 18 00322.3  	OR	ALARM12	!nivo neutralisatie
08583 07495 02 00011.3  	EQL	DUMP
08584                   
08585 07496 16 00011.3  	AND	DUMP
08586 07497 17 00302.3  	ANDNT	ALM3B12
08587 07498 02 00262.3  	EQL	ALM1B12
08588                   
08589 07499 18 00121.1  	OR	RESET
08590 07500 18 00302.3  	OR	ALM3B12
08591 07501 02 00282.3  	EQL	ALM2B12
08592                   
08593 07502 16 00282.3  	AND	ALM2B12
08594 07503 16 00322.3  	AND	ALARM12	!nivo neutralisatie
08595 07504 02 00302.3  	EQL	ALM3B12
08596                   
08597 07505 16 00262.3  	AND	ALM1B12
08598 07506 16 00001.1  	AND	KNIPPER
08599 07507 18 00302.3  	OR	ALM3B12
08600 07508 02 00242.3  	EQL	MELD12
08601                   
08602 07509 18 00242.3  	OR	MELD12
08603 07510 18 00262.3  	OR	ALM1B12
08604 07511 02 00222.3  	EQL	VERGR12
08605                   
08606 07512 16 00222.3  	AND	VERGR12
08607 07513 17 00302.3  	ANDNT	ALM3B12
08608 07514 02 00202.3  	EQL	CA12
08609                   
08610                   
08611 07515 17 00121.1  	ANDNT	RESET
08612 07516 16 00263.0  	AND	ALM1B13
08613 07517 18 00047.0  	OR	ALARM13	!V10.1 niet geopend
08614 07518 02 00011.3  	EQL	DUMP
08615                   
08616 07519 16 00011.3  	AND	DUMP
08617 07520 17 00303.0  	ANDNT	ALM3B13
08618 07521 02 00263.0  	EQL	ALM1B13
08619                   
08620 07522 18 00121.1  	OR	RESET
08621 07523 18 00303.0  	OR	ALM3B13
08622 07524 02 00283.0  	EQL	ALM2B13
08623                   
08624 07525 16 00283.0  	AND	ALM2B13
08625 07526 16 00047.0  	AND	ALARM13	!V10.1 niet geopend
08626 07527 02 00303.0  	EQL	ALM3B13
08627                   
08628 07528 16 00263.0  	AND	ALM1B13
08629 07529 16 00001.1  	AND	KNIPPER
08630 07530 18 00303.0  	OR	ALM3B13
08631 07531 02 00243.0  	EQL	MELD13
08632                   
08633 07532 18 00243.0  	OR	MELD13
08634 07533 18 00263.0  	OR	ALM1B13
08635 07534 02 00223.0  	EQL	VERGR13
08636                   
08637 07535 16 00223.0  	AND	VERGR13
08638 07536 17 00303.0  	ANDNT	ALM3B13
08639 07537 02 00203.0  	EQL	CA13
08640                   
08641                   
08642 07538 17 00121.1  	ANDNT	RESET
08643 07539 16 00263.1  	AND	ALM1B14
08644 07540 18 00047.1  	OR	ALARM14	!V10.1 niet gesloten
08645 07541 02 00011.3  	EQL	DUMP
08646                   
08647 07542 16 00011.3  	AND	DUMP
08648 07543 17 00303.1  	ANDNT	ALM3B14
08649 07544 02 00263.1  	EQL	ALM1B14
08650                   
08651 07545 18 00121.1  	OR	RESET
08652 07546 18 00303.1  	OR	ALM3B14
08653 07547 02 00283.1  	EQL	ALM2B14
08654                   
08655 07548 16 00283.1  	AND	ALM2B14
08656 07549 16 00047.1  	AND	ALARM14	!V10.1 niet gesloten
08657 07550 02 00303.1  	EQL	ALM3B14
08658                   
08659 07551 16 00263.1  	AND	ALM1B14
08660 07552 16 00001.1  	AND	KNIPPER
08661 07553 18 00303.1  	OR	ALM3B14
08662 07554 02 00243.1  	EQL	MELD14
08663                   
08664 07555 18 00243.1  	OR	MELD14
08665 07556 18 00263.1  	OR	ALM1B14
08666 07557 02 00223.1  	EQL	VERGR14
08667                   
08668 07558 16 00223.1  	AND	VERGR14
08669 07559 17 00303.1  	ANDNT	ALM3B14
08670 07560 02 00203.1  	EQL	CA14
08671                   
08672                   
08673 07561 17 00121.1  	ANDNT	RESET
08674 07562 16 00263.2  	AND	ALM1B15
08675 07563 18 00047.2  	OR	ALARM15	!V10.2 niet geopend
08676 07564 02 00011.3  	EQL	DUMP
08677                   
08678 07565 16 00011.3  	AND	DUMP
08679 07566 17 00303.2  	ANDNT	ALM3B15
08680 07567 02 00263.2  	EQL	ALM1B15
08681                   
08682 07568 18 00121.1  	OR	RESET
08683 07569 18 00303.2  	OR	ALM3B15
08684 07570 02 00283.2  	EQL	ALM2B15
08685                   
08686 07571 16 00283.2  	AND	ALM2B15
08687 07572 16 00047.2  	AND	ALARM15	!V10.2 niet geopend
08688 07573 02 00303.2  	EQL	ALM3B15
08689                   
08690 07574 16 00263.2  	AND	ALM1B15
08691 07575 16 00001.1  	AND	KNIPPER
08692 07576 18 00303.2  	OR	ALM3B15
08693 07577 02 00243.2  	EQL	MELD15
08694                   
08695 07578 18 00243.2  	OR	MELD15
08696 07579 18 00263.2  	OR	ALM1B15
08697 07580 02 00223.2  	EQL	VERGR15
08698                   
08699 07581 16 00223.2  	AND	VERGR15
08700 07582 17 00303.2  	ANDNT	ALM3B15
08701 07583 02 00203.2  	EQL	CA15
08702                   
08703                   
08704 07584 17 00121.1  	ANDNT	RESET
08705 07585 16 00263.3  	AND	ALM1B16
08706 07586 18 00047.3  	OR	ALARM16	!V10.2 niet gesloten
08707 07587 02 00011.3  	EQL	DUMP
08708                   
08709 07588 16 00011.3  	AND	DUMP
08710 07589 17 00303.3  	ANDNT	ALM3B16
08711 07590 02 00263.3  	EQL	ALM1B16
08712                   
08713 07591 18 00121.1  	OR	RESET
08714 07592 18 00303.3  	OR	ALM3B16
08715 07593 02 00283.3  	EQL	ALM2B16
08716                   
08717 07594 16 00283.3  	AND	ALM2B16
08718 07595 16 00047.3  	AND	ALARM16	!V10.2 niet gesloten
08719 07596 02 00303.3  	EQL	ALM3B16
08720                   
08721 07597 16 00263.3  	AND	ALM1B16
08722 07598 16 00001.1  	AND	KNIPPER
08723 07599 18 00303.3  	OR	ALM3B16
08724 07600 02 00243.3  	EQL	MELD16
08725                   
08726 07601 18 00243.3  	OR	MELD16
08727 07602 18 00263.3  	OR	ALM1B16
08728 07603 02 00223.3  	EQL	VERGR16
08729                   
08730 07604 16 00223.3  	AND	VERGR16
08731 07605 17 00303.3  	ANDNT	ALM3B16
08732 07606 02 00203.3  	EQL	CA16
08733                   
08734                   
08735 07607 17 00121.1  	ANDNT	RESET
08736 07608 16 00264.0  	AND	ALM1B17
08737 07609 18 00048.0  	OR	ALARM17	!V10.3 niet geopend
08738 07610 02 00011.3  	EQL	DUMP
08739                   
08740 07611 16 00011.3  	AND	DUMP
08741 07612 17 00304.0  	ANDNT	ALM3B17
08742 07613 02 00264.0  	EQL	ALM1B17
08743                   
08744 07614 18 00121.1  	OR	RESET
08745 07615 18 00304.0  	OR	ALM3B17
08746 07616 02 00284.0  	EQL	ALM2B17
08747                   
08748 07617 16 00284.0  	AND	ALM2B17
08749 07618 16 00048.0  	AND	ALARM17	!V10.3 niet geopend
08750 07619 02 00304.0  	EQL	ALM3B17
08751                   
08752 07620 16 00264.0  	AND	ALM1B17
08753 07621 16 00001.1  	AND	KNIPPER
08754 07622 18 00304.0  	OR	ALM3B17
08755 07623 02 00244.0  	EQL	MELD17
08756                   
08757 07624 18 00244.0  	OR	MELD17
08758 07625 18 00264.0  	OR	ALM1B17
08759 07626 02 00224.0  	EQL	VERGR17
08760                   
08761 07627 16 00224.0  	AND	VERGR17
08762 07628 17 00304.0  	ANDNT	ALM3B17
08763 07629 02 00204.0  	EQL	CA17
08764                   
08765                   
08766 07630 17 00121.1  	ANDNT	RESET
08767 07631 16 00264.1  	AND	ALM1B18
08768 07632 18 00048.1  	OR	ALARM18	!V10.3 niet gesloten
08769 07633 02 00011.3  	EQL	DUMP
08770                   
08771 07634 16 00011.3  	AND	DUMP
08772 07635 17 00304.1  	ANDNT	ALM3B18
08773 07636 02 00264.1  	EQL	ALM1B18
08774                   
08775 07637 18 00121.1  	OR	RESET
08776 07638 18 00304.1  	OR	ALM3B18
08777 07639 02 00284.1  	EQL	ALM2B18
08778                   
08779 07640 16 00284.1  	AND	ALM2B18
08780 07641 16 00048.1  	AND	ALARM18	!V10.3 niet gesloten
08781 07642 02 00304.1  	EQL	ALM3B18
08782                   
08783 07643 16 00264.1  	AND	ALM1B18
08784 07644 16 00001.1  	AND	KNIPPER
08785 07645 18 00304.1  	OR	ALM3B18
08786 07646 02 00244.1  	EQL	MELD18
08787                   
08788 07647 18 00244.1  	OR	MELD18
08789 07648 18 00264.1  	OR	ALM1B18
08790 07649 02 00224.1  	EQL	VERGR18
08791                   
08792 07650 16 00224.1  	AND	VERGR18
08793 07651 17 00304.1  	ANDNT	ALM3B18
08794 07652 02 00204.1  	EQL	CA18
08795                   
08796                   
08797 07653 17 00121.1  	ANDNT	RESET
08798 07654 16 00264.2  	AND	ALM1B19
08799 07655 18 00048.2  	OR	ALARM19	!V10.4 niet geopend
08800 07656 02 00011.3  	EQL	DUMP
08801                   
08802 07657 16 00011.3  	AND	DUMP
08803 07658 17 00304.2  	ANDNT	ALM3B19
08804 07659 02 00264.2  	EQL	ALM1B19
08805                   
08806 07660 18 00121.1  	OR	RESET
08807 07661 18 00304.2  	OR	ALM3B19
08808 07662 02 00284.2  	EQL	ALM2B19
08809                   
08810 07663 16 00284.2  	AND	ALM2B19
08811 07664 16 00048.2  	AND	ALARM19	!V10.4 niet geopend
08812 07665 02 00304.2  	EQL	ALM3B19
08813                   
08814 07666 16 00264.2  	AND	ALM1B19
08815 07667 16 00001.1  	AND	KNIPPER
08816 07668 18 00304.2  	OR	ALM3B19
08817 07669 02 00244.2  	EQL	MELD19
08818                   
08819 07670 18 00244.2  	OR	MELD19
08820 07671 18 00264.2  	OR	ALM1B19
08821 07672 02 00224.2  	EQL	VERGR19
08822                   
08823 07673 16 00224.2  	AND	VERGR19
08824 07674 17 00304.2  	ANDNT	ALM3B19
08825 07675 02 00204.2  	EQL	CA19
08826                   
08827                   
08828 07676 17 00121.1  	ANDNT	RESET
08829 07677 16 00264.3  	AND	ALM1B20
08830 07678 18 00048.3  	OR	ALARM20	!V10.4 niet gesloten
08831 07679 02 00011.3  	EQL	DUMP
08832                   
08833 07680 16 00011.3  	AND	DUMP
08834 07681 17 00304.3  	ANDNT	ALM3B20
08835 07682 02 00264.3  	EQL	ALM1B20
08836                   
08837 07683 18 00121.1  	OR	RESET
08838 07684 18 00304.3  	OR	ALM3B20
08839 07685 02 00284.3  	EQL	ALM2B20
08840                   
08841 07686 16 00284.3  	AND	ALM2B20
08842 07687 16 00048.3  	AND	ALARM20	!V10.4 niet gesloten
08843 07688 02 00304.3  	EQL	ALM3B20
08844                   
08845 07689 16 00264.3  	AND	ALM1B20
08846 07690 16 00001.1  	AND	KNIPPER
08847 07691 18 00304.3  	OR	ALM3B20
08848 07692 02 00244.3  	EQL	MELD20
08849                   
08850 07693 18 00244.3  	OR	MELD20
08851 07694 18 00264.3  	OR	ALM1B20
08852 07695 02 00224.3  	EQL	VERGR20
08853                   
08854 07696 16 00224.3  	AND	VERGR20
08855 07697 17 00304.3  	ANDNT	ALM3B20
08856 07698 02 00204.3  	EQL	CA20
08857                   
08858                   
08859 07699 17 00121.1  	ANDNT	RESET
08860 07700 16 00265.0  	AND	ALM1B21
08861 07701 18 00049.0  	OR	ALARM21	!V11.1 niet geopend
08862 07702 02 00011.3  	EQL	DUMP
08863                   
08864 07703 16 00011.3  	AND	DUMP
08865 07704 17 00305.0  	ANDNT	ALM3B21
08866 07705 02 00265.0  	EQL	ALM1B21
08867                   
08868 07706 18 00121.1  	OR	RESET
08869 07707 18 00305.0  	OR	ALM3B21
08870 07708 02 00285.0  	EQL	ALM2B21
08871                   
08872 07709 16 00285.0  	AND	ALM2B21
08873 07710 16 00049.0  	AND	ALARM21	!V11.1 niet geopend
08874 07711 02 00305.0  	EQL	ALM3B21
08875                   
08876 07712 16 00265.0  	AND	ALM1B21
08877 07713 16 00001.1  	AND	KNIPPER
08878 07714 18 00305.0  	OR	ALM3B21
08879 07715 02 00245.0  	EQL	MELD21
08880                   
08881 07716 18 00245.0  	OR	MELD21
08882 07717 18 00265.0  	OR	ALM1B21
08883 07718 02 00225.0  	EQL	VERGR21
08884                   
08885 07719 16 00225.0  	AND	VERGR21
08886 07720 17 00305.0  	ANDNT	ALM3B21
08887 07721 02 00205.0  	EQL	CA21
08888                   
08889                   
08890 07722 17 00121.1  	ANDNT	RESET
08891 07723 16 00265.1  	AND	ALM1B22
08892 07724 18 00049.1  	OR	ALARM22	!V11.1 niet gesloten
08893 07725 02 00011.3  	EQL	DUMP
08894                   
08895 07726 16 00011.3  	AND	DUMP
08896 07727 17 00305.1  	ANDNT	ALM3B22
08897 07728 02 00265.1  	EQL	ALM1B22
08898                   
08899 07729 18 00121.1  	OR	RESET
08900 07730 18 00305.1  	OR	ALM3B22
08901 07731 02 00285.1  	EQL	ALM2B22
08902                   
08903 07732 16 00285.1  	AND	ALM2B22
08904 07733 16 00049.1  	AND	ALARM22	!V11.1 niet gesloten
08905 07734 02 00305.1  	EQL	ALM3B22
08906                   
08907 07735 16 00265.1  	AND	ALM1B22
08908 07736 16 00001.1  	AND	KNIPPER
08909 07737 18 00305.1  	OR	ALM3B22
08910 07738 02 00245.1  	EQL	MELD22
08911                   
08912 07739 18 00245.1  	OR	MELD22
08913 07740 18 00265.1  	OR	ALM1B22
08914 07741 02 00225.1  	EQL	VERGR22
08915                   
08916 07742 16 00225.1  	AND	VERGR22
08917 07743 17 00305.1  	ANDNT	ALM3B22
08918 07744 02 00205.1  	EQL	CA22
08919                   
08920                   
08921 07745 17 00121.1  	ANDNT	RESET
08922 07746 16 00265.2  	AND	ALM1B23
08923 07747 18 00049.2  	OR	ALARM23	!V11.2 niet geopend
08924 07748 02 00011.3  	EQL	DUMP
08925                   
08926 07749 16 00011.3  	AND	DUMP
08927 07750 17 00305.2  	ANDNT	ALM3B23
08928 07751 02 00265.2  	EQL	ALM1B23
08929                   
08930 07752 18 00121.1  	OR	RESET
08931 07753 18 00305.2  	OR	ALM3B23
08932 07754 02 00285.2  	EQL	ALM2B23
08933                   
08934 07755 16 00285.2  	AND	ALM2B23
08935 07756 16 00049.2  	AND	ALARM23	!V11.2 niet geopend
08936 07757 02 00305.2  	EQL	ALM3B23
08937                   
08938 07758 16 00265.2  	AND	ALM1B23
08939 07759 16 00001.1  	AND	KNIPPER
08940 07760 18 00305.2  	OR	ALM3B23
08941 07761 02 00245.2  	EQL	MELD23
08942                   
08943 07762 18 00245.2  	OR	MELD23
08944 07763 18 00265.2  	OR	ALM1B23
08945 07764 02 00225.2  	EQL	VERGR23
08946                   
08947 07765 16 00225.2  	AND	VERGR23
08948 07766 17 00305.2  	ANDNT	ALM3B23
08949 07767 02 00205.2  	EQL	CA23
08950                   
08951                   
08952 07768 17 00121.1  	ANDNT	RESET
08953 07769 16 00265.3  	AND	ALM1B24
08954 07770 18 00049.3  	OR	ALARM24	!V11.2 niet gesloten
08955 07771 02 00011.3  	EQL	DUMP
08956                   
08957 07772 16 00011.3  	AND	DUMP
08958 07773 17 00305.3  	ANDNT	ALM3B24
08959 07774 02 00265.3  	EQL	ALM1B24
08960                   
08961 07775 18 00121.1  	OR	RESET
08962 07776 18 00305.3  	OR	ALM3B24
08963 07777 02 00285.3  	EQL	ALM2B24
08964                   
08965 07778 16 00285.3  	AND	ALM2B24
08966 07779 16 00049.3  	AND	ALARM24	!V11.2 niet gesloten
08967 07780 02 00305.3  	EQL	ALM3B24
08968                   
08969 07781 16 00265.3  	AND	ALM1B24
08970 07782 16 00001.1  	AND	KNIPPER
08971 07783 18 00305.3  	OR	ALM3B24
08972 07784 02 00245.3  	EQL	MELD24
08973                   
08974 07785 18 00245.3  	OR	MELD24
08975 07786 18 00265.3  	OR	ALM1B24
08976 07787 02 00225.3  	EQL	VERGR24
08977                   
08978 07788 16 00225.3  	AND	VERGR24
08979 07789 17 00305.3  	ANDNT	ALM3B24
08980 07790 02 00205.3  	EQL	CA24
08981                   
08982                   
08983 07791 17 00121.1  	ANDNT	RESET
08984 07792 16 00266.0  	AND	ALM1B25
08985 07793 18 00050.0  	OR	ALARM25	!V11.3 niet geopend
08986 07794 02 00011.3  	EQL	DUMP
08987                   
08988 07795 16 00011.3  	AND	DUMP
08989 07796 17 00306.0  	ANDNT	ALM3B25
08990 07797 02 00266.0  	EQL	ALM1B25
08991                   
08992 07798 18 00121.1  	OR	RESET
08993 07799 18 00306.0  	OR	ALM3B25
08994 07800 02 00286.0  	EQL	ALM2B25
08995                   
08996 07801 16 00286.0  	AND	ALM2B25
08997 07802 16 00050.0  	AND	ALARM25	!V11.3 niet geopend
08998 07803 02 00306.0  	EQL	ALM3B25
08999                   
09000 07804 16 00266.0  	AND	ALM1B25
09001 07805 16 00001.1  	AND	KNIPPER
09002 07806 18 00306.0  	OR	ALM3B25
09003 07807 02 00246.0  	EQL	MELD25
09004                   
09005 07808 18 00246.0  	OR	MELD25
09006 07809 18 00266.0  	OR	ALM1B25
09007 07810 02 00226.0  	EQL	VERGR25
09008                   
09009 07811 16 00226.0  	AND	VERGR25
09010 07812 17 00306.0  	ANDNT	ALM3B25
09011 07813 02 00206.0  	EQL	CA25
09012                   
09013                   
09014 07814 17 00121.1  	ANDNT	RESET
09015 07815 16 00266.1  	AND	ALM1B26
09016 07816 18 00050.1  	OR	ALARM26	!V11.3 niet gesloten
09017 07817 02 00011.3  	EQL	DUMP
09018                   
09019 07818 16 00011.3  	AND	DUMP
09020 07819 17 00306.1  	ANDNT	ALM3B26
09021 07820 02 00266.1  	EQL	ALM1B26
09022                   
09023 07821 18 00121.1  	OR	RESET
09024 07822 18 00306.1  	OR	ALM3B26
09025 07823 02 00286.1  	EQL	ALM2B26
09026                   
09027 07824 16 00286.1  	AND	ALM2B26
09028 07825 16 00050.1  	AND	ALARM26	!V11.3 niet gesloten
09029 07826 02 00306.1  	EQL	ALM3B26
09030                   
09031 07827 16 00266.1  	AND	ALM1B26
09032 07828 16 00001.1  	AND	KNIPPER
09033 07829 18 00306.1  	OR	ALM3B26
09034 07830 02 00246.1  	EQL	MELD26
09035                   
09036 07831 18 00246.1  	OR	MELD26
09037 07832 18 00266.1  	OR	ALM1B26
09038 07833 02 00226.1  	EQL	VERGR26
09039                   
09040 07834 16 00226.1  	AND	VERGR26
09041 07835 17 00306.1  	ANDNT	ALM3B26
09042 07836 02 00206.1  	EQL	CA26
09043                   
09044                   
09045 07837 17 00121.1  	ANDNT	RESET
09046 07838 16 00266.2  	AND	ALM1B27
09047 07839 18 00050.2  	OR	ALARM27	!V12.1 niet geopend
09048 07840 02 00011.3  	EQL	DUMP
09049                   
09050 07841 16 00011.3  	AND	DUMP
09051 07842 17 00306.2  	ANDNT	ALM3B27
09052 07843 02 00266.2  	EQL	ALM1B27
09053                   
09054 07844 18 00121.1  	OR	RESET
09055 07845 18 00306.2  	OR	ALM3B27
09056 07846 02 00286.2  	EQL	ALM2B27
09057                   
09058 07847 16 00286.2  	AND	ALM2B27
09059 07848 16 00050.2  	AND	ALARM27	!V12.1 niet geopend
09060 07849 02 00306.2  	EQL	ALM3B27
09061                   
09062 07850 16 00266.2  	AND	ALM1B27
09063 07851 16 00001.1  	AND	KNIPPER
09064 07852 18 00306.2  	OR	ALM3B27
09065 07853 02 00246.2  	EQL	MELD27
09066                   
09067 07854 18 00246.2  	OR	MELD27
09068 07855 18 00266.2  	OR	ALM1B27
09069 07856 02 00226.2  	EQL	VERGR27
09070                   
09071 07857 16 00226.2  	AND	VERGR27
09072 07858 17 00306.2  	ANDNT	ALM3B27
09073 07859 02 00206.2  	EQL	CA27
09074                   
09075                   
09076 07860 17 00121.1  	ANDNT	RESET
09077 07861 16 00266.3  	AND	ALM1B28
09078 07862 18 00050.3  	OR	ALARM28	!V12.1 niet gesloten
09079 07863 02 00011.3  	EQL	DUMP
09080                   
09081 07864 16 00011.3  	AND	DUMP
09082 07865 17 00306.3  	ANDNT	ALM3B28
09083 07866 02 00266.3  	EQL	ALM1B28
09084                   
09085 07867 18 00121.1  	OR	RESET
09086 07868 18 00306.3  	OR	ALM3B28
09087 07869 02 00286.3  	EQL	ALM2B28
09088                   
09089 07870 16 00286.3  	AND	ALM2B28
09090 07871 16 00050.3  	AND	ALARM28	!V12.1 niet gesloten
09091 07872 02 00306.3  	EQL	ALM3B28
09092                   
09093 07873 16 00266.3  	AND	ALM1B28
09094 07874 16 00001.1  	AND	KNIPPER
09095 07875 18 00306.3  	OR	ALM3B28
09096 07876 02 00246.3  	EQL	MELD28
09097                   
09098 07877 18 00246.3  	OR	MELD28
09099 07878 18 00266.3  	OR	ALM1B28
09100 07879 02 00226.3  	EQL	VERGR28
09101                   
09102 07880 16 00226.3  	AND	VERGR28
09103 07881 17 00306.3  	ANDNT	ALM3B28
09104 07882 02 00206.3  	EQL	CA28
09105                   
09106                   
09107 07883 17 00121.1  	ANDNT	RESET
09108 07884 16 00267.0  	AND	ALM1B29
09109 07885 18 00045.0  	OR	ALARM29	!V 1.1 niet geopend
09110 07886 02 00011.3  	EQL	DUMP
09111                   
09112 07887 16 00011.3  	AND	DUMP
09113 07888 17 00307.0  	ANDNT	ALM3B29
09114 07889 02 00267.0  	EQL	ALM1B29
09115                   
09116 07890 18 00121.1  	OR	RESET
09117 07891 18 00307.0  	OR	ALM3B29
09118 07892 02 00287.0  	EQL	ALM2B29
09119                   
09120 07893 16 00287.0  	AND	ALM2B29
09121 07894 16 00045.0  	AND	ALARM29	!V 1.1 niet geopend
09122 07895 02 00307.0  	EQL	ALM3B29
09123                   
09124 07896 16 00267.0  	AND	ALM1B29
09125 07897 16 00001.1  	AND	KNIPPER
09126 07898 18 00307.0  	OR	ALM3B29
09127 07899 02 00247.0  	EQL	MELD29
09128                   
09129 07900 18 00247.0  	OR	MELD29
09130 07901 18 00267.0  	OR	ALM1B29
09131 07902 02 00227.0  	EQL	VERGR29
09132                   
09133 07903 16 00227.0  	AND	VERGR29
09134 07904 17 00307.0  	ANDNT	ALM3B29
09135 07905 02 00207.0  	EQL	CA29
09136                   
09137                   
09138 07906 17 00121.1  	ANDNT	RESET
09139 07907 16 00267.1  	AND	ALM1B30
09140 07908 18 00045.1  	OR	ALARM30	!V 1.1 niet gesloten
09141 07909 02 00011.3  	EQL	DUMP
09142                   
09143 07910 16 00011.3  	AND	DUMP
09144 07911 17 00307.1  	ANDNT	ALM3B30
09145 07912 02 00267.1  	EQL	ALM1B30
09146                   
09147 07913 18 00121.1  	OR	RESET
09148 07914 18 00307.1  	OR	ALM3B30
09149 07915 02 00287.1  	EQL	ALM2B30
09150                   
09151 07916 16 00287.1  	AND	ALM2B30
09152 07917 16 00045.1  	AND	ALARM30	!V 1.1 niet gesloten
09153 07918 02 00307.1  	EQL	ALM3B30
09154                   
09155 07919 16 00267.1  	AND	ALM1B30
09156 07920 16 00001.1  	AND	KNIPPER
09157 07921 18 00307.1  	OR	ALM3B30
09158 07922 02 00247.1  	EQL	MELD30
09159                   
09160 07923 18 00247.1  	OR	MELD30
09161 07924 18 00267.1  	OR	ALM1B30
09162 07925 02 00227.1  	EQL	VERGR30
09163                   
09164 07926 16 00227.1  	AND	VERGR30
09165 07927 17 00307.1  	ANDNT	ALM3B30
09166 07928 02 00207.1  	EQL	CA30
09167                   
09168                   
09169 07929 17 00121.1  	ANDNT	RESET
09170 07930 16 00267.2  	AND	ALM1B31
09171 07931 18 00045.2  	OR	ALARM31	!V 3.1 niet geopend
09172 07932 02 00011.3  	EQL	DUMP
09173                   
09174 07933 16 00011.3  	AND	DUMP
09175 07934 17 00307.2  	ANDNT	ALM3B31
09176 07935 02 00267.2  	EQL	ALM1B31
09177                   
09178 07936 18 00121.1  	OR	RESET
09179 07937 18 00307.2  	OR	ALM3B31
09180 07938 02 00287.2  	EQL	ALM2B31
09181                   
09182 07939 16 00287.2  	AND	ALM2B31
09183 07940 16 00045.2  	AND	ALARM31	!V 3.1 niet geopend
09184 07941 02 00307.2  	EQL	ALM3B31
09185                   
09186 07942 16 00267.2  	AND	ALM1B31
09187 07943 16 00001.1  	AND	KNIPPER
09188 07944 18 00307.2  	OR	ALM3B31
09189 07945 02 00247.2  	EQL	MELD31
09190                   
09191 07946 18 00247.2  	OR	MELD31
09192 07947 18 00267.2  	OR	ALM1B31
09193 07948 02 00227.2  	EQL	VERGR31
09194                   
09195 07949 16 00227.2  	AND	VERGR31
09196 07950 17 00307.2  	ANDNT	ALM3B31
09197 07951 02 00207.2  	EQL	CA31
09198                   
09199                   
09200 07952 17 00121.1  	ANDNT	RESET
09201 07953 16 00267.3  	AND	ALM1B32
09202 07954 18 00045.3  	OR	ALARM32	!V 3.1 niet gesloten
09203 07955 02 00011.3  	EQL	DUMP
09204                   
09205 07956 16 00011.3  	AND	DUMP
09206 07957 17 00307.3  	ANDNT	ALM3B32
09207 07958 02 00267.3  	EQL	ALM1B32
09208                   
09209 07959 18 00121.1  	OR	RESET
09210 07960 18 00307.3  	OR	ALM3B32
09211 07961 02 00287.3  	EQL	ALM2B32
09212                   
09213 07962 16 00287.3  	AND	ALM2B32
09214 07963 16 00045.3  	AND	ALARM32	!V 3.1 niet gesloten
09215 07964 02 00307.3  	EQL	ALM3B32
09216                   
09217 07965 16 00267.3  	AND	ALM1B32
09218 07966 16 00001.1  	AND	KNIPPER
09219 07967 18 00307.3  	OR	ALM3B32
09220 07968 02 00247.3  	EQL	MELD32
09221                   
09222 07969 18 00247.3  	OR	MELD32
09223 07970 18 00267.3  	OR	ALM1B32
09224 07971 02 00227.3  	EQL	VERGR32
09225                   
09226 07972 16 00227.3  	AND	VERGR32
09227 07973 17 00307.3  	ANDNT	ALM3B32
09228 07974 02 00207.3  	EQL	CA32
09229                   
09230                   
09231 07975 17 00121.1  	ANDNT	RESET
09232 07976 16 00268.0  	AND	ALM1B33
09233 07977 18 00046.0  	OR	ALARM33	!V 5.1 niet geopend
09234 07978 02 00011.3  	EQL	DUMP
09235                   
09236 07979 16 00011.3  	AND	DUMP
09237 07980 17 00308.0  	ANDNT	ALM3B33
09238 07981 02 00268.0  	EQL	ALM1B33
09239                   
09240 07982 18 00121.1  	OR	RESET
09241 07983 18 00308.0  	OR	ALM3B33
09242 07984 02 00288.0  	EQL	ALM2B33
09243                   
09244 07985 16 00288.0  	AND	ALM2B33
09245 07986 16 00046.0  	AND	ALARM33	!V 5.1 niet geopend
09246 07987 02 00308.0  	EQL	ALM3B33
09247                   
09248 07988 16 00268.0  	AND	ALM1B33
09249 07989 16 00001.1  	AND	KNIPPER
09250 07990 18 00308.0  	OR	ALM3B33
09251 07991 02 00248.0  	EQL	MELD33
09252                   
09253 07992 18 00248.0  	OR	MELD33
09254 07993 18 00268.0  	OR	ALM1B33
09255 07994 02 00228.0  	EQL	VERGR33
09256                   
09257 07995 16 00228.0  	AND	VERGR33
09258 07996 17 00308.0  	ANDNT	ALM3B33
09259 07997 02 00208.0  	EQL	CA33
09260                   
09261                   
09262 07998 17 00121.1  	ANDNT	RESET
09263 07999 16 00268.1  	AND	ALM1B34
09264 08000 18 00046.1  	OR	ALARM34	!V 5.1 niet gesloten
09265 08001 02 00011.3  	EQL	DUMP
09266                   
09267 08002 16 00011.3  	AND	DUMP
09268 08003 17 00308.1  	ANDNT	ALM3B34
09269 08004 02 00268.1  	EQL	ALM1B34
09270                   
09271 08005 18 00121.1  	OR	RESET
09272 08006 18 00308.1  	OR	ALM3B34
09273 08007 02 00288.1  	EQL	ALM2B34
09274                   
09275 08008 16 00288.1  	AND	ALM2B34
09276 08009 16 00046.1  	AND	ALARM34	!V 5.1 niet gesloten
09277 08010 02 00308.1  	EQL	ALM3B34
09278                   
09279 08011 16 00268.1  	AND	ALM1B34
09280 08012 16 00001.1  	AND	KNIPPER
09281 08013 18 00308.1  	OR	ALM3B34
09282 08014 02 00248.1  	EQL	MELD34
09283                   
09284 08015 18 00248.1  	OR	MELD34
09285 08016 18 00268.1  	OR	ALM1B34
09286 08017 02 00228.1  	EQL	VERGR34
09287                   
09288 08018 16 00228.1  	AND	VERGR34
09289 08019 17 00308.1  	ANDNT	ALM3B34
09290 08020 02 00208.1  	EQL	CA34
09291                   
09292                   
09293 08021 17 00121.1  	ANDNT	RESET
09294 08022 16 00268.2  	AND	ALM1B35
09295 08023 18 00046.2  	OR	ALARM35	!V 7.1 niet geopend
09296 08024 02 00011.3  	EQL	DUMP
09297                   
09298 08025 16 00011.3  	AND	DUMP
09299 08026 17 00308.2  	ANDNT	ALM3B35
09300 08027 02 00268.2  	EQL	ALM1B35
09301                   
09302 08028 18 00121.1  	OR	RESET
09303 08029 18 00308.2  	OR	ALM3B35
09304 08030 02 00288.2  	EQL	ALM2B35
09305                   
09306 08031 16 00288.2  	AND	ALM2B35
09307 08032 16 00046.2  	AND	ALARM35	!V 7.1 niet geopend
09308 08033 02 00308.2  	EQL	ALM3B35
09309                   
09310 08034 16 00268.2  	AND	ALM1B35
09311 08035 16 00001.1  	AND	KNIPPER
09312 08036 18 00308.2  	OR	ALM3B35
09313 08037 02 00248.2  	EQL	MELD35
09314                   
09315 08038 18 00248.2  	OR	MELD35
09316 08039 18 00268.2  	OR	ALM1B35
09317 08040 02 00228.2  	EQL	VERGR35
09318                   
09319 08041 16 00228.2  	AND	VERGR35
09320 08042 17 00308.2  	ANDNT	ALM3B35
09321 08043 02 00208.2  	EQL	CA35
09322                   
09323                   
09324 08044 17 00121.1  	ANDNT	RESET
09325 08045 16 00268.3  	AND	ALM1B36
09326 08046 18 00046.3  	OR	ALARM36	!V 7.1 niet gesloten
09327 08047 02 00011.3  	EQL	DUMP
09328                   
09329 08048 16 00011.3  	AND	DUMP
09330 08049 17 00308.3  	ANDNT	ALM3B36
09331 08050 02 00268.3  	EQL	ALM1B36
09332                   
09333 08051 18 00121.1  	OR	RESET
09334 08052 18 00308.3  	OR	ALM3B36
09335 08053 02 00288.3  	EQL	ALM2B36
09336                   
09337 08054 16 00288.3  	AND	ALM2B36
09338 08055 16 00046.3  	AND	ALARM36	!V 7.1 niet gesloten
09339 08056 02 00308.3  	EQL	ALM3B36
09340                   
09341 08057 16 00268.3  	AND	ALM1B36
09342 08058 16 00001.1  	AND	KNIPPER
09343 08059 18 00308.3  	OR	ALM3B36
09344 08060 02 00248.3  	EQL	MELD36
09345                   
09346 08061 18 00248.3  	OR	MELD36
09347 08062 18 00268.3  	OR	ALM1B36
09348 08063 02 00228.3  	EQL	VERGR36
09349                   
09350 08064 16 00228.3  	AND	VERGR36
09351 08065 17 00308.3  	ANDNT	ALM3B36
09352 08066 02 00208.3  	EQL	CA36
09353                   
09354                   
09355 08067 17 00121.1  	ANDNT	RESET
09356 08068 16 00269.0  	AND	ALM1B37
09357 08069 18 00323.0  	OR	ALARM37	!P10 rondpompdruk te hoog
09358 08070 02 00011.3  	EQL	DUMP
09359                   
09360 08071 16 00011.3  	AND	DUMP
09361 08072 17 00309.0  	ANDNT	ALM3B37
09362 08073 02 00269.0  	EQL	ALM1B37
09363                   
09364 08074 18 00121.1  	OR	RESET
09365 08075 18 00309.0  	OR	ALM3B37
09366 08076 02 00289.0  	EQL	ALM2B37
09367                   
09368 08077 16 00289.0  	AND	ALM2B37
09369 08078 16 00323.0  	AND	ALARM37	!P10 rondpompdruk te hoog
09370 08079 02 00309.0  	EQL	ALM3B37
09371                   
09372 08080 16 00269.0  	AND	ALM1B37
09373 08081 16 00001.1  	AND	KNIPPER
09374 08082 18 00309.0  	OR	ALM3B37
09375 08083 02 00249.0  	EQL	MELD37
09376                   
09377 08084 18 00249.0  	OR	MELD37
09378 08085 18 00269.0  	OR	ALM1B37
09379 08086 02 00229.0  	EQL	VERGR37	!hoge druk alarm P10
09380                   
09381 08087 16 00229.0  	AND	VERGR37	!hoge druk alarm P10
09382 08088 17 00309.0  	ANDNT	ALM3B37
09383 08089 02 00209.0  	EQL	CA37
09384                   
09385                   
09386 08090 17 00121.1  	ANDNT	RESET
09387 08091 16 00269.1  	AND	ALM1B38
09388 08092 18 00323.1  	OR	ALARM38
09389 08093 02 00011.3  	EQL	DUMP
09390                   
09391 08094 16 00011.3  	AND	DUMP
09392 08095 17 00309.1  	ANDNT	ALM3B38
09393 08096 02 00269.1  	EQL	ALM1B38
09394                   
09395 08097 18 00121.1  	OR	RESET
09396 08098 18 00309.1  	OR	ALM3B38
09397 08099 02 00289.1  	EQL	ALM2B38
09398                   
09399 08100 16 00289.1  	AND	ALM2B38
09400 08101 16 00323.1  	AND	ALARM38
09401 08102 02 00309.1  	EQL	ALM3B38
09402                   
09403 08103 16 00269.1  	AND	ALM1B38
09404 08104 16 00001.1  	AND	KNIPPER
09405 08105 18 00309.1  	OR	ALM3B38
09406 08106 02 00249.1  	EQL	MELD38
09407                   
09408 08107 18 00249.1  	OR	MELD38
09409 08108 18 00269.1  	OR	ALM1B38
09410 08109 02 00229.1  	EQL	VERGR38
09411                   
09412 08110 16 00229.1  	AND	VERGR38
09413 08111 17 00309.1  	ANDNT	ALM3B38
09414 08112 02 00209.1  	EQL	CA38
09415                   
09416                   
09417 08113 17 00121.1  	ANDNT	RESET
09418 08114 16 00269.2  	AND	ALM1B39
09419 08115 18 00323.2  	OR	ALARM39	!P10 niet paraat
09420 08116 02 00011.3  	EQL	DUMP
09421                   
09422 08117 16 00011.3  	AND	DUMP
09423 08118 17 00309.2  	ANDNT	ALM3B39
09424 08119 02 00269.2  	EQL	ALM1B39
09425                   
09426 08120 18 00121.1  	OR	RESET
09427 08121 18 00309.2  	OR	ALM3B39
09428 08122 02 00289.2  	EQL	ALM2B39
09429                   
09430 08123 16 00289.2  	AND	ALM2B39
09431 08124 16 00323.2  	AND	ALARM39	!P10 niet paraat
09432 08125 02 00309.2  	EQL	ALM3B39
09433                   
09434 08126 16 00269.2  	AND	ALM1B39
09435 08127 16 00001.1  	AND	KNIPPER
09436 08128 18 00309.2  	OR	ALM3B39
09437 08129 02 00249.2  	EQL	MELD39
09438                   
09439 08130 18 00249.2  	OR	MELD39
09440 08131 18 00269.2  	OR	ALM1B39
09441 08132 02 00229.2  	EQL	VERGR39
09442                   
09443 08133 16 00229.2  	AND	VERGR39
09444 08134 17 00309.2  	ANDNT	ALM3B39
09445 08135 02 00209.2  	EQL	CA39
09446                   
09447                   
09448 08136 17 00121.1  	ANDNT	RESET
09449 08137 16 00269.3  	AND	ALM1B40
09450 08138 18 00323.3  	OR	ALARM40	!P11 niet paraat
09451 08139 02 00011.3  	EQL	DUMP
09452                   
09453 08140 16 00011.3  	AND	DUMP
09454 08141 17 00309.3  	ANDNT	ALM3B40
09455 08142 02 00269.3  	EQL	ALM1B40
09456                   
09457 08143 18 00121.1  	OR	RESET
09458 08144 18 00309.3  	OR	ALM3B40
09459 08145 02 00289.3  	EQL	ALM2B40
09460                   
09461 08146 16 00289.3  	AND	ALM2B40
09462 08147 16 00323.3  	AND	ALARM40	!P11 niet paraat
09463 08148 02 00309.3  	EQL	ALM3B40
09464                   
09465 08149 16 00269.3  	AND	ALM1B40
09466 08150 16 00001.1  	AND	KNIPPER
09467 08151 18 00309.3  	OR	ALM3B40
09468 08152 02 00249.3  	EQL	MELD40
09469                   
09470 08153 18 00249.3  	OR	MELD40
09471 08154 18 00269.3  	OR	ALM1B40
09472 08155 02 00229.3  	EQL	VERGR40
09473                   
09474 08156 16 00229.3  	AND	VERGR40
09475 08157 17 00309.3  	ANDNT	ALM3B40
09476 08158 02 00209.3  	EQL	CA40
09477                   
09478                   
09479 08159 17 00121.1  	ANDNT	RESET
09480 08160 16 00270.0  	AND	ALM1B41
09481 08161 18 00324.0  	OR	ALARM41	!concentraatafvoer te hoog
09482 08162 02 00011.3  	EQL	DUMP
09483                   
09484 08163 16 00011.3  	AND	DUMP
09485 08164 17 00310.0  	ANDNT	ALM3B41
09486 08165 02 00270.0  	EQL	ALM1B41
09487                   
09488 08166 18 00121.1  	OR	RESET
09489 08167 18 00310.0  	OR	ALM3B41
09490 08168 02 00290.0  	EQL	ALM2B41
09491                   
09492 08169 16 00290.0  	AND	ALM2B41
09493 08170 16 00324.0  	AND	ALARM41	!concentraatafvoer te hoog
09494 08171 02 00310.0  	EQL	ALM3B41
09495                   
09496 08172 16 00270.0  	AND	ALM1B41
09497 08173 16 00001.1  	AND	KNIPPER
09498 08174 18 00310.0  	OR	ALM3B41
09499 08175 02 00250.0  	EQL	MELD41
09500                   
09501 08176 18 00250.0  	OR	MELD41
09502 08177 18 00270.0  	OR	ALM1B41
09503 08178 02 00230.0  	EQL	VERGR41
09504                   
09505 08179 16 00230.0  	AND	VERGR41
09506 08180 17 00310.0  	ANDNT	ALM3B41
09507 08181 02 00210.0  	EQL	CA41
09508                   
09509                   
09510 08182 17 00121.1  	ANDNT	RESET
09511 08183 16 00270.1  	AND	ALM1B42
09512 08184 18 00324.1  	OR	ALARM42	!nivo proceswater
09513 08185 02 00011.3  	EQL	DUMP
09514                   
09515 08186 16 00011.3  	AND	DUMP
09516 08187 17 00310.1  	ANDNT	ALM3B42
09517 08188 02 00270.1  	EQL	ALM1B42
09518                   
09519 08189 18 00121.1  	OR	RESET
09520 08190 18 00310.1  	OR	ALM3B42
09521 08191 02 00290.1  	EQL	ALM2B42
09522                   
09523 08192 16 00290.1  	AND	ALM2B42
09524 08193 16 00324.1  	AND	ALARM42	!nivo proceswater
09525 08194 02 00310.1  	EQL	ALM3B42
09526                   
09527 08195 16 00270.1  	AND	ALM1B42
09528 08196 16 00001.1  	AND	KNIPPER
09529 08197 18 00310.1  	OR	ALM3B42
09530 08198 02 00250.1  	EQL	MELD42
09531                   
09532 08199 18 00250.1  	OR	MELD42
09533 08200 18 00270.1  	OR	ALM1B42
09534 08201 02 00230.1  	EQL	VERGR42
09535                   
09536 08202 16 00230.1  	AND	VERGR42
09537 08203 17 00310.1  	ANDNT	ALM3B42
09538 08204 02 00210.1  	EQL	CA42
09539                   
09540                   
09541 08205 17 00121.1  	ANDNT	RESET
09542 08206 16 00270.2  	AND	ALM1B43
09543 08207 18 00324.2  	OR	ALARM43	!druk vuilproceswater
09544 08208 02 00011.3  	EQL	DUMP
09545                   
09546 08209 16 00011.3  	AND	DUMP
09547 08210 17 00310.2  	ANDNT	ALM3B43
09548 08211 02 00270.2  	EQL	ALM1B43
09549                   
09550 08212 18 00121.1  	OR	RESET
09551 08213 18 00310.2  	OR	ALM3B43
09552 08214 02 00290.2  	EQL	ALM2B43
09553                   
09554 08215 16 00290.2  	AND	ALM2B43
09555 08216 16 00324.2  	AND	ALARM43	!druk vuilproceswater
09556 08217 02 00310.2  	EQL	ALM3B43
09557                   
09558 08218 16 00270.2  	AND	ALM1B43
09559 08219 16 00001.1  	AND	KNIPPER
09560 08220 18 00310.2  	OR	ALM3B43
09561 08221 02 00250.2  	EQL	MELD43
09562                   
09563 08222 18 00250.2  	OR	MELD43
09564 08223 18 00270.2  	OR	ALM1B43
09565 08224 02 00230.2  	EQL	VERGR43	!druk vuilproceswater
09566                   
09567 08225 16 00230.2  	AND	VERGR43	!druk vuilproceswater
09568 08226 17 00310.2  	ANDNT	ALM3B43
09569 08227 02 00210.2  	EQL	CA43
09570                   
09571                   
09572 08228 17 00121.1  	ANDNT	RESET
09573 08229 16 00270.3  	AND	ALM1B44
09574 08230 18 00324.3  	OR	ALARM44	!rho proceswater
09575 08231 02 00011.3  	EQL	DUMP
09576                   
09577 08232 16 00011.3  	AND	DUMP
09578 08233 17 00310.3  	ANDNT	ALM3B44
09579 08234 02 00270.3  	EQL	ALM1B44
09580                   
09581 08235 18 00121.1  	OR	RESET
09582 08236 18 00310.3  	OR	ALM3B44
09583 08237 02 00290.3  	EQL	ALM2B44
09584                   
09585 08238 16 00290.3  	AND	ALM2B44
09586 08239 16 00324.3  	AND	ALARM44	!rho proceswater
09587 08240 02 00310.3  	EQL	ALM3B44
09588                   
09589 08241 16 00270.3  	AND	ALM1B44
09590 08242 16 00001.1  	AND	KNIPPER
09591 08243 18 00310.3  	OR	ALM3B44
09592 08244 02 00250.3  	EQL	MELD44
09593                   
09594 08245 18 00250.3  	OR	MELD44
09595 08246 18 00270.3  	OR	ALM1B44
09596 08247 02 00230.3  	EQL	VERGR44	!rho proceswater
09597                   
09598 08248 16 00230.3  	AND	VERGR44	!rho proceswater
09599 08249 17 00310.3  	ANDNT	ALM3B44
09600 08250 02 00210.3  	EQL	CA44
09601                   
09602                   
09603 08251 17 00121.1  	ANDNT	RESET
09604 08252 16 00271.0  	AND	ALM1B45
09605 08253 18 00325.0  	OR	ALARM45	!lage flow alarm vuilproceswater
09606 08254 02 00011.3  	EQL	DUMP
09607                   
09608 08255 16 00011.3  	AND	DUMP
09609 08256 17 00311.0  	ANDNT	ALM3B45
09610 08257 02 00271.0  	EQL	ALM1B45
09611                   
09612 08258 18 00121.1  	OR	RESET
09613 08259 18 00311.0  	OR	ALM3B45
09614 08260 02 00291.0  	EQL	ALM2B45
09615                   
09616 08261 16 00291.0  	AND	ALM2B45
09617 08262 16 00325.0  	AND	ALARM45	!lage flow alarm vuilproceswater
09618 08263 02 00311.0  	EQL	ALM3B45
09619                   
09620 08264 16 00271.0  	AND	ALM1B45
09621 08265 16 00001.1  	AND	KNIPPER
09622 08266 18 00311.0  	OR	ALM3B45
09623 08267 02 00251.0  	EQL	MELD45	!lage flow alarm vuilproceswater
09624                   
09625 08268 18 00251.0  	OR	MELD45	!lage flow alarm vuilproceswater
09626 08269 18 00271.0  	OR	ALM1B45
09627 08270 02 00231.0  	EQL	VERGR45	!lage flow alarm vuilproceswater
09628                   
09629 08271 16 00231.0  	AND	VERGR45	!lage flow alarm vuilproceswater
09630 08272 17 00311.0  	ANDNT	ALM3B45
09631 08273 02 00211.0  	EQL	CA45	!lage flow alarm vuilproceswater
09632                   
09633                   
09634 08274 17 00121.1  	ANDNT	RESET
09635 08275 16 00271.1  	AND	ALM1B46
09636 08276 18 00325.1  	OR	ALARM46	!regeneratie cmf niet op tijd gevuld
09637 08277 02 00011.3  	EQL	DUMP
09638                   
09639 08278 16 00011.3  	AND	DUMP
09640 08279 17 00311.1  	ANDNT	ALM3B46
09641 08280 02 00271.1  	EQL	ALM1B46
09642                   
09643 08281 18 00121.1  	OR	RESET
09644 08282 18 00311.1  	OR	ALM3B46
09645 08283 02 00291.1  	EQL	ALM2B46
09646                   
09647 08284 16 00291.1  	AND	ALM2B46
09648 08285 16 00325.1  	AND	ALARM46	!regeneratie cmf niet op tijd gevuld
09649 08286 02 00311.1  	EQL	ALM3B46
09650                   
09651 08287 16 00271.1  	AND	ALM1B46
09652 08288 16 00001.1  	AND	KNIPPER
09653 08289 18 00311.1  	OR	ALM3B46
09654 08290 02 00251.1  	EQL	MELD46	!regeneratie cmf niet op tijd gevuld
09655                   
09656 08291 18 00251.1  	OR	MELD46	!regeneratie cmf niet op tijd gevuld
09657 08292 18 00271.1  	OR	ALM1B46
09658 08293 02 00231.1  	EQL	VERGR46	!regeneratie cmf niet op tijd gevuld
09659                   
09660 08294 16 00231.1  	AND	VERGR46	!regeneratie cmf niet op tijd gevuld
09661 08295 17 00311.1  	ANDNT	ALM3B46
09662 08296 02 00211.1  	EQL	CA46	!regeneratie cmf niet op tijd gevuld
09663                   
09664                   
09665 08297 17 00121.1  	ANDNT	RESET
09666 08298 16 00271.2  	AND	ALM1B47
09667 08299 18 00325.2  	OR	ALARM47	!regeneratie cmf niet op tijd geledigd
09668 08300 02 00011.3  	EQL	DUMP
09669                   
09670 08301 16 00011.3  	AND	DUMP
09671 08302 17 00311.2  	ANDNT	ALM3B47
09672 08303 02 00271.2  	EQL	ALM1B47
09673                   
09674 08304 18 00121.1  	OR	RESET
09675 08305 18 00311.2  	OR	ALM3B47
09676 08306 02 00291.2  	EQL	ALM2B47
09677                   
09678 08307 16 00291.2  	AND	ALM2B47
09679 08308 16 00325.2  	AND	ALARM47	!regeneratie cmf niet op tijd geledigd
09680 08309 02 00311.2  	EQL	ALM3B47
09681                   
09682 08310 16 00271.2  	AND	ALM1B47
09683 08311 16 00001.1  	AND	KNIPPER
09684 08312 18 00311.2  	OR	ALM3B47
09685 08313 02 00251.2  	EQL	MELD47	!regeneratie cmf niet op tijd geledigd
09686                   
09687 08314 18 00251.2  	OR	MELD47	!regeneratie cmf niet op tijd geledigd
09688 08315 18 00271.2  	OR	ALM1B47
09689 08316 02 00231.2  	EQL	VERGR47	!regeneratie cmf niet op tijd geledigd
09690                   
09691 08317 16 00231.2  	AND	VERGR47	!regeneratie cmf niet op tijd geledigd
09692 08318 17 00311.2  	ANDNT	ALM3B47
09693 08319 02 00211.2  	EQL	CA47	!regeneratie cmf niet op tijd geledigd
09694                   
09695                   
09696 08320 17 00121.1  	ANDNT	RESET
09697 08321 16 00271.3  	AND	ALM1B48
09698 08322 18 00325.3  	OR	ALARM48
09699 08323 02 00011.3  	EQL	DUMP
09700                   
09701 08324 16 00011.3  	AND	DUMP
09702 08325 17 00311.3  	ANDNT	ALM3B48
09703 08326 02 00271.3  	EQL	ALM1B48
09704                   
09705 08327 18 00121.1  	OR	RESET
09706 08328 18 00311.3  	OR	ALM3B48
09707 08329 02 00291.3  	EQL	ALM2B48
09708                   
09709 08330 16 00291.3  	AND	ALM2B48
09710 08331 16 00325.3  	AND	ALARM48
09711 08332 02 00311.3  	EQL	ALM3B48
09712                   
09713 08333 16 00271.3  	AND	ALM1B48
09714 08334 16 00001.1  	AND	KNIPPER
09715 08335 18 00311.3  	OR	ALM3B48
09716 08336 02 00251.3  	EQL	MELD48
09717                   
09718 08337 18 00251.3  	OR	MELD48
09719 08338 18 00271.3  	OR	ALM1B48
09720 08339 02 00231.3  	EQL	VERGR48
09721                   
09722 08340 16 00231.3  	AND	VERGR48
09723 08341 17 00311.3  	ANDNT	ALM3B48
09724 08342 02 00211.3  	EQL	CA48
09725                   
09726                   
09727 08343 17 00121.1  	ANDNT	RESET
09728 08344 16 00272.0  	AND	ALM1B49
09729 08345 18 00326.0  	OR	ALARM49
09730 08346 02 00011.3  	EQL	DUMP
09731                   
09732 08347 16 00011.3  	AND	DUMP
09733 08348 17 00312.0  	ANDNT	ALM3B49
09734 08349 02 00272.0  	EQL	ALM1B49
09735                   
09736 08350 18 00121.1  	OR	RESET
09737 08351 18 00312.0  	OR	ALM3B49
09738 08352 02 00292.0  	EQL	ALM2B49
09739                   
09740 08353 16 00292.0  	AND	ALM2B49
09741 08354 16 00326.0  	AND	ALARM49
09742 08355 02 00312.0  	EQL	ALM3B49
09743                   
09744 08356 16 00272.0  	AND	ALM1B49
09745 08357 16 00001.1  	AND	KNIPPER
09746 08358 18 00312.0  	OR	ALM3B49
09747 08359 02 00252.0  	EQL	MELD49
09748                   
09749 08360 18 00252.0  	OR	MELD49
09750 08361 18 00272.0  	OR	ALM1B49
09751 08362 02 00232.0  	EQL	VERGR49
09752                   
09753 08363 16 00232.0  	AND	VERGR49
09754 08364 17 00312.0  	ANDNT	ALM3B49
09755 08365 02 00212.0  	EQL	CA49
09756                   
09757                   
09758 08366 17 00121.1  	ANDNT	RESET
09759 08367 16 00272.1  	AND	ALM1B50
09760 08368 18 00326.1  	OR	ALARM50
09761 08369 02 00011.3  	EQL	DUMP
09762                   
09763 08370 16 00011.3  	AND	DUMP
09764 08371 17 00312.1  	ANDNT	ALM3B50
09765 08372 02 00272.1  	EQL	ALM1B50
09766                   
09767 08373 18 00121.1  	OR	RESET
09768 08374 18 00312.1  	OR	ALM3B50
09769 08375 02 00292.1  	EQL	ALM2B50
09770                   
09771 08376 16 00292.1  	AND	ALM2B50
09772 08377 16 00326.1  	AND	ALARM50
09773 08378 02 00312.1  	EQL	ALM3B50
09774                   
09775 08379 16 00272.1  	AND	ALM1B50
09776 08380 16 00001.1  	AND	KNIPPER
09777 08381 18 00312.1  	OR	ALM3B50
09778 08382 02 00252.1  	EQL	MELD50
09779                   
09780 08383 18 00252.1  	OR	MELD50
09781 08384 18 00272.1  	OR	ALM1B50
09782 08385 02 00232.1  	EQL	VERGR50
09783                   
09784 08386 16 00232.1  	AND	VERGR50
09785 08387 17 00312.1  	ANDNT	ALM3B50
09786 08388 02 00212.1  	EQL	CA50
09787                   
09788                   
09789 08389 17 00121.1  	ANDNT	RESET
09790 08390 16 00272.2  	AND	ALM1B51
09791 08391 18 00326.2  	OR	ALARM51
09792 08392 02 00011.3  	EQL	DUMP
09793                   
09794 08393 16 00011.3  	AND	DUMP
09795 08394 17 00312.2  	ANDNT	ALM3B51
09796 08395 02 00272.2  	EQL	ALM1B51
09797                   
09798 08396 18 00121.1  	OR	RESET
09799 08397 18 00312.2  	OR	ALM3B51
09800 08398 02 00292.2  	EQL	ALM2B51
09801                   
09802 08399 16 00292.2  	AND	ALM2B51
09803 08400 16 00326.2  	AND	ALARM51
09804 08401 02 00312.2  	EQL	ALM3B51
09805                   
09806 08402 16 00272.2  	AND	ALM1B51
09807 08403 16 00001.1  	AND	KNIPPER
09808 08404 18 00312.2  	OR	ALM3B51
09809 08405 02 00252.2  	EQL	MELD51
09810                   
09811 08406 18 00252.2  	OR	MELD51
09812 08407 18 00272.2  	OR	ALM1B51
09813 08408 02 00232.2  	EQL	VERGR51
09814                   
09815 08409 16 00232.2  	AND	VERGR51
09816 08410 17 00312.2  	ANDNT	ALM3B51
09817 08411 02 00212.2  	EQL	CA51
09818                   
09819                   
09820 08412 17 00121.1  	ANDNT	RESET
09821 08413 16 00272.3  	AND	ALM1B52
09822 08414 18 00326.3  	OR	ALARM52
09823 08415 02 00011.3  	EQL	DUMP
09824                   
09825 08416 16 00011.3  	AND	DUMP
09826 08417 17 00312.3  	ANDNT	ALM3B52
09827 08418 02 00272.3  	EQL	ALM1B52
09828                   
09829 08419 18 00121.1  	OR	RESET
09830 08420 18 00312.3  	OR	ALM3B52
09831 08421 02 00292.3  	EQL	ALM2B52
09832                   
09833 08422 16 00292.3  	AND	ALM2B52
09834 08423 16 00326.3  	AND	ALARM52
09835 08424 02 00312.3  	EQL	ALM3B52
09836                   
09837 08425 16 00272.3  	AND	ALM1B52
09838 08426 16 00001.1  	AND	KNIPPER
09839 08427 18 00312.3  	OR	ALM3B52
09840 08428 02 00252.3  	EQL	MELD52
09841                   
09842 08429 18 00252.3  	OR	MELD52
09843 08430 18 00272.3  	OR	ALM1B52
09844 08431 02 00232.3  	EQL	VERGR52
09845                   
09846 08432 16 00232.3  	AND	VERGR52
09847 08433 17 00312.3  	ANDNT	ALM3B52
09848 08434 02 00212.3  	EQL	CA52
09849                   
09850                   
09851 08435 17 00121.1  	ANDNT	RESET
09852 08436 16 00273.0  	AND	ALM1B53
09853 08437 18 00327.0  	OR	ALARM53
09854 08438 02 00011.3  	EQL	DUMP
09855                   
09856 08439 16 00011.3  	AND	DUMP
09857 08440 17 00313.0  	ANDNT	ALM3B53
09858 08441 02 00273.0  	EQL	ALM1B53
09859                   
09860 08442 18 00121.1  	OR	RESET
09861 08443 18 00313.0  	OR	ALM3B53
09862 08444 02 00293.0  	EQL	ALM2B53
09863                   
09864 08445 16 00293.0  	AND	ALM2B53
09865 08446 16 00327.0  	AND	ALARM53
09866 08447 02 00313.0  	EQL	ALM3B53
09867                   
09868 08448 16 00273.0  	AND	ALM1B53
09869 08449 16 00001.1  	AND	KNIPPER
09870 08450 18 00313.0  	OR	ALM3B53
09871 08451 02 00253.0  	EQL	MELD53
09872                   
09873 08452 18 00253.0  	OR	MELD53
09874 08453 18 00273.0  	OR	ALM1B53
09875 08454 02 00233.0  	EQL	VERGR53
09876                   
09877 08455 16 00233.0  	AND	VERGR53
09878 08456 17 00313.0  	ANDNT	ALM3B53
09879 08457 02 00213.0  	EQL	CA53
09880                   
09881                   
09882 08458 17 00121.1  	ANDNT	RESET
09883 08459 16 00273.1  	AND	ALM1B54
09884 08460 18 00327.1  	OR	ALARM54
09885 08461 02 00011.3  	EQL	DUMP
09886                   
09887 08462 16 00011.3  	AND	DUMP
09888 08463 17 00313.1  	ANDNT	ALM3B54
09889 08464 02 00273.1  	EQL	ALM1B54
09890                   
09891 08465 18 00121.1  	OR	RESET
09892 08466 18 00313.1  	OR	ALM3B54
09893 08467 02 00293.1  	EQL	ALM2B54
09894                   
09895 08468 16 00293.1  	AND	ALM2B54
09896 08469 16 00327.1  	AND	ALARM54
09897 08470 02 00313.1  	EQL	ALM3B54
09898                   
09899 08471 16 00273.1  	AND	ALM1B54
09900 08472 16 00001.1  	AND	KNIPPER
09901 08473 18 00313.1  	OR	ALM3B54
09902 08474 02 00253.1  	EQL	MELD54
09903                   
09904 08475 18 00253.1  	OR	MELD54
09905 08476 18 00273.1  	OR	ALM1B54
09906 08477 02 00233.1  	EQL	VERGR54
09907                   
09908 08478 16 00233.1  	AND	VERGR54
09909 08479 17 00313.1  	ANDNT	ALM3B54
09910 08480 02 00213.1  	EQL	CA54
09911                   
09912                   
09913 08481 17 00121.1  	ANDNT	RESET
09914 08482 16 00273.2  	AND	ALM1B55
09915 08483 18 00327.2  	OR	ALARM55
09916 08484 02 00011.3  	EQL	DUMP
09917                   
09918 08485 16 00011.3  	AND	DUMP
09919 08486 17 00313.2  	ANDNT	ALM3B55
09920 08487 02 00273.2  	EQL	ALM1B55
09921                   
09922 08488 18 00121.1  	OR	RESET
09923 08489 18 00313.2  	OR	ALM3B55
09924 08490 02 00293.2  	EQL	ALM2B55
09925                   
09926 08491 16 00293.2  	AND	ALM2B55
09927 08492 16 00327.2  	AND	ALARM55
09928 08493 02 00313.2  	EQL	ALM3B55
09929                   
09930 08494 16 00273.2  	AND	ALM1B55
09931 08495 16 00001.1  	AND	KNIPPER
09932 08496 18 00313.2  	OR	ALM3B55
09933 08497 02 00253.2  	EQL	MELD55
09934                   
09935 08498 18 00253.2  	OR	MELD55
09936 08499 18 00273.2  	OR	ALM1B55
09937 08500 02 00233.2  	EQL	VERGR55
09938                   
09939 08501 16 00233.2  	AND	VERGR55
09940 08502 17 00313.2  	ANDNT	ALM3B55
09941 08503 02 00213.2  	EQL	CA55
09942                   
09943                   
09944 08504 17 00121.1  	ANDNT	RESET
09945 08505 16 00273.3  	AND	ALM1B56
09946 08506 18 00327.3  	OR	ALARM56
09947 08507 02 00011.3  	EQL	DUMP
09948                   
09949 08508 16 00011.3  	AND	DUMP
09950 08509 17 00313.3  	ANDNT	ALM3B56
09951 08510 02 00273.3  	EQL	ALM1B56
09952                   
09953 08511 18 00121.1  	OR	RESET
09954 08512 18 00313.3  	OR	ALM3B56
09955 08513 02 00293.3  	EQL	ALM2B56
09956                   
09957 08514 16 00293.3  	AND	ALM2B56
09958 08515 16 00327.3  	AND	ALARM56
09959 08516 02 00313.3  	EQL	ALM3B56
09960                   
09961 08517 16 00273.3  	AND	ALM1B56
09962 08518 16 00001.1  	AND	KNIPPER
09963 08519 18 00313.3  	OR	ALM3B56
09964 08520 02 00253.3  	EQL	MELD56
09965                   
09966 08521 18 00253.3  	OR	MELD56
09967 08522 18 00273.3  	OR	ALM1B56
09968 08523 02 00233.3  	EQL	VERGR56
09969                   
09970 08524 16 00233.3  	AND	VERGR56
09971 08525 17 00313.3  	ANDNT	ALM3B56
09972 08526 02 00213.3  	EQL	CA56
09973                   
09974                   
09975 08527 17 00121.1  	ANDNT	RESET
09976 08528 16 00274.0  	AND	ALM1B57
09977 08529 18 00328.0  	OR	ALARM57
09978 08530 02 00011.3  	EQL	DUMP
09979                   
09980 08531 16 00011.3  	AND	DUMP
09981 08532 17 00314.0  	ANDNT	ALM3B57
09982 08533 02 00274.0  	EQL	ALM1B57
09983                   
09984 08534 18 00121.1  	OR	RESET
09985 08535 18 00314.0  	OR	ALM3B57
09986 08536 02 00294.0  	EQL	ALM2B57
09987                   
09988 08537 16 00294.0  	AND	ALM2B57
09989 08538 16 00328.0  	AND	ALARM57
09990 08539 02 00314.0  	EQL	ALM3B57
09991                   
09992 08540 16 00274.0  	AND	ALM1B57
09993 08541 16 00001.1  	AND	KNIPPER
09994 08542 18 00314.0  	OR	ALM3B57
09995 08543 02 00254.0  	EQL	MELD57
09996                   
09997 08544 18 00254.0  	OR	MELD57
09998 08545 18 00274.0  	OR	ALM1B57
09999 08546 02 00234.0  	EQL	VERGR57
10000                   
10001 08547 16 00234.0  	AND	VERGR57
10002 08548 17 00314.0  	ANDNT	ALM3B57
10003 08549 02 00214.0  	EQL	CA57
10004                   
10005                   
10006 08550 17 00121.1  	ANDNT	RESET
10007 08551 16 00274.1  	AND	ALM1B58
10008 08552 18 00328.1  	OR	ALARM58
10009 08553 02 00011.3  	EQL	DUMP
10010                   
10011 08554 16 00011.3  	AND	DUMP
10012 08555 17 00314.1  	ANDNT	ALM3B58
10013 08556 02 00274.1  	EQL	ALM1B58
10014                   
10015 08557 18 00121.1  	OR	RESET
10016 08558 18 00314.1  	OR	ALM3B58
10017 08559 02 00294.1  	EQL	ALM2B58
10018                   
10019 08560 16 00294.1  	AND	ALM2B58
10020 08561 16 00328.1  	AND	ALARM58
10021 08562 02 00314.1  	EQL	ALM3B58
10022                   
10023 08563 16 00274.1  	AND	ALM1B58
10024 08564 16 00001.1  	AND	KNIPPER
10025 08565 18 00314.1  	OR	ALM3B58
10026 08566 02 00254.1  	EQL	MELD58
10027                   
10028 08567 18 00254.1  	OR	MELD58
10029 08568 18 00274.1  	OR	ALM1B58
10030 08569 02 00234.1  	EQL	VERGR58
10031                   
10032 08570 16 00234.1  	AND	VERGR58
10033 08571 17 00314.1  	ANDNT	ALM3B58
10034 08572 02 00214.1  	EQL	CA58
10035                   
10036                   
10037 08573 17 00121.1  	ANDNT	RESET
10038 08574 16 00274.2  	AND	ALM1B59
10039 08575 18 00328.2  	OR	ALARM59
10040 08576 02 00011.3  	EQL	DUMP
10041                   
10042 08577 16 00011.3  	AND	DUMP
10043 08578 17 00314.2  	ANDNT	ALM3B59
10044 08579 02 00274.2  	EQL	ALM1B59
10045                   
10046 08580 18 00121.1  	OR	RESET
10047 08581 18 00314.2  	OR	ALM3B59
10048 08582 02 00294.2  	EQL	ALM2B59
10049                   
10050 08583 16 00294.2  	AND	ALM2B59
10051 08584 16 00328.2  	AND	ALARM59
10052 08585 02 00314.2  	EQL	ALM3B59
10053                   
10054 08586 16 00274.2  	AND	ALM1B59
10055 08587 16 00001.1  	AND	KNIPPER
10056 08588 18 00314.2  	OR	ALM3B59
10057 08589 02 00254.2  	EQL	MELD59
10058                   
10059 08590 18 00254.2  	OR	MELD59
10060 08591 18 00274.2  	OR	ALM1B59
10061 08592 02 00234.2  	EQL	VERGR59
10062                   
10063 08593 16 00234.2  	AND	VERGR59
10064 08594 17 00314.2  	ANDNT	ALM3B59
10065 08595 02 00214.2  	EQL	CA59
10066                   
10067                   
10068 08596 17 00121.1  	ANDNT	RESET
10069 08597 16 00274.3  	AND	ALM1B60
10070 08598 18 00328.3  	OR	ALARM60
10071 08599 02 00011.3  	EQL	DUMP
10072                   
10073 08600 16 00011.3  	AND	DUMP
10074 08601 17 00314.3  	ANDNT	ALM3B60
10075 08602 02 00274.3  	EQL	ALM1B60
10076                   
10077 08603 18 00121.1  	OR	RESET
10078 08604 18 00314.3  	OR	ALM3B60
10079 08605 02 00294.3  	EQL	ALM2B60
10080                   
10081 08606 16 00294.3  	AND	ALM2B60
10082 08607 16 00328.3  	AND	ALARM60
10083 08608 02 00314.3  	EQL	ALM3B60
10084                   
10085 08609 16 00274.3  	AND	ALM1B60
10086 08610 16 00001.1  	AND	KNIPPER
10087 08611 18 00314.3  	OR	ALM3B60
10088 08612 02 00254.3  	EQL	MELD60
10089                   
10090 08613 18 00254.3  	OR	MELD60
10091 08614 18 00274.3  	OR	ALM1B60
10092 08615 02 00234.3  	EQL	VERGR60
10093                   
10094 08616 16 00234.3  	AND	VERGR60
10095 08617 17 00314.3  	ANDNT	ALM3B60
10096 08618 02 00214.3  	EQL	CA60
10097                   
10098                   
10099 08619 17 00121.1  	ANDNT	RESET
10100 08620 16 00275.0  	AND	ALM1B61
10101 08621 18 00329.0  	OR	ALARM61
10102 08622 02 00011.3  	EQL	DUMP
10103                   
10104 08623 16 00011.3  	AND	DUMP
10105 08624 17 00315.0  	ANDNT	ALM3B61
10106 08625 02 00275.0  	EQL	ALM1B61
10107                   
10108 08626 18 00121.1  	OR	RESET
10109 08627 18 00315.0  	OR	ALM3B61
10110 08628 02 00295.0  	EQL	ALM2B61
10111                   
10112 08629 16 00295.0  	AND	ALM2B61
10113 08630 16 00329.0  	AND	ALARM61
10114 08631 02 00315.0  	EQL	ALM3B61
10115                   
10116 08632 16 00275.0  	AND	ALM1B61
10117 08633 16 00001.1  	AND	KNIPPER
10118 08634 18 00315.0  	OR	ALM3B61
10119 08635 02 00255.0  	EQL	MELD61
10120                   
10121 08636 18 00255.0  	OR	MELD61
10122 08637 18 00275.0  	OR	ALM1B61
10123 08638 02 00235.0  	EQL	VERGR61
10124                   
10125 08639 16 00235.0  	AND	VERGR61
10126 08640 17 00315.0  	ANDNT	ALM3B61
10127 08641 02 00215.0  	EQL	CA61
10128                   
10129                   
10130 08642 17 00121.1  	ANDNT	RESET
10131 08643 16 00275.1  	AND	ALM1B62
10132 08644 18 00329.1  	OR	ALARM62
10133 08645 02 00011.3  	EQL	DUMP
10134                   
10135 08646 16 00011.3  	AND	DUMP
10136 08647 17 00315.1  	ANDNT	ALM3B62
10137 08648 02 00275.1  	EQL	ALM1B62
10138                   
10139 08649 18 00121.1  	OR	RESET
10140 08650 18 00315.1  	OR	ALM3B62
10141 08651 02 00295.1  	EQL	ALM2B62
10142                   
10143 08652 16 00295.1  	AND	ALM2B62
10144 08653 16 00329.1  	AND	ALARM62
10145 08654 02 00315.1  	EQL	ALM3B62
10146                   
10147 08655 16 00275.1  	AND	ALM1B62
10148 08656 16 00001.1  	AND	KNIPPER
10149 08657 18 00315.1  	OR	ALM3B62
10150 08658 02 00255.1  	EQL	MELD62
10151                   
10152 08659 18 00255.1  	OR	MELD62
10153 08660 18 00275.1  	OR	ALM1B62
10154 08661 02 00235.1  	EQL	VERGR62
10155                   
10156 08662 16 00235.1  	AND	VERGR62
10157 08663 17 00315.1  	ANDNT	ALM3B62
10158 08664 02 00215.1  	EQL	CA62
10159                   
10160                   
10161 08665 17 00121.1  	ANDNT	RESET
10162 08666 16 00275.2  	AND	ALM1B63
10163 08667 18 00329.2  	OR	ALARM63
10164 08668 02 00011.3  	EQL	DUMP
10165                   
10166 08669 16 00011.3  	AND	DUMP
10167 08670 17 00315.2  	ANDNT	ALM3B63
10168 08671 02 00275.2  	EQL	ALM1B63
10169                   
10170 08672 18 00121.1  	OR	RESET
10171 08673 18 00315.2  	OR	ALM3B63
10172 08674 02 00295.2  	EQL	ALM2B63
10173                   
10174 08675 16 00295.2  	AND	ALM2B63
10175 08676 16 00329.2  	AND	ALARM63
10176 08677 02 00315.2  	EQL	ALM3B63
10177                   
10178 08678 16 00275.2  	AND	ALM1B63
10179 08679 16 00001.1  	AND	KNIPPER
10180 08680 18 00315.2  	OR	ALM3B63
10181 08681 02 00255.2  	EQL	MELD63
10182                   
10183 08682 18 00255.2  	OR	MELD63
10184 08683 18 00275.2  	OR	ALM1B63
10185 08684 02 00235.2  	EQL	VERGR63
10186                   
10187 08685 16 00235.2  	AND	VERGR63
10188 08686 17 00315.2  	ANDNT	ALM3B63
10189 08687 02 00215.2  	EQL	CA63
10190                   
10191                   
10192 08688 17 00121.1  	ANDNT	RESET
10193 08689 16 00275.3  	AND	ALM1B64
10194 08690 18 00329.3  	OR	ALARM64
10195 08691 02 00011.3  	EQL	DUMP
10196                   
10197 08692 16 00011.3  	AND	DUMP
10198 08693 17 00315.3  	ANDNT	ALM3B64
10199 08694 02 00275.3  	EQL	ALM1B64
10200                   
10201 08695 18 00121.1  	OR	RESET
10202 08696 18 00315.3  	OR	ALM3B64
10203 08697 02 00295.3  	EQL	ALM2B64
10204                   
10205 08698 16 00295.3  	AND	ALM2B64
10206 08699 16 00329.3  	AND	ALARM64
10207 08700 02 00315.3  	EQL	ALM3B64
10208                   
10209 08701 16 00275.3  	AND	ALM1B64
10210 08702 16 00001.1  	AND	KNIPPER
10211 08703 18 00315.3  	OR	ALM3B64
10212 08704 02 00255.3  	EQL	MELD64
10213                   
10214 08705 18 00255.3  	OR	MELD64
10215 08706 18 00275.3  	OR	ALM1B64
10216 08707 02 00235.3  	EQL	VERGR64
10217                   
10218 08708 16 00235.3  	AND	VERGR64
10219 08709 17 00315.3  	ANDNT	ALM3B64
10220 08710 02 00215.3  	EQL	CA64
10221                   
10222                   
10223 08711 17 00121.1  	ANDNT	RESET
10224 08712 16 00276.0  	AND	ALM1B65
10225 08713 18 00330.0  	OR	ALARM65
10226 08714 02 00011.3  	EQL	DUMP
10227                   
10228 08715 16 00011.3  	AND	DUMP
10229 08716 17 00316.0  	ANDNT	ALM3B65
10230 08717 02 00276.0  	EQL	ALM1B65
10231                   
10232 08718 18 00121.1  	OR	RESET
10233 08719 18 00316.0  	OR	ALM3B65
10234 08720 02 00296.0  	EQL	ALM2B65
10235                   
10236 08721 16 00296.0  	AND	ALM2B65
10237 08722 16 00330.0  	AND	ALARM65
10238 08723 02 00316.0  	EQL	ALM3B65
10239                   
10240 08724 16 00276.0  	AND	ALM1B65
10241 08725 16 00001.1  	AND	KNIPPER
10242 08726 18 00316.0  	OR	ALM3B65
10243 08727 02 00256.0  	EQL	MELD65
10244                   
10245 08728 18 00256.0  	OR	MELD65
10246 08729 18 00276.0  	OR	ALM1B65
10247 08730 02 00236.0  	EQL	VERGR65
10248                   
10249 08731 16 00236.0  	AND	VERGR65
10250 08732 17 00316.0  	ANDNT	ALM3B65
10251 08733 02 00216.0  	EQL	CA65
10252                   
10253                   
10254 08734 17 00121.1  	ANDNT	RESET
10255 08735 16 00276.1  	AND	ALM1B66
10256 08736 18 00330.1  	OR	ALARM66
10257 08737 02 00011.3  	EQL	DUMP
10258                   
10259 08738 16 00011.3  	AND	DUMP
10260 08739 17 00316.1  	ANDNT	ALM3B66
10261 08740 02 00276.1  	EQL	ALM1B66
10262                   
10263 08741 18 00121.1  	OR	RESET
10264 08742 18 00316.1  	OR	ALM3B66
10265 08743 02 00296.1  	EQL	ALM2B66
10266                   
10267 08744 16 00296.1  	AND	ALM2B66
10268 08745 16 00330.1  	AND	ALARM66
10269 08746 02 00316.1  	EQL	ALM3B66
10270                   
10271 08747 16 00276.1  	AND	ALM1B66
10272 08748 16 00001.1  	AND	KNIPPER
10273 08749 18 00316.1  	OR	ALM3B66
10274 08750 02 00256.1  	EQL	MELD66
10275                   
10276 08751 18 00256.1  	OR	MELD66
10277 08752 18 00276.1  	OR	ALM1B66
10278 08753 02 00236.1  	EQL	VERGR66
10279                   
10280 08754 16 00236.1  	AND	VERGR66
10281 08755 17 00316.1  	ANDNT	ALM3B66
10282 08756 02 00216.1  	EQL	CA66
10283                   
10284                   
10285 08757 17 00121.1  	ANDNT	RESET
10286 08758 16 00276.2  	AND	ALM1B67
10287 08759 18 00330.2  	OR	ALARM67
10288 08760 02 00011.3  	EQL	DUMP
10289                   
10290 08761 16 00011.3  	AND	DUMP
10291 08762 17 00316.2  	ANDNT	ALM3B67
10292 08763 02 00276.2  	EQL	ALM1B67
10293                   
10294 08764 18 00121.1  	OR	RESET
10295 08765 18 00316.2  	OR	ALM3B67
10296 08766 02 00296.2  	EQL	ALM2B67
10297                   
10298 08767 16 00296.2  	AND	ALM2B67
10299 08768 16 00330.2  	AND	ALARM67
10300 08769 02 00316.2  	EQL	ALM3B67
10301                   
10302 08770 16 00276.2  	AND	ALM1B67
10303 08771 16 00001.1  	AND	KNIPPER
10304 08772 18 00316.2  	OR	ALM3B67
10305 08773 02 00256.2  	EQL	MELD67
10306                   
10307 08774 18 00256.2  	OR	MELD67
10308 08775 18 00276.2  	OR	ALM1B67
10309 08776 02 00236.2  	EQL	VERGR67
10310                   
10311 08777 16 00236.2  	AND	VERGR67
10312 08778 17 00316.2  	ANDNT	ALM3B67
10313 08779 02 00216.2  	EQL	CA67
10314                   
10315                   
10316 08780 17 00121.1  	ANDNT	RESET
10317 08781 16 00276.3  	AND	ALM1B68
10318 08782 18 00330.3  	OR	ALARM68
10319 08783 02 00011.3  	EQL	DUMP
10320                   
10321 08784 16 00011.3  	AND	DUMP
10322 08785 17 00316.3  	ANDNT	ALM3B68
10323 08786 02 00276.3  	EQL	ALM1B68
10324                   
10325 08787 18 00121.1  	OR	RESET
10326 08788 18 00316.3  	OR	ALM3B68
10327 08789 02 00296.3  	EQL	ALM2B68
10328                   
10329 08790 16 00296.3  	AND	ALM2B68
10330 08791 16 00330.3  	AND	ALARM68
10331 08792 02 00316.3  	EQL	ALM3B68
10332                   
10333 08793 16 00276.3  	AND	ALM1B68
10334 08794 16 00001.1  	AND	KNIPPER
10335 08795 18 00316.3  	OR	ALM3B68
10336 08796 02 00256.3  	EQL	MELD68
10337                   
10338 08797 18 00256.3  	OR	MELD68
10339 08798 18 00276.3  	OR	ALM1B68
10340 08799 02 00236.3  	EQL	VERGR68
10341                   
10342 08800 16 00236.3  	AND	VERGR68
10343 08801 17 00316.3  	ANDNT	ALM3B68
10344 08802 02 00216.3  	EQL	CA68
10345                   
10346                   
10347 08803 17 00121.1  	ANDNT	RESET
10348 08804 16 00277.0  	AND	ALM1B69
10349 08805 18 00331.0  	OR	ALARM69
10350 08806 02 00011.3  	EQL	DUMP
10351                   
10352 08807 16 00011.3  	AND	DUMP
10353 08808 17 00317.0  	ANDNT	ALM3B69
10354 08809 02 00277.0  	EQL	ALM1B69
10355                   
10356 08810 18 00121.1  	OR	RESET
10357 08811 18 00317.0  	OR	ALM3B69
10358 08812 02 00297.0  	EQL	ALM2B69
10359                   
10360 08813 16 00297.0  	AND	ALM2B69
10361 08814 16 00331.0  	AND	ALARM69
10362 08815 02 00317.0  	EQL	ALM3B69
10363                   
10364 08816 16 00277.0  	AND	ALM1B69
10365 08817 16 00001.1  	AND	KNIPPER
10366 08818 18 00317.0  	OR	ALM3B69
10367 08819 02 00257.0  	EQL	MELD69
10368                   
10369 08820 18 00257.0  	OR	MELD69
10370 08821 18 00277.0  	OR	ALM1B69
10371 08822 02 00237.0  	EQL	VERGR69
10372                   
10373 08823 16 00237.0  	AND	VERGR69
10374 08824 17 00317.0  	ANDNT	ALM3B69
10375 08825 02 00217.0  	EQL	CA69
10376                   
10377                   
10378 08826 17 00121.1  	ANDNT	RESET
10379 08827 16 00277.1  	AND	ALM1B70
10380 08828 18 00331.1  	OR	ALARM70
10381 08829 02 00011.3  	EQL	DUMP
10382                   
10383 08830 16 00011.3  	AND	DUMP
10384 08831 17 00317.1  	ANDNT	ALM3B70
10385 08832 02 00277.1  	EQL	ALM1B70
10386                   
10387 08833 18 00121.1  	OR	RESET
10388 08834 18 00317.1  	OR	ALM3B70
10389 08835 02 00297.1  	EQL	ALM2B70
10390                   
10391 08836 16 00297.1  	AND	ALM2B70
10392 08837 16 00331.1  	AND	ALARM70
10393 08838 02 00317.1  	EQL	ALM3B70
10394                   
10395 08839 16 00277.1  	AND	ALM1B70
10396 08840 16 00001.1  	AND	KNIPPER
10397 08841 18 00317.1  	OR	ALM3B70
10398 08842 02 00257.1  	EQL	MELD70
10399                   
10400 08843 18 00257.1  	OR	MELD70
10401 08844 18 00277.1  	OR	ALM1B70
10402 08845 02 00237.1  	EQL	VERGR70
10403                   
10404 08846 16 00237.1  	AND	VERGR70
10405 08847 17 00317.1  	ANDNT	ALM3B70
10406 08848 02 00217.1  	EQL	CA70
10407                   
10408                   
10409 08849 17 00121.1  	ANDNT	RESET
10410 08850 16 00277.2  	AND	ALM1B71
10411 08851 18 00331.2  	OR	ALARM71
10412 08852 02 00011.3  	EQL	DUMP
10413                   
10414 08853 16 00011.3  	AND	DUMP
10415 08854 17 00317.2  	ANDNT	ALM3B71
10416 08855 02 00277.2  	EQL	ALM1B71
10417                   
10418 08856 18 00121.1  	OR	RESET
10419 08857 18 00317.2  	OR	ALM3B71
10420 08858 02 00297.2  	EQL	ALM2B71
10421                   
10422 08859 16 00297.2  	AND	ALM2B71
10423 08860 16 00331.2  	AND	ALARM71
10424 08861 02 00317.2  	EQL	ALM3B71
10425                   
10426 08862 16 00277.2  	AND	ALM1B71
10427 08863 16 00001.1  	AND	KNIPPER
10428 08864 18 00317.2  	OR	ALM3B71
10429 08865 02 00257.2  	EQL	MELD71
10430                   
10431 08866 18 00257.2  	OR	MELD71
10432 08867 18 00277.2  	OR	ALM1B71
10433 08868 02 00237.2  	EQL	VERGR71
10434                   
10435 08869 16 00237.2  	AND	VERGR71
10436 08870 17 00317.2  	ANDNT	ALM3B71
10437 08871 02 00217.2  	EQL	CA71
10438                   
10439                   
10440 08872 17 00121.1  	ANDNT	RESET
10441 08873 16 00277.3  	AND	ALM1B72
10442 08874 18 00331.3  	OR	ALARM72
10443 08875 02 00011.3  	EQL	DUMP
10444                   
10445 08876 16 00011.3  	AND	DUMP
10446 08877 17 00317.3  	ANDNT	ALM3B72
10447 08878 02 00277.3  	EQL	ALM1B72
10448                   
10449 08879 18 00121.1  	OR	RESET
10450 08880 18 00317.3  	OR	ALM3B72
10451 08881 02 00297.3  	EQL	ALM2B72
10452                   
10453 08882 16 00297.3  	AND	ALM2B72
10454 08883 16 00331.3  	AND	ALARM72
10455 08884 02 00317.3  	EQL	ALM3B72
10456                   
10457 08885 16 00277.3  	AND	ALM1B72
10458 08886 16 00001.1  	AND	KNIPPER
10459 08887 18 00317.3  	OR	ALM3B72
10460 08888 02 00257.3  	EQL	MELD72
10461                   
10462 08889 18 00257.3  	OR	MELD72
10463 08890 18 00277.3  	OR	ALM1B72
10464 08891 02 00237.3  	EQL	VERGR72
10465                   
10466 08892 16 00237.3  	AND	VERGR72
10467 08893 17 00317.3  	ANDNT	ALM3B72
10468 08894 02 00217.3  	EQL	CA72
10469                   
10470                   
10471 08895 17 00121.1  	ANDNT	RESET
10472 08896 16 00278.0  	AND	ALM1B73
10473 08897 18 00332.0  	OR	ALARM73
10474 08898 02 00011.3  	EQL	DUMP
10475                   
10476 08899 16 00011.3  	AND	DUMP
10477 08900 17 00318.0  	ANDNT	ALM3B73
10478 08901 02 00278.0  	EQL	ALM1B73
10479                   
10480 08902 18 00121.1  	OR	RESET
10481 08903 18 00318.0  	OR	ALM3B73
10482 08904 02 00298.0  	EQL	ALM2B73
10483                   
10484 08905 16 00298.0  	AND	ALM2B73
10485 08906 16 00332.0  	AND	ALARM73
10486 08907 02 00318.0  	EQL	ALM3B73
10487                   
10488 08908 16 00278.0  	AND	ALM1B73
10489 08909 16 00001.1  	AND	KNIPPER
10490 08910 18 00318.0  	OR	ALM3B73
10491 08911 02 00258.0  	EQL	MELD73
10492                   
10493 08912 18 00258.0  	OR	MELD73
10494 08913 18 00278.0  	OR	ALM1B73
10495 08914 02 00238.0  	EQL	VERGR73
10496                   
10497 08915 16 00238.0  	AND	VERGR73
10498 08916 17 00318.0  	ANDNT	ALM3B73
10499 08917 02 00218.0  	EQL	CA73
10500                   
10501                   
10502 08918 17 00121.1  	ANDNT	RESET
10503 08919 16 00278.1  	AND	ALM1B74
10504 08920 18 00332.1  	OR	ALARM74
10505 08921 02 00011.3  	EQL	DUMP
10506                   
10507 08922 16 00011.3  	AND	DUMP
10508 08923 17 00318.1  	ANDNT	ALM3B74
10509 08924 02 00278.1  	EQL	ALM1B74
10510                   
10511 08925 18 00121.1  	OR	RESET
10512 08926 18 00318.1  	OR	ALM3B74
10513 08927 02 00298.1  	EQL	ALM2B74
10514                   
10515 08928 16 00298.1  	AND	ALM2B74
10516 08929 16 00332.1  	AND	ALARM74
10517 08930 02 00318.1  	EQL	ALM3B74
10518                   
10519 08931 16 00278.1  	AND	ALM1B74
10520 08932 16 00001.1  	AND	KNIPPER
10521 08933 18 00318.1  	OR	ALM3B74
10522 08934 02 00258.1  	EQL	MELD74
10523                   
10524 08935 18 00258.1  	OR	MELD74
10525 08936 18 00278.1  	OR	ALM1B74
10526 08937 02 00238.1  	EQL	VERGR74
10527                   
10528 08938 16 00238.1  	AND	VERGR74
10529 08939 17 00318.1  	ANDNT	ALM3B74
10530 08940 02 00218.1  	EQL	CA74
10531                   
10532                   
10533 08941 17 00121.1  	ANDNT	RESET
10534 08942 16 00278.2  	AND	ALM1B75
10535 08943 18 00332.2  	OR	ALARM75
10536 08944 02 00011.3  	EQL	DUMP
10537                   
10538 08945 16 00011.3  	AND	DUMP
10539 08946 17 00318.2  	ANDNT	ALM3B75
10540 08947 02 00278.2  	EQL	ALM1B75
10541                   
10542 08948 18 00121.1  	OR	RESET
10543 08949 18 00318.2  	OR	ALM3B75
10544 08950 02 00298.2  	EQL	ALM2B75
10545                   
10546 08951 16 00298.2  	AND	ALM2B75
10547 08952 16 00332.2  	AND	ALARM75
10548 08953 02 00318.2  	EQL	ALM3B75
10549                   
10550 08954 16 00278.2  	AND	ALM1B75
10551 08955 16 00001.1  	AND	KNIPPER
10552 08956 18 00318.2  	OR	ALM3B75
10553 08957 02 00258.2  	EQL	MELD75
10554                   
10555 08958 18 00258.2  	OR	MELD75
10556 08959 18 00278.2  	OR	ALM1B75
10557 08960 02 00238.2  	EQL	VERGR75
10558                   
10559 08961 16 00238.2  	AND	VERGR75
10560 08962 17 00318.2  	ANDNT	ALM3B75
10561 08963 02 00218.2  	EQL	CA75
10562                   
10563                   
10564 08964 17 00121.1  	ANDNT	RESET
10565 08965 16 00278.3  	AND	ALM1B76
10566 08966 18 00332.3  	OR	ALARM76
10567 08967 02 00011.3  	EQL	DUMP
10568                   
10569 08968 16 00011.3  	AND	DUMP
10570 08969 17 00318.3  	ANDNT	ALM3B76
10571 08970 02 00278.3  	EQL	ALM1B76
10572                   
10573 08971 18 00121.1  	OR	RESET
10574 08972 18 00318.3  	OR	ALM3B76
10575 08973 02 00298.3  	EQL	ALM2B76
10576                   
10577 08974 16 00298.3  	AND	ALM2B76
10578 08975 16 00332.3  	AND	ALARM76
10579 08976 02 00318.3  	EQL	ALM3B76
10580                   
10581 08977 16 00278.3  	AND	ALM1B76
10582 08978 16 00001.1  	AND	KNIPPER
10583 08979 18 00318.3  	OR	ALM3B76
10584 08980 02 00258.3  	EQL	MELD76
10585                   
10586 08981 18 00258.3  	OR	MELD76
10587 08982 18 00278.3  	OR	ALM1B76
10588 08983 02 00238.3  	EQL	VERGR76
10589                   
10590 08984 16 00238.3  	AND	VERGR76
10591 08985 17 00318.3  	ANDNT	ALM3B76
10592 08986 02 00218.3  	EQL	CA76
10593                   
10594                   
10595 08987 17 00121.1  	ANDNT	RESET
10596 08988 16 00279.0  	AND	ALM1B77
10597 08989 18 00333.0  	OR	ALARM77
10598 08990 02 00011.3  	EQL	DUMP
10599                   
10600 08991 16 00011.3  	AND	DUMP
10601 08992 17 00319.0  	ANDNT	ALM3B77
10602 08993 02 00279.0  	EQL	ALM1B77
10603                   
10604 08994 18 00121.1  	OR	RESET
10605 08995 18 00319.0  	OR	ALM3B77
10606 08996 02 00299.0  	EQL	ALM2B77
10607                   
10608 08997 16 00299.0  	AND	ALM2B77
10609 08998 16 00333.0  	AND	ALARM77
10610 08999 02 00319.0  	EQL	ALM3B77
10611                   
10612 09000 16 00279.0  	AND	ALM1B77
10613 09001 16 00001.1  	AND	KNIPPER
10614 09002 18 00319.0  	OR	ALM3B77
10615 09003 02 00259.0  	EQL	MELD77
10616                   
10617 09004 18 00259.0  	OR	MELD77
10618 09005 18 00279.0  	OR	ALM1B77
10619 09006 02 00239.0  	EQL	VERGR77
10620                   
10621 09007 16 00239.0  	AND	VERGR77
10622 09008 17 00319.0  	ANDNT	ALM3B77
10623 09009 02 00219.0  	EQL	CA77
10624                   
10625                   
10626 09010 17 00121.1  	ANDNT	RESET
10627 09011 16 00279.1  	AND	ALM1B78
10628 09012 18 00333.1  	OR	ALARM78
10629 09013 02 00011.3  	EQL	DUMP
10630                   
10631 09014 16 00011.3  	AND	DUMP
10632 09015 17 00319.1  	ANDNT	ALM3B78
10633 09016 02 00279.1  	EQL	ALM1B78
10634                   
10635 09017 18 00121.1  	OR	RESET
10636 09018 18 00319.1  	OR	ALM3B78
10637 09019 02 00299.1  	EQL	ALM2B78
10638                   
10639 09020 16 00299.1  	AND	ALM2B78
10640 09021 16 00333.1  	AND	ALARM78
10641 09022 02 00319.1  	EQL	ALM3B78
10642                   
10643 09023 16 00279.1  	AND	ALM1B78
10644 09024 16 00001.1  	AND	KNIPPER
10645 09025 18 00319.1  	OR	ALM3B78
10646 09026 02 00259.1  	EQL	MELD78
10647                   
10648 09027 18 00259.1  	OR	MELD78
10649 09028 18 00279.1  	OR	ALM1B78
10650 09029 02 00239.1  	EQL	VERGR78
10651                   
10652 09030 16 00239.1  	AND	VERGR78
10653 09031 17 00319.1  	ANDNT	ALM3B78
10654 09032 02 00219.1  	EQL	CA78
10655                   
10656                   
10657 09033 16 00200.0  	AND	CA01
10658 09034 18 00200.1  	OR	CA02
10659 09035 18 00200.2  	OR	CA03
10660 09036 18 00200.3  	OR	CA04
10661 09037 18 00201.0  	OR	CA05
10662 09038 18 00201.1  	OR	CA06
10663 09039 18 00201.2  	OR	CA07
10664 09040 18 00201.3  	OR	CA08
10665 09041 18 00202.0  	OR	CA09
10666 09042 18 00202.1  	OR	CA10
10667 09043 18 00202.2  	OR	CA11
10668 09044 18 00202.3  	OR	CA12
10669 09045 18 00203.0  	OR	CA13
10670 09046 18 00203.1  	OR	CA14
10671 09047 18 00203.2  	OR	CA15
10672 09048 18 00203.3  	OR	CA16
10673 09049 18 00204.0  	OR	CA17
10674 09050 18 00204.1  	OR	CA18
10675 09051 18 00204.2  	OR	CA19
10676 09052 18 00204.3  	OR	CA20
10677 09053 18 00205.0  	OR	CA21
10678 09054 18 00205.1  	OR	CA22
10679 09055 18 00205.2  	OR	CA23
10680 09056 18 00205.3  	OR	CA24
10681 09057 18 00206.0  	OR	CA25
10682 09058 18 00206.1  	OR	CA26
10683 09059 18 00206.2  	OR	CA27
10684 09060 18 00206.3  	OR	CA28
10685 09061 18 00207.0  	OR	CA29
10686 09062 18 00207.1  	OR	CA30
10687 09063 18 00207.2  	OR	CA31
10688 09064 18 00207.3  	OR	CA32
10689 09065 18 00208.0  	OR	CA33
10690 09066 18 00208.1  	OR	CA34
10691 09067 18 00208.2  	OR	CA35
10692 09068 18 00208.3  	OR	CA36
10693 09069 18 00209.0  	OR	CA37
10694 09070 18 00209.1  	OR	CA38
10695 09071 18 00209.2  	OR	CA39
10696 09072 18 00209.3  	OR	CA40
10697 09073 18 00210.0  	OR	CA41
10698 09074 18 00210.1  	OR	CA42
10699 09075 18 00210.2  	OR	CA43
10700 09076 18 00210.3  	OR	CA44
10701 09077 18 00211.0  	OR	CA45	!lage flow alarm vuilproceswater
10702 09078 18 00211.1  	OR	CA46	!regeneratie cmf niet op tijd gevuld
10703 09079 18 00211.2  	OR	CA47	!regeneratie cmf niet op tijd geledigd
10704 09080 18 00211.3  	OR	CA48
10705 09081 18 00212.0  	OR	CA49
10706 09082 18 00212.1  	OR	CA50
10707 09083 18 00212.2  	OR	CA51
10708 09084 18 00212.3  	OR	CA52
10709 09085 18 00213.0  	OR	CA53
10710 09086 18 00213.1  	OR	CA54
10711 09087 18 00213.2  	OR	CA55
10712 09088 18 00213.3  	OR	CA56
10713 09089 18 00214.0  	OR	CA57
10714 09090 18 00214.1  	OR	CA58
10715 09091 18 00214.2  	OR	CA59
10716 09092 18 00214.3  	OR	CA60
10717 09093 18 00215.0  	OR	CA61
10718 09094 18 00215.1  	OR	CA62
10719 09095 18 00215.2  	OR	CA63
10720 09096 18 00215.3  	OR	CA64
10721 09097 18 00216.0  	OR	CA65
10722 09098 18 00216.1  	OR	CA66
10723 09099 18 00216.2  	OR	CA67
10724 09100 18 00216.3  	OR	CA68
10725 09101 18 00217.0  	OR	CA69
10726 09102 18 00217.1  	OR	CA70
10727 09103 18 00217.2  	OR	CA71
10728 09104 18 00217.3  	OR	CA72
10729 09105 18 00218.0  	OR	CA73
10730 09106 18 00218.1  	OR	CA74
10731 09107 18 00218.2  	OR	CA75
10732 09108 18 00218.3  	OR	CA76
10733 09109 18 00219.0  	OR	CA77
10734 09110 18 00219.1  	OR	CA78
10735 09111 02 00147.3  	EQL	CLAXON
10736 09112 00          	NOP	88
10736 09113 00 
10736 09114 00 
10736 09115 00 
10736 09116 00 
10736 09117 00 
10736 09118 00 
10736 09119 00 
10736 09120 00 
10736 09121 00 
10736 09122 00 
10736 09123 00 
10736 09124 00 
10736 09125 00 
10736 09126 00 
10736 09127 00 
10736 09128 00 
10736 09129 00 
10736 09130 00 
10736 09131 00 
10736 09132 00 
10736 09133 00 
10736 09134 00 
10736 09135 00 
10736 09136 00 
10736 09137 00 
10736 09138 00 
10736 09139 00 
10736 09140 00 
10736 09141 00 
10736 09142 00 
10736 09143 00 
10736 09144 00 
10736 09145 00 
10736 09146 00 
10736 09147 00 
10736 09148 00 
10736 09149 00 
10736 09150 00 
10736 09151 00 
10736 09152 00 
10736 09153 00 
10736 09154 00 
10736 09155 00 
10736 09156 00 
10736 09157 00 
10736 09158 00 
10736 09159 00 
10736 09160 00 
10736 09161 00 
10736 09162 00 
10736 09163 00 
10736 09164 00 
10736 09165 00 
10736 09166 00 
10736 09167 00 
10736 09168 00 
10736 09169 00 
10736 09170 00 
10736 09171 00 
10736 09172 00 
10736 09173 00 
10736 09174 00 
10736 09175 00 
10736 09176 00 
10736 09177 00 
10736 09178 00 
10736 09179 00 
10736 09180 00 
10736 09181 00 
10736 09182 00 
10736 09183 00 
10736 09184 00 
10736 09185 00 
10736 09186 00 
10736 09187 00 
10736 09188 00 
10736 09189 00 
10736 09190 00 
10736 09191 00 
10736 09192 00 
10736 09193 00 
10736 09194 00 
10736 09195 00 
10736 09196 00 
10736 09197 00 
10736 09198 00 
10736 09199 00 
10737                   !                               DR_BDR
10738                   !				******
10739                   !
10740                   !
10741                   ! Bedrijfsvoorwaarden
10742                   !
10743 09200 17 00115.2  	ANDNT	ALM0I39	!P10 therm. gestoord
10744 09201 16 00116.0  	AND	BDR0I07	!P10 automatisch
10745 09202 17 00337.0  	ANDNT	ALM0B08	!een of meerdere afsl.gestoord
10746 09203 17 00230.2  	ANDNT	VERGR43	!druk vuilproceswater
10747 09204 17 00230.3  	ANDNT	VERGR44	!rho proceswater
10748 09205 17 00231.0  	ANDNT	VERGR45	!lage flow alarm vuilproceswater
10749 09206 17 00229.0  	ANDNT	VERGR37	!hoge druk alarm P10
10750 09207 17 00220.1  	ANDNT	VERGR02	!stuurlucht gestoord
10751 09208 17 00220.2  	ANDNT	VERGR03	!stuurspanning gestoord
10752 09209 17 00221.0  	ANDNT	VERGR05	!vuilwater tank leeg
10753 09210 16 00362.1  	AND	BDR0B21	!vrijgave uitgangen (aktiveren)
10754 09211 02 00035.1  	EQL	BDR0B11	!bedrijfsvoorwaarden
10755                   
10756 09212 16 00035.1  	AND	BDR0B11	!bedrijfsvoorwaarden
10757 09213 16 00051.0  	AND	BDR0B00	!start bedrijf fasen 1 t/m 6
10758 09214 02 00054.0  	EQL	BDR0B10	!bedrijfsmelding
10759                   
10760 09215 16 00113.0    AND BDR0I03 !bedrijfskeuze schak. "MCS_400"
10761 09216 16 00113.1  	AND	AKTIEF	!aktiveren bedrijfskeuze
10762 09217 09 00390.0  	SET1	WZC0B16	!bedrijfsvoering via WIZCON
10763                   
10764 09218 17 00113.0    ANDNT BDR0I03 !bedrijfskeuze schak. "MCS_400"
10765 09219 08 00390.0  	SET0	WZC0B16	!bedrijfsvoering via WIZCON
10766                   
10767 09220 16 00000.1  	AND	000.1
10768 09221 12 00001    	FTCHC	01
10769 09222 15 03128    	COMP	3128
10770 09223 10 00387.0  	STRB	WZC0B08	!wizconcommando BEDRIJF
10771                   
10772 09224 16 00387.0  	AND	WZC0B08	!wizconcommando BEDRIJF
10773 09225 16 00390.0  	AND	WZC0B16	!bedrijfsvoering via WIZCON
10774 09226 17 00044.2  	ANDNT	REG0B00	!start regen. fasen 8 t/m 33.1
10775 09227 02 00388.0  	EQL	WZC0B12	!wizconcommando BEDRIJF + KEUZESCHAK.=SUP
10776                   
10777 09228 16 00000.1  	AND	000.1
10778 09229 12 00002    	FTCHC	02
10779 09230 15 03128    	COMP	3128
10780 09231 10 00387.1    STRB  WZC0B09 !wizconcommando STAND_BY
10781                   
10782 09232 16 00387.1    AND WZC0B09 !wizconcommando STAND_BY
10783 09233 16 00390.0  	AND	WZC0B16	!bedrijfsvoering via WIZCON
10784 09234 17 00044.2  	ANDNT	REG0B00	!start regen. fasen 8 t/m 33.1
10785 09235 02 00388.1    EQL WZC0B13 !wizconcommando STAND_BY + KEUZESCHAK.=SU
10786                   
10787 09236 16 00000.1  	AND	000.1
10788 09237 12 00003    	FTCHC	03
10789 09238 15 03128    	COMP	3128
10790 09239 10 00387.2  	STRB	WZC0B10	!wizconcommando REGENERATIE
10791                   
10792 09240 16 00387.2  	AND	WZC0B10	!wizconcommando REGENERATIE
10793 09241 16 00390.0  	AND	WZC0B16	!bedrijfsvoering via WIZCON
10794 09242 02 00388.2  	EQL	WZC0B14	!wizconcommando REGENRATIE + KEUZESCHAK.=
10795                   
10796 09243 16 00000.1  	AND	000.1
10797 09244 12 00004    	FTCHC	04
10798 09245 15 03128    	COMP	3128
10799 09246 10 00387.3  	STRB	WZC0B11	!wizconcommando SPUIEN
10800                   
10801 09247 16 00387.3  	AND	WZC0B11	!wizconcommando SPUIEN
10802 09248 16 00390.0  	AND	WZC0B16	!bedrijfsvoering via WIZCON
10803 09249 17 00044.2  	ANDNT	REG0B00	!start regen. fasen 8 t/m 33.1
10804 09250 02 00388.3  	EQL	WZC0B15	!wizconcommando SPUIEN + KEUZESCHAK.=SUPE
10805                   
10806 09251 16 00388.0  	AND	WZC0B12	!wizconcommando BEDRIJF + KEUZESCHAK.=SUP
10807 09252 16 00035.1  	AND	BDR0B11	!bedrijfsvoorwaarden
10808 09253 17 00044.2  	ANDNT	REG0B00	!start regen. fasen 8 t/m 33.1
10809 09254 01 00389.0  	TRIG	WZC0T00	!triggerpuls wizconcommando BEDRIJF
10810 09255 16 00389.0  	AND	WZC0T00	!triggerpuls wizconcommando BEDRIJF
10811 09256 02 00386.0  	EQL	WZC0B04	!commando BEDRIJF vanuit wizcon
10812                   
10813 09257 16 00388.3  	AND	WZC0B15	!wizconcommando SPUIEN + KEUZESCHAK.=SUPE
10814 09258 16 00035.1  	AND	BDR0B11	!bedrijfsvoorwaarden
10815 09259 17 00044.2  	ANDNT	REG0B00	!start regen. fasen 8 t/m 33.1
10816 09260 01 00389.3  	TRIG	WZC0T03	!triggerpuls wizconcommando SPUIEN
10817 09261 16 00389.3  	AND	WZC0T03	!triggerpuls wizconcommando SPUIEN
10818 09262 02 00386.3  	EQL	WZC0B07	!commando SPUIEN vanuit wizcon
10819                   
10820 09263 16 00388.2  	AND	WZC0B14	!wizconcommando REGENRATIE + KEUZESCHAK.=
10821 09264 16 00356.1  	AND	REG0B48	!regen.startvoorwaarden
10822 09265 17 00044.2  	ANDNT	REG0B00	!start regen. fasen 8 t/m 33.1
10823 09266 01 00389.2  	TRIG	WZC0T02	!triggerpuls wizconcommando REGENRATIE
10824 09267 16 00389.2  	AND	WZC0T02	!triggerpuls wizconcommando REGENRATIE
10825 09268 02 00386.2  	EQL	WZC0B06	!commando REGENERATIE vanuit wizcon
10826                   !
10827                   ! aktiveren bedrijfsfasen 1 t/m 6
10828                   !
10829 09269 16 00112.3  	AND	BDR0I02	!bedrijfskeuze schak. "NORMAAL"
10830 09270 16 00113.1  	AND	AKTIEF	!aktiveren bedrijfskeuze
10831 09271 17 00044.2  	ANDNT	REG0B00	!start regen. fasen 8 t/m 33.1
10832 09272 18 00386.0  	OR	WZC0B04	!commando BEDRIJF vanuit wizcon
10833 09273 17 00044.2  	ANDNT	REG0B00	!start regen. fasen 8 t/m 33.1
10834 09274 18 00386.3  	OR	WZC0B07	!commando SPUIEN vanuit wizcon
10835 09275 17 00044.2  	ANDNT	REG0B00	!start regen. fasen 8 t/m 33.1
10836 09276 09 00051.0  	SET1	BDR0B00	!start bedrijf fasen 1 t/m 6
10837                   !
10838                   ! voorwaarden voor stappen naar volgende fase
10839                   !
10840 09277 17 00113.3  	ANDNT	REG0I04	!keuzeschak.regen. automatisch
10841 09278 16 00114.0  	AND	REG0I05	!drukkn.doorstappen regeneratie
10842 09279 01 00052.0  	TRIG	BDR0T00	!doorstap triggerpuls
10843 09280 02 00051.3  	EQL	BDR0B09	!hand doorstap (triggerpuls)
10844                   
10845 09281 18 00051.1  	OR	BDR0B07	!einde fasetimer
10846 09282 18 00051.3  	OR	BDR0B09	!hand doorstap (triggerpuls)
10847 09283 02 00053.3    EQL STAP_2  !stappen faseregister
10848                   !
10849                   ! starten aanloopfase 88
10850                   !
10851 09284 16 00051.0  	AND	BDR0B00	!start bedrijf fasen 1 t/m 6
10852 09285 01 00054.2  	TRIG	TRGAAN88	!triggerpuls aanloopfase 88
10853 09286 02 00366.0  	EQL	TRGBEG88	!triggerpuls begin fase 88
10854 09287 09 00044.3  	SET1	REG0B88	!aanloopfase 88
10855                   
10856 09288 17 00044.3  	ANDNT	REG0B88	!aanloopfase 88
10857 09289 13 02352    	FTCHD	STP88_0	!setpoint 88 eenheden
10858 09290 13 02353    	FTCHD	STP88_1	!setpoint 88 tientallen
10859 09291 13 02354    	FTCHD	STP88_2	!setpoint 88 honderdtallen
10860 09292 13 02355    	FTCHD	STP88_3	!setpoint 88 duizendtallen
10861 09293 14 01452    	STRD	DSP88_0	!display 88 eenheden
10862 09294 14 01453    	STRD	DSP88_1	!display 88 tientallen
10863 09295 14 01454    	STRD	DSP88_2	!display 88 honderdtallen
10864 09296 14 01455    	STRD	DSP88_3	!display 88 duizendtallen
10865 09297 08 00054.3  	SET0	TMRAAN88	!timer aanloopfase 88
10866                   
10867 09298 16 00054.0  	AND	BDR0B10	!bedrijfsmelding
10868 09299 16 00113.3  	AND	REG0I04	!keuzeschak.regen. automatisch
10869 09300 16 00044.3  	AND	REG0B88	!aanloopfase 88
10870 09301 16 00511.1  	AND	S_1SEC	!triggerpuls 1,0 sec.
10871 09302 17 00054.3  	ANDNT	TMRAAN88	!timer aanloopfase 88
10872 09303 06 01452    	CNTD	DSP88_0	!display 88 eenheden
10873 09304 06 01453    	CNTD	DSP88_1	!display 88 tientallen
10874 09305 06 01454    	CNTD	DSP88_2	!display 88 honderdtallen
10875 09306 06 01455    	CNTD	DSP88_3	!display 88 duizendtallen
10876 09307 10 00054.3  	STRB	TMRAAN88	!timer aanloopfase 88
10877                   
10878 09308 18 00366.0  	OR	TRGBEG88	!triggerpuls begin fase 88
10879 09309 18 00117.0  	OR	ALM0I44	!slechte geleidb.h. reinwater
10880 09310 12 00000    	FTCHC	00
10881 09311 12 00006    	FTCHC	06
10882 09312 14 02400    	STRD	EENTIM88	!eenh. 1 min. timer in fase 88
10883 09313 14 02401    	STRD	TIETIM88	!tient. 1 min. timer in fase 88
10884 09314 08 00365.3  	SET0	TMRGEL88	!timer 1 min. geleidb. goed in fase 88
10885                   
10886 09315 16 00044.3  	AND	REG0B88	!aanloopfase 88
10887 09316 16 00054.0  	AND	BDR0B10	!bedrijfsmelding
10888 09317 16 00113.3  	AND	REG0I04	!keuzeschak.regen. automatisch
10889 09318 17 00117.0  	ANDNT	ALM0I44	!slechte geleidb.h. reinwater
10890 09319 16 00511.1  	AND	S_1SEC	!triggerpuls 1,0 sec.
10891 09320 17 00365.3  	ANDNT	TMRGEL88	!timer 1 min. geleidb. goed in fase 88
10892 09321 06 02400    	CNTD	EENTIM88	!eenh. 1 min. timer in fase 88
10893 09322 06 02401    	CNTD	TIETIM88	!tient. 1 min. timer in fase 88
10894 09323 10 00365.3  	STRB	TMRGEL88	!timer 1 min. geleidb. goed in fase 88
10895                   
10896 09324 18 00053.3    OR  STAP_2  !stappen faseregister
10897 09325 18 00365.3  	OR	TMRGEL88	!timer 1 min. geleidb. goed in fase 88
10898 09326 18 00054.3  	OR	TMRAAN88	!timer aanloopfase 88
10899 09327 08 00044.3  	SET0	REG0B88	!aanloopfase 88
10900                   !
10901                   !
10902 09328 16 00037.1  	AND	BDR0B06	!bedrijfsfase 6
10903 09329 16 00053.3    AND STAP_2  !stappen faseregister
10904 09330 08 00037.1  	SET0	BDR0B06	!bedrijfsfase 6
10905                   !
10906                   ! stap naar fase 6
10907                   !
10908 09331 16 00037.0  	AND	BDR0B05	!bedrijfsfase 5
10909 09332 16 00053.3    AND STAP_2  !stappen faseregister
10910 09333 09 00037.1  	SET1	BDR0B06	!bedrijfsfase 6
10911 09334 08 00037.0  	SET0	BDR0B05	!bedrijfsfase 5
10912                   !
10913                   ! stap naar fase 5
10914                   !
10915 09335 16 00036.3  	AND	BDR0B04	!bedrijfsfase 4
10916 09336 16 00053.3    AND STAP_2  !stappen faseregister
10917 09337 09 00037.0  	SET1	BDR0B05	!bedrijfsfase 5
10918 09338 08 00036.3  	SET0	BDR0B04	!bedrijfsfase 4
10919                   !
10920                   ! stap naar fase 4
10921                   !
10922 09339 16 00036.2  	AND	BDR0B03	!bedrijfsfase 3
10923 09340 16 00053.3    AND STAP_2  !stappen faseregister
10924 09341 09 00036.3  	SET1	BDR0B04	!bedrijfsfase 4
10925 09342 08 00036.2  	SET0	BDR0B03	!bedrijfsfase 3
10926                   !
10927                   ! stap naar fase 3
10928                   !
10929 09343 16 00036.1  	AND	BDR0B02	!bedrijfsfase 2
10930 09344 16 00053.3    AND STAP_2  !stappen faseregister
10931 09345 09 00036.2  	SET1	BDR0B03	!bedrijfsfase 3
10932 09346 08 00036.1  	SET0	BDR0B02	!bedrijfsfase 2
10933                   !
10934                   ! stap naar fase 2
10935                   !
10936 09347 16 00036.0  	AND	BDR0B01	!bedrijfsfase 1
10937 09348 16 00053.3    AND STAP_2  !stappen faseregister
10938 09349 09 00036.1  	SET1	BDR0B02	!bedrijfsfase 2
10939 09350 08 00036.0  	SET0	BDR0B01	!bedrijfsfase 1
10940                   !
10941                   ! starten fase 1
10942                   !
10943 09351 16 00051.0  	AND	BDR0B00	!start bedrijf fasen 1 t/m 6
10944 09352 17 00037.1  	ANDNT	BDR0B06	!bedrijfsfase 6
10945 09353 17 00044.3  	ANDNT	REG0B88	!aanloopfase 88
10946 09354 01 00052.1  	TRIG	BDR0T01	!triggerpuls laden timer fase 1
10947 09355 02 00051.2  	EQL	BDR0B08	!startpuls bedrijf fase 1 t/m 6
10948                   
10949 09356 16 00051.2  	AND	BDR0B08	!startpuls bedrijf fase 1 t/m 6
10950 09357 09 00036.0  	SET1	BDR0B01	!bedrijfsfase 1
10951                   !
10952                   ! laden fase tijden
10953                   !
10954 09358 16 00051.2  	AND	BDR0B08	!startpuls bedrijf fase 1 t/m 6
10955 09359 30 00004    	JFRF	L09363
10956 09360 13 02004    	FTCHD	STP01_0	!setpoint 01 eenheden
10957 09361 13 02005    	FTCHD	STP01_1	!setpoint 01 tientallen
10958 09362 13 02006    	FTCHD	STP01_2	!setpoint 01 honderdtallen
10959 09363 13 02007    L09363	FTCHD	STP01_3	!setpoint 01 duizendtallen
10960                   
10961 09364 17 00036.0  	ANDNT	BDR0B01	!bedrijfsfase 1
10962 09365 01 00052.2  	TRIG	BDR0T02	!triggerpuls laden timer fase 2
10963 09366 30 00004    	JFRF	L09370
10964 09367 13 02008    	FTCHD	STP02_0	!setpoint 02 eenheden
10965 09368 13 02009    	FTCHD	STP02_1	!setpoint 02 tientallen
10966 09369 13 02010    	FTCHD	STP02_2	!setpoint 02 honderdtallen
10967 09370 13 02011    L09370	FTCHD	STP02_3	!setpoint 02 duizendtallen
10968                   
10969 09371 17 00036.1  	ANDNT	BDR0B02	!bedrijfsfase 2
10970 09372 01 00052.3  	TRIG	BDR0T03	!triggerpuls laden timer fase 3
10971 09373 30 00004    	JFRF	L09377
10972 09374 13 02012    	FTCHD	STP03_0	!setpoint 03 eenheden
10973 09375 13 02013    	FTCHD	STP03_1	!setpoint 03 tientallen
10974 09376 13 02014    	FTCHD	STP03_2	!setpoint 03 honderdtallen
10975 09377 13 02015    L09377	FTCHD	STP03_3	!setpoint 03 duizendtallen
10976                   
10977 09378 17 00036.2  	ANDNT	BDR0B03	!bedrijfsfase 3
10978 09379 01 00053.0  	TRIG	BDR0T04	!triggerpuls laden timer fase 4
10979 09380 30 00004    	JFRF	L09384
10980 09381 13 02016    	FTCHD	STP04_0	!setpoint 04 eenheden
10981 09382 13 02017    	FTCHD	STP04_1	!setpoint 04 tientallen
10982 09383 13 02018    	FTCHD	STP04_2	!setpoint 04 honderdtallen
10983 09384 13 02019    L09384	FTCHD	STP04_3	!setpoint 04 duizendtallen
10984                   
10985 09385 17 00036.3  	ANDNT	BDR0B04	!bedrijfsfase 4
10986 09386 01 00053.1  	TRIG	BDR0T05	!triggerpuls laden timer fase 5
10987 09387 30 00004    	JFRF	L09391
10988 09388 13 02020    	FTCHD	STP05_0	!setpoint 05 eenheden
10989 09389 13 02021    	FTCHD	STP05_1	!setpoint 05 tientallen
10990 09390 13 02022    	FTCHD	STP05_2	!setpoint 05 honderdtallen
10991 09391 13 02023    L09391	FTCHD	STP05_3	!setpoint 05 duizendtallen
10992                   
10993 09392 17 00037.0  	ANDNT	BDR0B05	!bedrijfsfase 5
10994 09393 01 00053.2  	TRIG	BDR0T06	!triggerpuls laden timer fase 6
10995 09394 30 00004    	JFRF	L09398
10996 09395 13 02024    	FTCHD	STP06_0	!setpoint 06 eenheden
10997 09396 13 02025    	FTCHD	STP06_1	!setpoint 06 tientallen
10998 09397 13 02026    	FTCHD	STP06_2	!setpoint 06 honderdtallen
10999 09398 13 02027    L09398	FTCHD	STP06_3	!setpoint 06 duizendtallen
11000                   !
11001                   ! opslaan tijden in fasetimer
11002                   !
11003 09399 16 00053.3    AND STAP_2  !stappen faseregister
11004 09400 18 00051.2  	OR	BDR0B08	!startpuls bedrijf fase 1 t/m 6
11005 09401 14 01492    	STRD	DSP98_0	!display 98 eenheden
11006 09402 14 01493    	STRD	DSP98_1	!display 98 tientallen
11007 09403 14 01494    	STRD	DSP98_2	!display 98 honderdtallen
11008 09404 14 01495    	STRD	DSP98_3	!display 98 duizendtallen
11009 09405 08 00051.1  	SET0	BDR0B07	!einde fasetimer
11010                   !
11011                   ! afloop fasetimer indien bedrijfsvoorwaarden aanwezig
11012                   !
11013 09406 16 00511.1  	AND	S_1SEC	!triggerpuls 1,0 sec.
11014 09407 16 00054.0  	AND	BDR0B10	!bedrijfsmelding
11015 09408 16 00113.3  	AND	REG0I04	!keuzeschak.regen. automatisch
11016 09409 17 00051.1  	ANDNT	BDR0B07	!einde fasetimer
11017 09410 06 01492    	CNTD	DSP98_0	!display 98 eenheden
11018 09411 06 01493    	CNTD	DSP98_1	!display 98 tientallen
11019 09412 06 01494    	CNTD	DSP98_2	!display 98 honderdtallen
11020 09413 06 01495    	CNTD	DSP98_3	!display 98 duizendtallen
11021 09414 10 00051.1  	STRB	BDR0B07	!einde fasetimer
11022                   
11023 09415 17 00388.0  	ANDNT	WZC0B12	!wizconcommando BEDRIJF + KEUZESCHAK.=SUP
11024 09416 17 00388.3  	ANDNT	WZC0B15	!wizconcommando SPUIEN + KEUZESCHAK.=SUPE
11025 09417 01 00390.1  	TRIG	WZC0T04	!triggerpuls einde bedrijf via WIZCON
11026 09418 02 00390.2  	EQL	WZC0B17	!puls einde bedrijf via WIZCON
11027                   
11028 09419 17 00112.3  	ANDNT	BDR0I02	!bedrijfskeuze schak. "NORMAAL"
11029 09420 01 00054.1  	TRIG	BDR0T07	!triggerpuls reset fasen
11030 09421 02 00390.3  	EQL	WZC0B18	!puls einde bedrijf via schakelaar
11031                   !
11032                   ! resetten bedrijfsfasen indien keuzeschakelaar niet in stand NORMAAL
11033                   ! of op aanvraag van WIZCON
11034                   !
11035 09422 18 00390.2  	OR	WZC0B17	!puls einde bedrijf via WIZCON
11036 09423 18 00390.3  	OR	WZC0B18	!puls einde bedrijf via schakelaar
11037 09424 08 00051.0  	SET0	BDR0B00	!start bedrijf fasen 1 t/m 6
11038 09425 08 00036.0  	SET0	BDR0B01	!bedrijfsfase 1
11039 09426 08 00036.1  	SET0	BDR0B02	!bedrijfsfase 2
11040 09427 08 00036.2  	SET0	BDR0B03	!bedrijfsfase 3
11041 09428 08 00036.3  	SET0	BDR0B04	!bedrijfsfase 4
11042 09429 08 00037.0  	SET0	BDR0B05	!bedrijfsfase 5
11043 09430 08 00037.1  	SET0	BDR0B06	!bedrijfsfase 6
11044 09431 08 00051.1  	SET0	BDR0B07	!einde fasetimer
11045 09432 08 00044.3  	SET0	REG0B88	!aanloopfase 88
11046 09433 12 00000    	FTCHC	00
11047 09434 12 00000    	FTCHC	00
11048 09435 12 00000    	FTCHC	00
11049 09436 12 00000    	FTCHC	00
11050 09437 14 01492    	STRD	DSP98_0	!display 98 eenheden
11051 09438 14 01493    	STRD	DSP98_1	!display 98 tientallen
11052 09439 14 01494    	STRD	DSP98_2	!display 98 honderdtallen
11053 09440 14 01495    	STRD	DSP98_3	!display 98 duizendtallen
11054                   !
11055                   ! overname setpoints fase tijden door display buffer
11056                   !
11057 09441 16 00036.0  	AND	BDR0B01	!bedrijfsfase 1
11058 09442 30 00008    	JFRF	L09450
11059 09443 13 01492    	FTCHD	DSP98_0	!display 98 eenheden
11060 09444 13 01493    	FTCHD	DSP98_1	!display 98 tientallen
11061 09445 13 01494    	FTCHD	DSP98_2	!display 98 honderdtallen
11062 09446 13 01495    	FTCHD	DSP98_3	!display 98 duizendtallen
11063 09447 14 01104    	STRD	DSP01_0	!display 01 eenheden
11064 09448 14 01105    	STRD	DSP01_1	!display 01 tientallen
11065 09449 14 01106    	STRD	DSP01_2	!display 01 honderdtallen
11066 09450 14 01107    L09450	STRD	DSP01_3	!display 01 duizendtallen
11067                   
11068 09451 17 00036.0  	ANDNT	BDR0B01	!bedrijfsfase 1
11069 09452 30 00008    	JFRF	L09460
11070 09453 13 02004    	FTCHD	STP01_0	!setpoint 01 eenheden
11071 09454 13 02005    	FTCHD	STP01_1	!setpoint 01 tientallen
11072 09455 13 02006    	FTCHD	STP01_2	!setpoint 01 honderdtallen
11073 09456 13 02007    	FTCHD	STP01_3	!setpoint 01 duizendtallen
11074 09457 14 01104    	STRD	DSP01_0	!display 01 eenheden
11075 09458 14 01105    	STRD	DSP01_1	!display 01 tientallen
11076 09459 14 01106    	STRD	DSP01_2	!display 01 honderdtallen
11077 09460 14 01107    L09460	STRD	DSP01_3	!display 01 duizendtallen
11078                   
11079 09461 16 00036.1  	AND	BDR0B02	!bedrijfsfase 2
11080 09462 30 00008    	JFRF	L09470
11081 09463 13 01492    	FTCHD	DSP98_0	!display 98 eenheden
11082 09464 13 01493    	FTCHD	DSP98_1	!display 98 tientallen
11083 09465 13 01494    	FTCHD	DSP98_2	!display 98 honderdtallen
11084 09466 13 01495    	FTCHD	DSP98_3	!display 98 duizendtallen
11085 09467 14 01108    	STRD	DSP02_0	!display 02 eenheden
11086 09468 14 01109    	STRD	DSP02_1	!display 02 tientallen
11087 09469 14 01110    	STRD	DSP02_2	!display 02 honderdtallen
11088 09470 14 01111    L09470	STRD	DSP02_3	!display 02 duizendtallen
11089                   
11090 09471 17 00036.1  	ANDNT	BDR0B02	!bedrijfsfase 2
11091 09472 30 00008    	JFRF	L09480
11092 09473 13 02008    	FTCHD	STP02_0	!setpoint 02 eenheden
11093 09474 13 02009    	FTCHD	STP02_1	!setpoint 02 tientallen
11094 09475 13 02010    	FTCHD	STP02_2	!setpoint 02 honderdtallen
11095 09476 13 02011    	FTCHD	STP02_3	!setpoint 02 duizendtallen
11096 09477 14 01108    	STRD	DSP02_0	!display 02 eenheden
11097 09478 14 01109    	STRD	DSP02_1	!display 02 tientallen
11098 09479 14 01110    	STRD	DSP02_2	!display 02 honderdtallen
11099 09480 14 01111    L09480	STRD	DSP02_3	!display 02 duizendtallen
11100                   
11101 09481 16 00036.2  	AND	BDR0B03	!bedrijfsfase 3
11102 09482 30 00008    	JFRF	L09490
11103 09483 13 01492    	FTCHD	DSP98_0	!display 98 eenheden
11104 09484 13 01493    	FTCHD	DSP98_1	!display 98 tientallen
11105 09485 13 01494    	FTCHD	DSP98_2	!display 98 honderdtallen
11106 09486 13 01495    	FTCHD	DSP98_3	!display 98 duizendtallen
11107 09487 14 01112    	STRD	DSP03_0	!display 03 eenheden
11108 09488 14 01113    	STRD	DSP03_1	!display 03 tientallen
11109 09489 14 01114    	STRD	DSP03_2	!display 03 honderdtallen
11110 09490 14 01115    L09490	STRD	DSP03_3	!display 03 duizendtallen
11111                   
11112 09491 17 00036.2  	ANDNT	BDR0B03	!bedrijfsfase 3
11113 09492 30 00008    	JFRF	L09500
11114 09493 13 02012    	FTCHD	STP03_0	!setpoint 03 eenheden
11115 09494 13 02013    	FTCHD	STP03_1	!setpoint 03 tientallen
11116 09495 13 02014    	FTCHD	STP03_2	!setpoint 03 honderdtallen
11117 09496 13 02015    	FTCHD	STP03_3	!setpoint 03 duizendtallen
11118 09497 14 01112    	STRD	DSP03_0	!display 03 eenheden
11119 09498 14 01113    	STRD	DSP03_1	!display 03 tientallen
11120 09499 14 01114    	STRD	DSP03_2	!display 03 honderdtallen
11121 09500 14 01115    L09500	STRD	DSP03_3	!display 03 duizendtallen
11122                   
11123 09501 16 00036.3  	AND	BDR0B04	!bedrijfsfase 4
11124 09502 30 00008    	JFRF	L09510
11125 09503 13 01492    	FTCHD	DSP98_0	!display 98 eenheden
11126 09504 13 01493    	FTCHD	DSP98_1	!display 98 tientallen
11127 09505 13 01494    	FTCHD	DSP98_2	!display 98 honderdtallen
11128 09506 13 01495    	FTCHD	DSP98_3	!display 98 duizendtallen
11129 09507 14 01116    	STRD	DSP04_0	!display 04 eenheden
11130 09508 14 01117    	STRD	DSP04_1	!display 04 tientallen
11131 09509 14 01118    	STRD	DSP04_2	!display 04 honderdtallen
11132 09510 14 01119    L09510	STRD	DSP04_3	!display 04 duizendtallen
11133                   
11134 09511 17 00036.3  	ANDNT	BDR0B04	!bedrijfsfase 4
11135 09512 30 00008    	JFRF	L09520
11136 09513 13 02016    	FTCHD	STP04_0	!setpoint 04 eenheden
11137 09514 13 02017    	FTCHD	STP04_1	!setpoint 04 tientallen
11138 09515 13 02018    	FTCHD	STP04_2	!setpoint 04 honderdtallen
11139 09516 13 02019    	FTCHD	STP04_3	!setpoint 04 duizendtallen
11140 09517 14 01116    	STRD	DSP04_0	!display 04 eenheden
11141 09518 14 01117    	STRD	DSP04_1	!display 04 tientallen
11142 09519 14 01118    	STRD	DSP04_2	!display 04 honderdtallen
11143 09520 14 01119    L09520	STRD	DSP04_3	!display 04 duizendtallen
11144                   
11145 09521 16 00037.0  	AND	BDR0B05	!bedrijfsfase 5
11146 09522 30 00008    	JFRF	L09530
11147 09523 13 01492    	FTCHD	DSP98_0	!display 98 eenheden
11148 09524 13 01493    	FTCHD	DSP98_1	!display 98 tientallen
11149 09525 13 01494    	FTCHD	DSP98_2	!display 98 honderdtallen
11150 09526 13 01495    	FTCHD	DSP98_3	!display 98 duizendtallen
11151 09527 14 01120    	STRD	DSP05_0	!display 05 eenheden
11152 09528 14 01121    	STRD	DSP05_1	!display 05 tientallen
11153 09529 14 01122    	STRD	DSP05_2	!display 05 honderdtallen
11154 09530 14 01123    L09530	STRD	DSP05_3	!display 05 duizendtallen
11155                   
11156 09531 17 00037.0  	ANDNT	BDR0B05	!bedrijfsfase 5
11157 09532 30 00008    	JFRF	L09540
11158 09533 13 02020    	FTCHD	STP05_0	!setpoint 05 eenheden
11159 09534 13 02021    	FTCHD	STP05_1	!setpoint 05 tientallen
11160 09535 13 02022    	FTCHD	STP05_2	!setpoint 05 honderdtallen
11161 09536 13 02023    	FTCHD	STP05_3	!setpoint 05 duizendtallen
11162 09537 14 01120    	STRD	DSP05_0	!display 05 eenheden
11163 09538 14 01121    	STRD	DSP05_1	!display 05 tientallen
11164 09539 14 01122    	STRD	DSP05_2	!display 05 honderdtallen
11165 09540 14 01123    L09540	STRD	DSP05_3	!display 05 duizendtallen
11166                   
11167 09541 16 00037.1  	AND	BDR0B06	!bedrijfsfase 6
11168 09542 30 00008    	JFRF	L09550
11169 09543 13 01492    	FTCHD	DSP98_0	!display 98 eenheden
11170 09544 13 01493    	FTCHD	DSP98_1	!display 98 tientallen
11171 09545 13 01494    	FTCHD	DSP98_2	!display 98 honderdtallen
11172 09546 13 01495    	FTCHD	DSP98_3	!display 98 duizendtallen
11173 09547 14 01124    	STRD	DSP06_0	!display 06 eenheden
11174 09548 14 01125    	STRD	DSP06_1	!display 06 tientallen
11175 09549 14 01126    	STRD	DSP06_2	!display 06 honderdtallen
11176 09550 14 01127    L09550	STRD	DSP06_3	!display 06 duizendtallen
11177                   
11178 09551 17 00037.1  	ANDNT	BDR0B06	!bedrijfsfase 6
11179 09552 30 00008    	JFRF	L09560
11180 09553 13 02024    	FTCHD	STP06_0	!setpoint 06 eenheden
11181 09554 13 02025    	FTCHD	STP06_1	!setpoint 06 tientallen
11182 09555 13 02026    	FTCHD	STP06_2	!setpoint 06 honderdtallen
11183 09556 13 02027    	FTCHD	STP06_3	!setpoint 06 duizendtallen
11184 09557 14 01124    	STRD	DSP06_0	!display 06 eenheden
11185 09558 14 01125    	STRD	DSP06_1	!display 06 tientallen
11186 09559 14 01126    	STRD	DSP06_2	!display 06 honderdtallen
11187 09560 14 01127    L09560	STRD	DSP06_3	!display 06 duizendtallen
11188                   !
11189                   ! besturing t.b.v. fase 7
11190                   !
11191 09561 16 00051.0  	AND	BDR0B00	!start bedrijf fasen 1 t/m 6
11192 09562 01 00363.0  	TRIG	BDR0T08	!triggerpuls
11193 09563 02 00360.0  	EQL	BDR0B12	!startpuls wachttijd fase 7
11194                   
11195 09564 16 00360.0  	AND	BDR0B12	!startpuls wachttijd fase 7
11196 09565 18 00360.1  	OR	BDR0B13	!min. puls
11197 09566 12 00000    	FTCHC	00
11198 09567 12 00006    	FTCHC	06
11199 09568 14 02503    	STRD	BD0T00
11200 09569 14 02504    	STRD	BD0T01
11201 09570 08 00360.1  	SET0	BDR0B13	!min. puls
11202                   
11203 09571 16 00511.1  	AND	S_1SEC	!triggerpuls 1,0 sec.
11204 09572 17 00360.2  	ANDNT	BDR0B14	!einde 8 uur (wachttijd) fase 7
11205 09573 16 00054.0  	AND	BDR0B10	!bedrijfsmelding
11206 09574 17 00360.1  	ANDNT	BDR0B13	!min. puls
11207 09575 06 02503    	CNTD	BD0T00
11208 09576 06 02504    	CNTD	BD0T01
11209 09577 10 00360.1  	STRB	BDR0B13	!min. puls
11210                   
11211 09578 16 00360.0  	AND	BDR0B12	!startpuls wachttijd fase 7
11212 09579 18 00361.3  	OR	BDR0B19	!fasetimer fase 7 (einde fase 7)
11213 09580 01 00363.1  	TRIG	BDR0T09	!tr.puls laden wachttijd fase 7
11214 09581 13 02148    	FTCHD	STP37_0	!setpoint 37 eenheden
11215 09582 13 02149    	FTCHD	STP37_1	!setpoint 37 tientallen
11216 09583 13 02150    	FTCHD	STP37_2	!setpoint 37 honderdtallen
11217 09584 13 02151    	FTCHD	STP37_3	!setpoint 37 duizendtallen
11218 09585 14 01248    	STRD	DSP37_0	!display 37 eenheden
11219 09586 14 01249    	STRD	DSP37_1	!display 37 tientallen
11220 09587 14 01250    	STRD	DSP37_2	!display 37 honderdtallen
11221 09588 14 01251    	STRD	DSP37_3	!display 37 duizendtallen
11222 09589 08 00360.2  	SET0	BDR0B14	!einde 8 uur (wachttijd) fase 7
11223                   
11224 09590 16 00051.0  	AND	BDR0B00	!start bedrijf fasen 1 t/m 6
11225 09591 16 00360.1  	AND	BDR0B13	!min. puls
11226 09592 17 00360.2  	ANDNT	BDR0B14	!einde 8 uur (wachttijd) fase 7
11227 09593 06 01248    	CNTD	DSP37_0	!display 37 eenheden
11228 09594 06 01249    	CNTD	DSP37_1	!display 37 tientallen
11229 09595 06 01250    	CNTD	DSP37_2	!display 37 honderdtallen
11230 09596 06 01251    	CNTD	DSP37_3	!display 37 duizendtallen
11231 09597 10 00360.2  	STRB	BDR0B14	!einde 8 uur (wachttijd) fase 7
11232                   
11233 09598 16 00036.1  	AND	BDR0B02	!bedrijfsfase 2
11234 09599 18 00036.3  	OR	BDR0B04	!bedrijfsfase 4
11235 09600 18 00037.1  	OR	BDR0B06	!bedrijfsfase 6
11236 09601 02 00360.3  	EQL	BDR0B15	!fase 2,4,6
11237                   
11238 09602 01 00363.2  	TRIG	BDR0T10	!tr.puls begin fasen 2,4,6
11239 09603 02 00361.0  	EQL	BDR0B16	!puls fasebegin fasen 2,4,6
11240                   
11241 09604 16 00360.2  	AND	BDR0B14	!einde 8 uur (wachttijd) fase 7
11242 09605 16 00361.0  	AND	BDR0B16	!puls fasebegin fasen 2,4,6
11243 09606 09 00037.2    SET1  FASE_7  !fase 7
11244 09607 02 00361.2  	EQL	BDR0B18	!puls laden fasetimer fase 7
11245                   
11246 09608 16 00361.2  	AND	BDR0B18	!puls laden fasetimer fase 7
11247 09609 13 02028    	FTCHD	STP07_0	!setpoint 07 eenheden
11248 09610 13 02029    	FTCHD	STP07_1	!setpoint 07 tientallen
11249 09611 13 02030    	FTCHD	STP07_2	!setpoint 07 honderdtallen
11250 09612 13 02031    	FTCHD	STP07_3	!setpoint 07 duizendtallen
11251 09613 14 01128    	STRD	DSP07_0	!display 07 eenheden
11252 09614 14 01129    	STRD	DSP07_1	!display 07 tientallen
11253 09615 14 01130    	STRD	DSP07_2	!display 07 honderdtallen
11254 09616 14 01131    	STRD	DSP07_3	!display 07 duizendtallen
11255 09617 08 00361.3  	SET0	BDR0B19	!fasetimer fase 7 (einde fase 7)
11256                   
11257 09618 16 00511.1  	AND	S_1SEC	!triggerpuls 1,0 sec.
11258 09619 16 00037.2    AND FASE_7  !fase 7
11259 09620 16 00054.0  	AND	BDR0B10	!bedrijfsmelding
11260 09621 06 01128    	CNTD	DSP07_0	!display 07 eenheden
11261 09622 06 01129    	CNTD	DSP07_1	!display 07 tientallen
11262 09623 06 01130    	CNTD	DSP07_2	!display 07 honderdtallen
11263 09624 06 01131    	CNTD	DSP07_3	!display 07 duizendtallen
11264 09625 10 00361.3  	STRB	BDR0B19	!fasetimer fase 7 (einde fase 7)
11265                   
11266 09626 16 00361.3  	AND	BDR0B19	!fasetimer fase 7 (einde fase 7)
11267 09627 08 00037.2    SET0  FASE_7  !fase 7
11268                   !
11269                   ! vrijgave uitgangen bij handbedrijf en aktiveren
11270                   !
11271 09628 17 00113.3  	ANDNT	REG0I04	!keuzeschak.regen. automatisch
11272 09629 16 00114.1  	AND	REG0I06	!drukkn.aktiveren gekozen fase
11273 09630 01 00364.0  	TRIG	BDR0T12	!triggerpuls
11274 09631 02 00362.0  	EQL	BDR0B20	!puls drukknop aktiveren
11275                   
11276 09632 16 00113.3  	AND	REG0I04	!keuzeschak.regen. automatisch
11277 09633 18 00362.0  	OR	BDR0B20	!puls drukknop aktiveren
11278 09634 09 00362.1  	SET1	BDR0B21	!vrijgave uitgangen (aktiveren)
11279                   
11280 09635 17 00113.3  	ANDNT	REG0I04	!keuzeschak.regen. automatisch
11281 09636 01 00364.1  	TRIG	BDR0T13	!triggerpuls
11282 09637 02 00362.2  	EQL	BDR0B22	!puls handbedrijf
11283                   
11284 09638 17 00113.3  	ANDNT	REG0I04	!keuzeschak.regen. automatisch
11285 09639 16 00114.0  	AND	REG0I05	!drukkn.doorstappen regeneratie
11286 09640 01 00364.2  	TRIG	BDR0T14	!triggerpuls
11287 09641 02 00362.3  	EQL	BDR0B23	!triggerpuls doorstappen
11288                   
11289 09642 16 00362.2  	AND	BDR0B22	!puls handbedrijf
11290 09643 18 00362.3  	OR	BDR0B23	!triggerpuls doorstappen
11291 09644 08 00362.1  	SET0	BDR0B21	!vrijgave uitgangen (aktiveren)
11292                   
11293 09645 17 00365.0    ANDNT TIMER_61  !pauzetijd aansturing afsl. V12.1
11294 09646 18 00015.0    OR  PLCC1 !eerste PLC_cyclus hoog_signaal
11295 09647 19 00054.0  	ORNT	BDR0B10	!bedrijfsmelding
11296 09648 13 02272    	FTCHD	STP68_0	!setpoint 68 eenheden
11297 09649 13 02273    	FTCHD	STP68_1	!setpoint 68 tientallen
11298 09650 13 02274    	FTCHD	STP68_2	!setpoint 68 honderdtallen
11299 09651 13 02275    	FTCHD	STP68_3	!setpoint 68 duizendtallen
11300 09652 14 01372    	STRD	DSP68_0	!display 68 eenheden
11301 09653 14 01373    	STRD	DSP68_1	!display 68 tientallen
11302 09654 14 01374    	STRD	DSP68_2	!display 68 honderdtallen
11303 09655 14 01375    	STRD	DSP68_3	!display 68 duizendtallen
11304 09656 08 00365.1    SET0  TIMER_62  !pulstijd aansturing afsl. V12.1
11305                   
11306 09657 16 00511.3  	AND	S_1MIN	!triggerpuls 1 min.
11307 09658 16 00054.0  	AND	BDR0B10	!bedrijfsmelding
11308 09659 16 00365.0    AND TIMER_61  !pauzetijd aansturing afsl. V12.1
11309 09660 17 00365.1    ANDNT TIMER_62  !pulstijd aansturing afsl. V12.1
11310 09661 06 01372    	CNTD	DSP68_0	!display 68 eenheden
11311 09662 06 01373    	CNTD	DSP68_1	!display 68 tientallen
11312 09663 06 01374    	CNTD	DSP68_2	!display 68 honderdtallen
11313 09664 06 01375    	CNTD	DSP68_3	!display 68 duizendtallen
11314 09665 10 00365.1    STRB  TIMER_62  !pulstijd aansturing afsl. V12.1
11315                   
11316 09666 16 00365.1    AND TIMER_62  !pulstijd aansturing afsl. V12.1
11317 09667 18 00015.0    OR  PLCC1 !eerste PLC_cyclus hoog_signaal
11318 09668 19 00054.0  	ORNT	BDR0B10	!bedrijfsmelding
11319 09669 13 02268    	FTCHD	STP67_0	!setpoint 67 eenheden
11320 09670 13 02269    	FTCHD	STP67_1	!setpoint 67 tientallen
11321 09671 13 02270    	FTCHD	STP67_2	!setpoint 67 honderdtallen
11322 09672 13 02271    	FTCHD	STP67_3	!setpoint 67 duizendtallen
11323 09673 14 01368    	STRD	DSP67_0	!display 67 eenheden
11324 09674 14 01369    	STRD	DSP67_1	!display 67 tientallen
11325 09675 14 01370    	STRD	DSP67_2	!display 67 honderdtallen
11326 09676 14 01371    	STRD	DSP67_3	!display 67 duizendtallen
11327 09677 08 00365.0    SET0  TIMER_61  !pauzetijd aansturing afsl. V12.1
11328                   
11329 09678 16 00511.3  	AND	S_1MIN	!triggerpuls 1 min.
11330 09679 17 00365.1    ANDNT TIMER_62  !pulstijd aansturing afsl. V12.1
11331 09680 17 00365.0    ANDNT TIMER_61  !pauzetijd aansturing afsl. V12.1
11332 09681 06 01368    	CNTD	DSP67_0	!display 67 eenheden
11333 09682 06 01369    	CNTD	DSP67_1	!display 67 tientallen
11334 09683 06 01370    	CNTD	DSP67_2	!display 67 honderdtallen
11335 09684 06 01371    	CNTD	DSP67_3	!display 67 duizendtallen
11336 09685 10 00365.0    STRB  TIMER_61  !pauzetijd aansturing afsl. V12.1
11337 09686 00          	NOP	14
11337 09687 00 
11337 09688 00 
11337 09689 00 
11337 09690 00 
11337 09691 00 
11337 09692 00 
11337 09693 00 
11337 09694 00 
11337 09695 00 
11337 09696 00 
11337 09697 00 
11337 09698 00 
11337 09699 00 
11338 09700 16 00015.0    AND PLCC1 !eerste PLC_cyclus hoog_signaal
11339 09701 18 00354.0  	OR	REG0B39	!uurpuls
11340 09702 12 00000    	FTCHC	00
11341 09703 12 00000    	FTCHC	00
11342 09704 12 00006    	FTCHC	06
11343 09705 12 00003    	FTCHC	03
11344 09706 14 02505    	STRD	RE0T00	!+
11345 09707 14 02506    	STRD	RE0T01	!| uur timer
11346 09708 14 02507    	STRD	RE0T02	!|
11347 09709 14 02508    	STRD	RE0T03	!+
11348 09710 08 00354.0  	SET0	REG0B39	!uurpuls
11349                   
11350 09711 16 00511.1  	AND	S_1SEC	!triggerpuls 1,0 sec.
11351 09712 16 00054.0  	AND	BDR0B10	!bedrijfsmelding
11352 09713 17 00354.3  	ANDNT	REG0B42	!regeneratieaanvraag
11353 09714 17 00354.0  	ANDNT	REG0B39	!uurpuls
11354 09715 06 02505    	CNTD	RE0T00	!+
11355 09716 06 02506    	CNTD	RE0T01	!| uur timer
11356 09717 06 02507    	CNTD	RE0T02	!|
11357 09718 06 02508    	CNTD	RE0T03	!+
11358 09719 10 00354.0  	STRB	REG0B39	!uurpuls
11359                   
11360 09720 16 00044.1  	AND	REG0B34	!regeneratiefase 33.1
11361 09721 16 00352.1    AND STAP_3  !stappen fase register
11362 09722 01 00352.2  	TRIG	REG0T36	!triggerpuls
11363 09723 02 00354.1  	EQL	REG0B40	!einde regeneratie
11364                   
11365 09724 16 00015.0    AND PLCC1 !eerste PLC_cyclus hoog_signaal
11366 09725 18 00354.1  	OR	REG0B40	!einde regeneratie
11367 09726 13 02140    	FTCHD	STP35_0	!setpoint 35 eenheden
11368 09727 13 02141    	FTCHD	STP35_1	!setpoint 35 tientallen
11369 09728 13 02142    	FTCHD	STP35_2	!setpoint 35 honderdtallen
11370 09729 13 02143    	FTCHD	STP35_3	!setpoint 35 duizendtallen
11371 09730 14 01240    	STRD	DSP35_0	!display 35 eenheden
11372 09731 14 01241    	STRD	DSP35_1	!display 35 tientallen
11373 09732 14 01242    	STRD	DSP35_2	!display 35 honderdtallen
11374 09733 14 01243    	STRD	DSP35_3	!display 35 duizendtallen
11375 09734 08 00354.2  	SET0	REG0B41	!reg.aanvr. op tijdbasis
11376                   
11377 09735 16 00354.0  	AND	REG0B39	!uurpuls
11378 09736 17 00354.2  	ANDNT	REG0B41	!reg.aanvr. op tijdbasis
11379 09737 06 01240    	CNTD	DSP35_0	!display 35 eenheden
11380 09738 06 01241    	CNTD	DSP35_1	!display 35 tientallen
11381 09739 06 01242    	CNTD	DSP35_2	!display 35 honderdtallen
11382 09740 06 01243    	CNTD	DSP35_3	!display 35 duizendtallen
11383 09741 10 00354.2  	STRB	REG0B41	!reg.aanvr. op tijdbasis
11384                   
11385 09742 16 00112.2    AND BDR0I01 !bedrijfskeuze schak. "STAND_BY"
11386 09743 16 00116.2  	AND	REG0I08	!keuzeschakelaar CMF handmatig vullen
11387 09744 17 00337.0  	ANDNT	ALM0B08	!een of meerdere afsl.gestoord
11388 09745 17 00220.1  	ANDNT	VERGR02	!stuurlucht gestoord
11389 09746 02 00358.2  	EQL	REG0B53	!handmatig vullen CMF
11390                   
11391 09747 16 00112.2    AND BDR0I01 !bedrijfskeuze schak. "STAND_BY"
11392 09748 16 00116.3  	AND	REG0I09	!keuzeschakelaar CMF handmatig ledigen
11393 09749 17 00337.0  	ANDNT	ALM0B08	!een of meerdere afsl.gestoord
11394 09750 17 00220.1  	ANDNT	VERGR02	!stuurlucht gestoord
11395 09751 02 00358.3  	EQL	REG0B54	!handmatig ledigen CMF
11396                   
11397 09752 16 00038.0  	AND	REG0B09	!regeneratiefase 9
11398 09753 18 00038.3  	OR	REG0B12	!regeneratiefase 12
11399 09754 18 00039.3  	OR	REG0B16	!regeneratiefase 16
11400 09755 18 00040.2  	OR	REG0B19	!regeneratiefase 19
11401 09756 18 00041.1  	OR	REG0B22	!regeneratiefase 22
11402 09757 18 00042.1  	OR	REG0B26	!regeneratiefase 26
11403 09758 18 00400.1  	OR	REG0B61	!regeneratie fase 61
11404 09759 18 00401.0  	OR	REG0B64	!regeneratie fase 64
11405 09760 02 00359.0  	EQL	REG0B55	!regeneratiefasen CMF vullen
11406                   
11407 09761 16 00037.3  	AND	REG0B08	!regeneratiefase 8
11408 09762 18 00038.2  	OR	REG0B11	!regeneratiefase 11
11409 09763 18 00039.2  	OR	REG0B15	!regeneratiefase 15
11410 09764 18 00040.1  	OR	REG0B18	!regeneratiefase 18
11411 09765 18 00041.0  	OR	REG0B21	!regeneratiefase 21
11412 09766 18 00042.0  	OR	REG0B25	!regeneratiefase 25
11413 09767 18 00400.0  	OR	REG0B60	!regeneratie fase 60
11414 09768 18 00400.3  	OR	REG0B63	!regeneratie fase 63
11415 09769 02 00359.1  	EQL	REG0B56	!regeneratiefasen CMF ledigen
11416                   
11417 09770 16 00354.2  	AND	REG0B41	!reg.aanvr. op tijdbasis
11418 09771 09 00354.3  	SET1	REG0B42	!regeneratieaanvraag
11419                   
11420 09772 17 00113.0    ANDNT BDR0I03 !bedrijfskeuze schak. "MCS_400"
11421 09773 16 00354.3  	AND	REG0B42	!regeneratieaanvraag
11422 09774 16 00054.0  	AND	BDR0B10	!bedrijfsmelding
11423 09775 09 00355.0  	SET1	REG0B43	!start spuien
11424                   
11425 09776 16 00355.0  	AND	REG0B43	!start spuien
11426 09777 01 00352.0  	TRIG	REG0T35	!triggerpuls
11427 09778 02 00355.1    EQL REG0B44 !laadpuls spui_timer
11428                   
11429 09779 16 00355.1    AND REG0B44 !laadpuls spui_timer
11430 09780 13 02144    	FTCHD	STP36_0	!setpoint 36 eenheden
11431 09781 13 02145    	FTCHD	STP36_1	!setpoint 36 tientallen
11432 09782 13 02146    	FTCHD	STP36_2	!setpoint 36 honderdtallen
11433 09783 13 02147    	FTCHD	STP36_3	!setpoint 36 duizendtallen
11434 09784 14 01244    	STRD	DSP36_0	!display 36 eenheden
11435 09785 14 01245    	STRD	DSP36_1	!display 36 tientallen
11436 09786 14 01246    	STRD	DSP36_2	!display 36 honderdtallen
11437 09787 14 01247    	STRD	DSP36_3	!display 36 duizendtallen
11438 09788 08 00355.2  	SET0	REG0B45	!einde spuitijd
11439                   
11440 09789 16 00511.1  	AND	S_1SEC	!triggerpuls 1,0 sec.
11441 09790 16 00355.0  	AND	REG0B43	!start spuien
11442 09791 16 00054.0  	AND	BDR0B10	!bedrijfsmelding
11443 09792 17 00355.2  	ANDNT	REG0B45	!einde spuitijd
11444 09793 06 01244    	CNTD	DSP36_0	!display 36 eenheden
11445 09794 06 01245    	CNTD	DSP36_1	!display 36 tientallen
11446 09795 06 01246    	CNTD	DSP36_2	!display 36 honderdtallen
11447 09796 06 01247    	CNTD	DSP36_3	!display 36 duizendtallen
11448 09797 10 00355.2  	STRB	REG0B45	!einde spuitijd
11449                   
11450 09798 16 00354.3  	AND	REG0B42	!regeneratieaanvraag
11451 09799 17 00355.2  	ANDNT	REG0B45	!einde spuitijd
11452 09800 16 00054.0  	AND	BDR0B10	!bedrijfsmelding
11453 09801 18 00388.3  	OR	WZC0B15	!wizconcommando SPUIEN + KEUZESCHAK.=SUPE
11454 09802 16 00054.0  	AND	BDR0B10	!bedrijfsmelding
11455 09803 02 00355.3  	EQL	REG0B46	!openen commando V10.4
11456                   
11457 09804 16 00044.2  	AND	REG0B00	!start regen. fasen 8 t/m 33.1
11458 09805 08 00355.0  	SET0	REG0B43	!start spuien
11459                   
11460 09806 16 00118.2  	AND	ALM0I09	!nivo warme loog
11461 09807 16 00118.3  	AND	ALM0I10	!nivo zoutzuur
11462 09808 16 00119.2  	AND	ALM0I12	!nivo neuttank
11463 09809 16 00120.1  	AND	ALM0I42	!nivo proceswater
11464 09810 17 00115.2  	ANDNT	ALM0I39	!P10 therm. gestoord
11465 09811 16 00116.0  	AND	BDR0I07	!P10 automatisch
11466 09812 16 00116.1  	AND	REG0I07	!P11 paraat
11467 09813 02 00356.1  	EQL	REG0B48	!regen.startvoorwaarden
11468                   
11469 09814 16 00356.1  	AND	REG0B48	!regen.startvoorwaarden
11470 09815 16 00354.3  	AND	REG0B42	!regeneratieaanvraag
11471 09816 02 00356.0  	EQL	REG0B47	!startvoorw.regen.fout
11472                   
11473 09817 16 00044.0  	AND	REG0B33	!regeneratiefase 33
11474 09818 16 00229.2  	AND	VERGR39
11475 09819 02 00357.0  	EQL	DUMP1
11476                   
11477 09820 16 00038.0  	AND	REG0B09	!regeneratiefase 9
11478 09821 18 00039.3  	OR	REG0B16	!regeneratiefase 16
11479 09822 18 00400.1  	OR	REG0B61	!regeneratie fase 61
11480 09823 18 00401.0  	OR	REG0B64	!regeneratie fase 64
11481 09824 02 00357.1  	EQL	DUMP2
11482                   
11483 09825 16 00357.1  	AND	DUMP2
11484 09826 16 00229.3  	AND	VERGR40
11485 09827 02 00357.2  	EQL	DUMP3
11486                   
11487 09828 17 00357.0  	ANDNT	DUMP1
11488 09829 17 00357.2  	ANDNT	DUMP3
11489 09830 17 00220.0  	ANDNT	VERGR01
11490 09831 17 00220.1  	ANDNT	VERGR02	!stuurlucht gestoord
11491 09832 17 00220.2  	ANDNT	VERGR03	!stuurspanning gestoord
11492 09833 17 00337.0  	ANDNT	ALM0B08	!een of meerdere afsl.gestoord
11493 09834 17 00222.0  	ANDNT	VERGR09
11494 09835 17 00222.1  	ANDNT	VERGR10
11495 09836 17 00229.0  	ANDNT	VERGR37	!hoge druk alarm P10
11496 09837 17 00231.0  	ANDNT	VERGR45	!lage flow alarm vuilproceswater
11497 09838 17 00231.1  	ANDNT	VERGR46	!regeneratie cmf niet op tijd gevuld
11498 09839 17 00231.2  	ANDNT	VERGR47	!regeneratie cmf niet op tijd geledigd
11499 09840 16 00044.2  	AND	REG0B00	!start regen. fasen 8 t/m 33.1
11500 09841 16 00362.1  	AND	BDR0B21	!vrijgave uitgangen (aktiveren)
11501 09842 02 00035.0    EQL R_VOORW !regeneratievoorw. OK
11502                   
11503 09843 16 00112.1  	AND	BDR0I00	!bedrijfskeuze schak. "REGENERATIE"
11504 09844 16 00113.1  	AND	AKTIEF	!aktiveren bedrijfskeuze
11505 09845 16 00356.1  	AND	REG0B48	!regen.startvoorwaarden
11506 09846 18 00386.2  	OR	WZC0B06	!commando REGENERATIE vanuit wizcon
11507 09847 09 00044.2  	SET1	REG0B00	!start regen. fasen 8 t/m 33.1
11508                   
11509 09848 16 00044.2  	AND	REG0B00	!start regen. fasen 8 t/m 33.1
11510 09849 01 00401.2  	TRIG	TRGSTART	!triggerpuls start fasen 8 t/m 32
11511 09850 17 00386.2  	ANDNT	WZC0B06	!commando REGENERATIE vanuit wizcon
11512 09851 17 00115.1  	ANDNT	LOOGNIET	!schakelaar loog fasen (1=) overslaan
11513 09852 09 00401.3  	SET1	ZUURLOOG	!regeneratie met zuur en loog
11514                   
11515 09853 17 00043.3  	ANDNT	REG0B32	!regeneratiefase 32
11516 09854 13 02152    	FTCHD	STP38_0	!setpoint 38 eenheden
11517 09855 13 02153    	FTCHD	STP38_1	!setpoint 38 tientallen
11518 09856 13 02154    	FTCHD	STP38_2	!setpoint 38 honderdtallen
11519 09857 13 02155    	FTCHD	STP38_3	!setpoint 38 duizendtallen
11520 09858 14 01252    	STRD	DSP38_0	!display 38 eenheden
11521 09859 14 01253    	STRD	DSP38_1	!display 38 tientallen
11522 09860 14 01254    	STRD	DSP38_2	!display 38 honderdtallen
11523 09861 14 01255    	STRD	DSP38_3	!display 38 duizendtallen
11524 09862 08 00358.0  	SET0	REG0B51	!vertr. controle spoelwater fase 32
11525                   
11526 09863 16 00511.1  	AND	S_1SEC	!triggerpuls 1,0 sec.
11527 09864 16 00043.3  	AND	REG0B32	!regeneratiefase 32
11528 09865 16 00035.0    AND R_VOORW !regeneratievoorw. OK
11529 09866 17 00358.0  	ANDNT	REG0B51	!vertr. controle spoelwater fase 32
11530 09867 06 01252    	CNTD	DSP38_0	!display 38 eenheden
11531 09868 06 01253    	CNTD	DSP38_1	!display 38 tientallen
11532 09869 06 01254    	CNTD	DSP38_2	!display 38 honderdtallen
11533 09870 06 01255    	CNTD	DSP38_3	!display 38 duizendtallen
11534 09871 10 00358.0  	STRB	REG0B51	!vertr. controle spoelwater fase 32
11535                   
11536 09872 17 00044.0  	ANDNT	REG0B33	!regeneratiefase 33
11537 09873 13 02156    	FTCHD	STP39_0	!setpoint 39 eenheden
11538 09874 13 02157    	FTCHD	STP39_1	!setpoint 39 tientallen
11539 09875 13 02158    	FTCHD	STP39_2	!setpoint 39 honderdtallen
11540 09876 13 02159    	FTCHD	STP39_3	!setpoint 39 duizendtallen
11541 09877 14 01256    	STRD	DSP39_0	!display 39 eenheden
11542 09878 14 01257    	STRD	DSP39_1	!display 39 tientallen
11543 09879 14 01258    	STRD	DSP39_2	!display 39 honderdtallen
11544 09880 14 01259    	STRD	DSP39_3	!display 39 duizendtallen
11545 09881 08 00358.1  	SET0	REG0B52	!vertr. controle proceswater fase 33
11546                   
11547 09882 16 00511.1  	AND	S_1SEC	!triggerpuls 1,0 sec.
11548 09883 16 00044.0  	AND	REG0B33	!regeneratiefase 33
11549 09884 16 00035.0    AND R_VOORW !regeneratievoorw. OK
11550 09885 17 00358.1  	ANDNT	REG0B52	!vertr. controle proceswater fase 33
11551 09886 06 01256    	CNTD	DSP39_0	!display 39 eenheden
11552 09887 06 01257    	CNTD	DSP39_1	!display 39 tientallen
11553 09888 06 01258    	CNTD	DSP39_2	!display 39 honderdtallen
11554 09889 06 01259    	CNTD	DSP39_3	!display 39 duizendtallen
11555 09890 10 00358.1  	STRB	REG0B52	!vertr. controle proceswater fase 33
11556                   
11557 09891 16 00358.1  	AND	REG0B52	!vertr. controle proceswater fase 33
11558 09892 16 00044.0  	AND	REG0B33	!regeneratiefase 33
11559 09893 17 00117.0  	ANDNT	ALM0I44	!slechte geleidb.h. reinwater
11560 09894 02 00356.2  	EQL	REG0B49	!geleidb.h. QIA1 ok
11561                   
11562 09895 16 00358.0  	AND	REG0B51	!vertr. controle spoelwater fase 32
11563 09896 16 00043.3  	AND	REG0B32	!regeneratiefase 32
11564 09897 17 00117.1  	ANDNT	ALM0I06	!slechte geleidb.h. spoelfase 32
11565 09898 02 00356.3  	EQL	REG0B50	!geleidb.h. QIA2 ok
11566                   
11567 09899 16 00044.2  	AND	REG0B00	!start regen. fasen 8 t/m 33.1
11568 09900 17 00113.3  	ANDNT	REG0I04	!keuzeschak.regen. automatisch
11569 09901 16 00114.0  	AND	REG0I05	!drukkn.doorstappen regeneratie
11570 09902 01 00345.0  	TRIG	REG0T00	!doorstap triggerpuls
11571 09903 02 00353.2  	EQL	REG0B37	!hand doorstap (triggerpuls)
11572                   
11573 09904 17 00114.3  	ANDNT	REG0I10	!detectieschakelaar CMF gevuld
11574 09905 12 00000    	FTCHC	00
11575 09906 12 00003    	FTCHC	03
11576 09907 14 02509    	STRD	RE1T00	!+
11577 09908 14 02510    	STRD	RE1T01	!+ tijdvertr. detectieschakelaar CMF gevu
11578 09909 08 00359.3  	SET0	REG0B58	!tijdvertr. detectieschakelaar CMF gevuld
11579                   
11580 09910 16 00114.3  	AND	REG0I10	!detectieschakelaar CMF gevuld
11581 09911 16 00511.1  	AND	S_1SEC	!triggerpuls 1,0 sec.
11582 09912 17 00359.3  	ANDNT	REG0B58	!tijdvertr. detectieschakelaar CMF gevuld
11583 09913 06 02509    	CNTD	RE1T00	!+
11584 09914 06 02510    	CNTD	RE1T01	!+ tijdvertr. detectieschakelaar CMF gevu
11585 09915 10 00359.3  	STRB	REG0B58	!tijdvertr. detectieschakelaar CMF gevuld
11586                   
11587 09916 16 00359.0  	AND	REG0B55	!regeneratiefasen CMF vullen
11588 09917 16 00359.3  	AND	REG0B58	!tijdvertr. detectieschakelaar CMF gevuld
11589 09918 02 00359.2  	EQL	REG0B57	!doorstap reg.fase CMF gevuld
11590                   
11591 09919 18 00353.0  	OR	REG0B35	!einde fasetimer
11592 09920 18 00353.2  	OR	REG0B37	!hand doorstap (triggerpuls)
11593 09921 18 00356.2  	OR	REG0B49	!geleidb.h. QIA1 ok
11594 09922 18 00356.3  	OR	REG0B50	!geleidb.h. QIA2 ok
11595 09923 18 00359.2  	OR	REG0B57	!doorstap reg.fase CMF gevuld
11596 09924 02 00352.1    EQL STAP_3  !stappen fase register
11597                   
11598 09925 16 00044.1  	AND	REG0B34	!regeneratiefase 33.1
11599 09926 16 00352.1    AND STAP_3  !stappen fase register
11600 09927 08 00044.1  	SET0	REG0B34	!regeneratiefase 33.1
11601 09928 08 00044.2  	SET0	REG0B00	!start regen. fasen 8 t/m 33.1
11602 09929 08 00354.3  	SET0	REG0B42	!regeneratieaanvraag
11603 09930 08 00401.3  	SET0	ZUURLOOG	!regeneratie met zuur en loog
11604                   
11605 09931 16 00044.0  	AND	REG0B33	!regeneratiefase 33
11606 09932 16 00352.1    AND STAP_3  !stappen fase register
11607 09933 09 00044.1  	SET1	REG0B34	!regeneratiefase 33.1
11608 09934 08 00044.0  	SET0	REG0B33	!regeneratiefase 33
11609                   
11610 09935 16 00043.3  	AND	REG0B32	!regeneratiefase 32
11611 09936 16 00352.1    AND STAP_3  !stappen fase register
11612 09937 09 00044.0  	SET1	REG0B33	!regeneratiefase 33
11613 09938 08 00043.3  	SET0	REG0B32	!regeneratiefase 32
11614                   
11615 09939 16 00043.2  	AND	REG0B31	!regeneratiefase 31
11616 09940 16 00352.1    AND STAP_3  !stappen fase register
11617 09941 09 00043.3  	SET1	REG0B32	!regeneratiefase 32
11618 09942 08 00043.2  	SET0	REG0B31	!regeneratiefase 31
11619                   
11620 09943 16 00043.1  	AND	REG0B30	!regeneratiefase 30
11621 09944 16 00352.1    AND STAP_3  !stappen fase register
11622 09945 09 00043.2  	SET1	REG0B31	!regeneratiefase 31
11623 09946 08 00043.1  	SET0	REG0B30	!regeneratiefase 30
11624                   
11625 09947 16 00043.0  	AND	REG0B29	!regeneratiefase 29
11626 09948 16 00352.1    AND STAP_3  !stappen fase register
11627 09949 09 00043.1  	SET1	REG0B30	!regeneratiefase 30
11628 09950 08 00043.0  	SET0	REG0B29	!regeneratiefase 29
11629                   
11630 09951 16 00042.3  	AND	REG0B28	!regeneratiefase 28
11631 09952 16 00352.1    AND STAP_3  !stappen fase register
11632 09953 09 00043.0  	SET1	REG0B29	!regeneratiefase 29
11633 09954 08 00042.3  	SET0	REG0B28	!regeneratiefase 28
11634                   
11635 09955 16 00042.2  	AND	REG0B27	!regeneratiefase 27
11636 09956 16 00352.1    AND STAP_3  !stappen fase register
11637 09957 09 00042.3  	SET1	REG0B28	!regeneratiefase 28
11638 09958 08 00042.2  	SET0	REG0B27	!regeneratiefase 27
11639                   
11640 09959 16 00042.1  	AND	REG0B26	!regeneratiefase 26
11641 09960 16 00352.1    AND STAP_3  !stappen fase register
11642 09961 09 00042.2  	SET1	REG0B27	!regeneratiefase 27
11643 09962 08 00042.1  	SET0	REG0B26	!regeneratiefase 26
11644                   
11645 09963 16 00042.0  	AND	REG0B25	!regeneratiefase 25
11646 09964 16 00352.1    AND STAP_3  !stappen fase register
11647 09965 09 00042.1  	SET1	REG0B26	!regeneratiefase 26
11648 09966 08 00042.0  	SET0	REG0B25	!regeneratiefase 25
11649                   
11650 09967 16 00041.3  	AND	REG0B24	!regeneratiefase 24
11651 09968 16 00352.1    AND STAP_3  !stappen fase register
11652 09969 09 00042.0  	SET1	REG0B25	!regeneratiefase 25
11653 09970 08 00041.3  	SET0	REG0B24	!regeneratiefase 24
11654                   
11655 09971 16 00041.2  	AND	REG0B23	!regeneratiefase 23
11656 09972 16 00352.1    AND STAP_3  !stappen fase register
11657 09973 09 00041.3  	SET1	REG0B24	!regeneratiefase 24
11658 09974 08 00041.2  	SET0	REG0B23	!regeneratiefase 23
11659                   
11660 09975 16 00041.1  	AND	REG0B22	!regeneratiefase 22
11661 09976 16 00352.1    AND STAP_3  !stappen fase register
11662 09977 09 00041.2  	SET1	REG0B23	!regeneratiefase 23
11663 09978 08 00041.1  	SET0	REG0B22	!regeneratiefase 22
11664                   
11665 09979 16 00041.0  	AND	REG0B21	!regeneratiefase 21
11666 09980 16 00352.1    AND STAP_3  !stappen fase register
11667 09981 09 00041.1  	SET1	REG0B22	!regeneratiefase 22
11668 09982 08 00041.0  	SET0	REG0B21	!regeneratiefase 21
11669                   
11670 09983 16 00040.3  	AND	REG0B20	!regeneratiefase 20
11671 09984 16 00352.1    AND STAP_3  !stappen fase register
11672 09985 09 00041.0  	SET1	REG0B21	!regeneratiefase 21
11673 09986 08 00040.3  	SET0	REG0B20	!regeneratiefase 20
11674                   
11675 09987 16 00040.2  	AND	REG0B19	!regeneratiefase 19
11676 09988 16 00352.1    AND STAP_3  !stappen fase register
11677 09989 09 00040.3  	SET1	REG0B20	!regeneratiefase 20
11678 09990 08 00040.2  	SET0	REG0B19	!regeneratiefase 19
11679                   
11680 09991 16 00040.1  	AND	REG0B18	!regeneratiefase 18
11681 09992 16 00352.1    AND STAP_3  !stappen fase register
11682 09993 09 00040.2  	SET1	REG0B19	!regeneratiefase 19
11683 09994 08 00040.1  	SET0	REG0B18	!regeneratiefase 18
11684                   
11685 09995 16 00040.0  	AND	REG0B17	!regeneratiefase 17
11686 09996 16 00352.1    AND STAP_3  !stappen fase register
11687 09997 09 00040.1  	SET1	REG0B18	!regeneratiefase 18
11688 09998 08 00040.0  	SET0	REG0B17	!regeneratiefase 17
11689                   
11690 09999 16 00039.3  	AND	REG0B16	!regeneratiefase 16
11691 10000 16 00352.1    AND STAP_3  !stappen fase register
11692 10001 09 00040.0  	SET1	REG0B17	!regeneratiefase 17
11693 10002 08 00039.3  	SET0	REG0B16	!regeneratiefase 16
11694                   
11695 10003 16 00039.2  	AND	REG0B15	!regeneratiefase 15
11696 10004 16 00352.1    AND STAP_3  !stappen fase register
11697 10005 09 00039.3  	SET1	REG0B16	!regeneratiefase 16
11698 10006 08 00039.2  	SET0	REG0B15	!regeneratiefase 15
11699                   
11700 10007 16 00039.1  	AND	REG0B14	!regeneratiefase 14
11701 10008 16 00352.1    AND STAP_3  !stappen fase register
11702 10009 09 00039.2  	SET1	REG0B15	!regeneratiefase 15
11703 10010 08 00039.1  	SET0	REG0B14	!regeneratiefase 14
11704                   
11705 10011 16 00039.0  	AND	REG0B13	!regeneratiefase 13
11706 10012 16 00352.1    AND STAP_3  !stappen fase register
11707 10013 09 00039.1  	SET1	REG0B14	!regeneratiefase 14
11708 10014 08 00039.0  	SET0	REG0B13	!regeneratiefase 13
11709                   
11710 10015 16 00038.3  	AND	REG0B12	!regeneratiefase 12
11711 10016 16 00352.1    AND STAP_3  !stappen fase register
11712 10017 09 00039.0  	SET1	REG0B13	!regeneratiefase 13
11713 10018 08 00038.3  	SET0	REG0B12	!regeneratiefase 12
11714                   
11715 10019 16 00038.2  	AND	REG0B11	!regeneratiefase 11
11716 10020 16 00352.1    AND STAP_3  !stappen fase register
11717 10021 09 00038.3  	SET1	REG0B12	!regeneratiefase 12
11718 10022 08 00038.2  	SET0	REG0B11	!regeneratiefase 11
11719                   
11720 10023 16 00401.1  	AND	REG0B65	!regeneratie fase 65
11721 10024 16 00352.1    AND STAP_3  !stappen fase register
11722 10025 17 00401.3  	ANDNT	ZUURLOOG	!regeneratie met zuur en loog
11723 10026 09 00041.0  	SET1	REG0B21	!regeneratiefase 21
11724 10027 08 00401.1  	SET0	REG0B65	!regeneratie fase 65
11725                   
11726 10028 16 00401.1  	AND	REG0B65	!regeneratie fase 65
11727 10029 16 00352.1    AND STAP_3  !stappen fase register
11728 10030 16 00401.3  	AND	ZUURLOOG	!regeneratie met zuur en loog
11729 10031 09 00038.2  	SET1	REG0B11	!regeneratiefase 11
11730 10032 08 00401.1  	SET0	REG0B65	!regeneratie fase 65
11731                   
11732 10033 16 00401.0  	AND	REG0B64	!regeneratie fase 64
11733 10034 16 00352.1    AND STAP_3  !stappen fase register
11734 10035 09 00401.1  	SET1	REG0B65	!regeneratie fase 65
11735 10036 08 00401.0  	SET0	REG0B64	!regeneratie fase 64
11736                   
11737 10037 16 00400.3  	AND	REG0B63	!regeneratie fase 63
11738 10038 16 00352.1    AND STAP_3  !stappen fase register
11739 10039 09 00401.0  	SET1	REG0B64	!regeneratie fase 64
11740 10040 08 00400.3  	SET0	REG0B63	!regeneratie fase 63
11741                   
11742 10041 16 00400.2  	AND	REG0B62	!regeneratie fase 62
11743 10042 16 00352.1    AND STAP_3  !stappen fase register
11744 10043 09 00400.3  	SET1	REG0B63	!regeneratie fase 63
11745 10044 08 00400.2  	SET0	REG0B62	!regeneratie fase 62
11746                   
11747 10045 16 00400.1  	AND	REG0B61	!regeneratie fase 61
11748 10046 16 00352.1    AND STAP_3  !stappen fase register
11749 10047 09 00400.2  	SET1	REG0B62	!regeneratie fase 62
11750 10048 08 00400.1  	SET0	REG0B61	!regeneratie fase 61
11751                   
11752 10049 16 00400.0  	AND	REG0B60	!regeneratie fase 60
11753 10050 16 00352.1    AND STAP_3  !stappen fase register
11754 10051 09 00400.1  	SET1	REG0B61	!regeneratie fase 61
11755 10052 08 00400.0  	SET0	REG0B60	!regeneratie fase 60
11756                   
11757 10053 16 00038.1  	AND	REG0B10	!regeneratiefase 10
11758 10054 16 00352.1    AND STAP_3  !stappen fase register
11759 10055 09 00400.0  	SET1	REG0B60	!regeneratie fase 60
11760 10056 08 00038.1  	SET0	REG0B10	!regeneratiefase 10
11761                   
11762 10057 16 00038.0  	AND	REG0B09	!regeneratiefase 9
11763 10058 16 00352.1    AND STAP_3  !stappen fase register
11764 10059 09 00038.1  	SET1	REG0B10	!regeneratiefase 10
11765 10060 08 00038.0  	SET0	REG0B09	!regeneratiefase 9
11766                   
11767 10061 16 00037.3  	AND	REG0B08	!regeneratiefase 8
11768 10062 16 00352.1    AND STAP_3  !stappen fase register
11769 10063 09 00038.0  	SET1	REG0B09	!regeneratiefase 9
11770 10064 08 00037.3  	SET0	REG0B08	!regeneratiefase 8
11771                   
11772 10065 16 00044.2  	AND	REG0B00	!start regen. fasen 8 t/m 33.1
11773 10066 01 00345.1  	TRIG	REG0T08	!triggerpuls laden timer fase 8
11774 10067 02 00353.1  	EQL	REG0B36	!startpuls regen. fasen 8 t/m 33.1
11775                   
11776 10068 16 00353.1  	AND	REG0B36	!startpuls regen. fasen 8 t/m 33.1
11777 10069 09 00037.3  	SET1	REG0B08	!regeneratiefase 8
11778                   
11779 10070 16 00353.1  	AND	REG0B36	!startpuls regen. fasen 8 t/m 33.1
11780 10071 30 00004    	JFRF	L10075
11781 10072 13 02032    	FTCHD	STP08_0	!setpoint 08 eenheden
11782 10073 13 02033    	FTCHD	STP08_1	!setpoint 08 tientallen
11783 10074 13 02034    	FTCHD	STP08_2	!setpoint 08 honderdtallen
11784 10075 13 02035    L10075	FTCHD	STP08_3	!setpoint 08 duizendtallen
11785                   
11786 10076 17 00037.3  	ANDNT	REG0B08	!regeneratiefase 8
11787 10077 01 00345.2  	TRIG	REG0T09	!triggerpuls laden timer fase 9
11788 10078 30 00004    	JFRF	L10082
11789 10079 13 02036    	FTCHD	STP09_0	!setpoint 09 eenheden
11790 10080 13 02037    	FTCHD	STP09_1	!setpoint 09 tientallen
11791 10081 13 02038    	FTCHD	STP09_2	!setpoint 09 honderdtallen
11792 10082 13 02039    L10082	FTCHD	STP09_3	!setpoint 09 duizendtallen
11793                   
11794 10083 17 00038.0  	ANDNT	REG0B09	!regeneratiefase 9
11795 10084 01 00345.3  	TRIG	REG0T10	!triggerpuls laden timer fase 10
11796 10085 30 00004    	JFRF	L10089
11797 10086 13 02040    	FTCHD	STP10_0	!setpoint 10 eenheden
11798 10087 13 02041    	FTCHD	STP10_1	!setpoint 10 tientallen
11799 10088 13 02042    	FTCHD	STP10_2	!setpoint 10 honderdtallen
11800 10089 13 02043    L10089	FTCHD	STP10_3	!setpoint 10 duizendtallen
11801                   
11802 10090 17 00038.1  	ANDNT	REG0B10	!regeneratiefase 10
11803 10091 01 00346.0  	TRIG	REG0T11	!triggerpuls laden timer fase 11
11804 10092 30 00004    	JFRF	L10096
11805 10093 13 02044    	FTCHD	STP11_0	!setpoint 11 eenheden
11806 10094 13 02045    	FTCHD	STP11_1	!setpoint 11 tientallen
11807 10095 13 02046    	FTCHD	STP11_2	!setpoint 11 honderdtallen
11808 10096 13 02047    L10096	FTCHD	STP11_3	!setpoint 11 duizendtallen
11809                   
11810 10097 17 00038.2  	ANDNT	REG0B11	!regeneratiefase 11
11811 10098 01 00346.1  	TRIG	REG0T12	!triggerpuls laden timer fase 12
11812 10099 30 00004    	JFRF	L10103
11813 10100 13 02048    	FTCHD	STP12_0	!setpoint 12 eenheden
11814 10101 13 02049    	FTCHD	STP12_1	!setpoint 12 tientallen
11815 10102 13 02050    	FTCHD	STP12_2	!setpoint 12 honderdtallen
11816 10103 13 02051    L10103	FTCHD	STP12_3	!setpoint 12 duizendtallen
11817                   
11818 10104 17 00038.3  	ANDNT	REG0B12	!regeneratiefase 12
11819 10105 01 00346.2  	TRIG	REG0T13	!triggerpuls laden timer fase 13
11820 10106 30 00004    	JFRF	L10110
11821 10107 13 02052    	FTCHD	STP13_0	!setpoint 13 eenheden
11822 10108 13 02053    	FTCHD	STP13_1	!setpoint 13 tientallen
11823 10109 13 02054    	FTCHD	STP13_2	!setpoint 13 honderdtallen
11824 10110 13 02055    L10110	FTCHD	STP13_3	!setpoint 13 duizendtallen
11825                   
11826 10111 17 00039.0  	ANDNT	REG0B13	!regeneratiefase 13
11827 10112 01 00346.3  	TRIG	REG0T14	!triggerpuls laden timer fase 14
11828 10113 30 00004    	JFRF	L10117
11829 10114 13 02056    	FTCHD	STP14_0	!setpoint 14 eenheden
11830 10115 13 02057    	FTCHD	STP14_1	!setpoint 14 tientallen
11831 10116 13 02058    	FTCHD	STP14_2	!setpoint 14 honderdtallen
11832 10117 13 02059    L10117	FTCHD	STP14_3	!setpoint 14 duizendtallen
11833                   
11834 10118 17 00039.1  	ANDNT	REG0B14	!regeneratiefase 14
11835 10119 01 00347.0  	TRIG	REG0T15	!triggerpuls laden timer fase 15
11836 10120 30 00004    	JFRF	L10124
11837 10121 13 02060    	FTCHD	STP15_0	!setpoint 15 eenheden
11838 10122 13 02061    	FTCHD	STP15_1	!setpoint 15 tientallen
11839 10123 13 02062    	FTCHD	STP15_2	!setpoint 15 honderdtallen
11840 10124 13 02063    L10124	FTCHD	STP15_3	!setpoint 15 duizendtallen
11841                   
11842 10125 17 00039.2  	ANDNT	REG0B15	!regeneratiefase 15
11843 10126 01 00347.1  	TRIG	REG0T16	!triggerpuls laden timer fase 16
11844 10127 30 00004    	JFRF	L10131
11845 10128 13 02064    	FTCHD	STP16_0	!setpoint 16 eenheden
11846 10129 13 02065    	FTCHD	STP16_1	!setpoint 16 tientallen
11847 10130 13 02066    	FTCHD	STP16_2	!setpoint 16 honderdtallen
11848 10131 13 02067    L10131	FTCHD	STP16_3	!setpoint 16 duizendtallen
11849                   
11850 10132 17 00039.3  	ANDNT	REG0B16	!regeneratiefase 16
11851 10133 01 00347.2  	TRIG	REG0T17	!triggerpuls laden timer fase 17
11852 10134 30 00004    	JFRF	L10138
11853 10135 13 02068    	FTCHD	STP17_0	!setpoint 17 eenheden
11854 10136 13 02069    	FTCHD	STP17_1	!setpoint 17 tientallen
11855 10137 13 02070    	FTCHD	STP17_2	!setpoint 17 honderdtallen
11856 10138 13 02071    L10138	FTCHD	STP17_3	!setpoint 17 duizendtallen
11857                   
11858 10139 17 00040.0  	ANDNT	REG0B17	!regeneratiefase 17
11859 10140 01 00347.3  	TRIG	REG0T18	!triggerpuls laden timer fase 18
11860 10141 30 00004    	JFRF	L10145
11861 10142 13 02072    	FTCHD	STP18_0	!setpoint 18 eenheden
11862 10143 13 02073    	FTCHD	STP18_1	!setpoint 18 tientallen
11863 10144 13 02074    	FTCHD	STP18_2	!setpoint 18 honderdtallen
11864 10145 13 02075    L10145	FTCHD	STP18_3	!setpoint 18 duizendtallen
11865                   
11866 10146 17 00040.1  	ANDNT	REG0B18	!regeneratiefase 18
11867 10147 01 00348.0  	TRIG	REG0T19	!triggerpuls laden timer fase 19
11868 10148 30 00004    	JFRF	L10152
11869 10149 13 02076    	FTCHD	STP19_0	!setpoint 19 eenheden
11870 10150 13 02077    	FTCHD	STP19_1	!setpoint 19 tientallen
11871 10151 13 02078    	FTCHD	STP19_2	!setpoint 19 honderdtallen
11872 10152 13 02079    L10152	FTCHD	STP19_3	!setpoint 19 duizendtallen
11873                   
11874 10153 17 00040.2  	ANDNT	REG0B19	!regeneratiefase 19
11875 10154 01 00348.1  	TRIG	REG0T20	!triggerpuls laden timer fase 20
11876 10155 30 00004    	JFRF	L10159
11877 10156 13 02080    	FTCHD	STP20_0	!setpoint 20 eenheden
11878 10157 13 02081    	FTCHD	STP20_1	!setpoint 20 tientallen
11879 10158 13 02082    	FTCHD	STP20_2	!setpoint 20 honderdtallen
11880 10159 13 02083    L10159	FTCHD	STP20_3	!setpoint 20 duizendtallen
11881                   
11882 10160 17 00040.3  	ANDNT	REG0B20	!regeneratiefase 20
11883 10161 01 00348.2  	TRIG	REG0T21	!triggerpuls laden timer fase 21
11884 10162 30 00004    	JFRF	L10166
11885 10163 13 02084    	FTCHD	STP21_0	!setpoint 21 eenheden
11886 10164 13 02085    	FTCHD	STP21_1	!setpoint 21 tientallen
11887 10165 13 02086    	FTCHD	STP21_2	!setpoint 21 honderdtallen
11888 10166 13 02087    L10166	FTCHD	STP21_3	!setpoint 21 duizendtallen
11889                   
11890 10167 17 00041.0  	ANDNT	REG0B21	!regeneratiefase 21
11891 10168 01 00348.3  	TRIG	REG0T22	!triggerpuls laden timer fase 22
11892 10169 30 00004    	JFRF	L10173
11893 10170 13 02088    	FTCHD	STP22_0	!setpoint 22 eenheden
11894 10171 13 02089    	FTCHD	STP22_1	!setpoint 22 tientallen
11895 10172 13 02090    	FTCHD	STP22_2	!setpoint 22 honderdtallen
11896 10173 13 02091    L10173	FTCHD	STP22_3	!setpoint 22 duizendtallen
11897                   
11898 10174 17 00041.1  	ANDNT	REG0B22	!regeneratiefase 22
11899 10175 01 00349.0  	TRIG	REG0T23	!triggerpuls laden timer fase 23
11900 10176 30 00004    	JFRF	L10180
11901 10177 13 02092    	FTCHD	STP23_0	!setpoint 23 eenheden
11902 10178 13 02093    	FTCHD	STP23_1	!setpoint 23 tientallen
11903 10179 13 02094    	FTCHD	STP23_2	!setpoint 23 honderdtallen
11904 10180 13 02095    L10180	FTCHD	STP23_3	!setpoint 23 duizendtallen
11905                   
11906 10181 17 00041.2  	ANDNT	REG0B23	!regeneratiefase 23
11907 10182 01 00349.1  	TRIG	REG0T24	!triggerpuls laden timer fase 24
11908 10183 30 00004    	JFRF	L10187
11909 10184 13 02096    	FTCHD	STP24_0	!setpoint 24 eenheden
11910 10185 13 02097    	FTCHD	STP24_1	!setpoint 24 tientallen
11911 10186 13 02098    	FTCHD	STP24_2	!setpoint 24 honderdtallen
11912 10187 13 02099    L10187	FTCHD	STP24_3	!setpoint 24 duizendtallen
11913                   
11914 10188 17 00041.3  	ANDNT	REG0B24	!regeneratiefase 24
11915 10189 01 00349.2  	TRIG	REG0T25	!triggerpuls laden timer fase 25
11916 10190 30 00004    	JFRF	L10194
11917 10191 13 02100    	FTCHD	STP25_0	!setpoint 25 eenheden
11918 10192 13 02101    	FTCHD	STP25_1	!setpoint 25 tientallen
11919 10193 13 02102    	FTCHD	STP25_2	!setpoint 25 honderdtallen
11920 10194 13 02103    L10194	FTCHD	STP25_3	!setpoint 25 duizendtallen
11921                   
11922 10195 17 00042.0  	ANDNT	REG0B25	!regeneratiefase 25
11923 10196 01 00349.3  	TRIG	REG0T26	!triggerpuls laden timer fase 26
11924 10197 30 00004    	JFRF	L10201
11925 10198 13 02104    	FTCHD	STP26_0	!setpoint 26 eenheden
11926 10199 13 02105    	FTCHD	STP26_1	!setpoint 26 tientallen
11927 10200 13 02106    	FTCHD	STP26_2	!setpoint 26 honderdtallen
11928 10201 13 02107    L10201	FTCHD	STP26_3	!setpoint 26 duizendtallen
11929                   
11930 10202 17 00042.1  	ANDNT	REG0B26	!regeneratiefase 26
11931 10203 01 00350.0  	TRIG	REG0T27	!triggerpuls laden timer fase 27
11932 10204 30 00004    	JFRF	L10208
11933 10205 13 02108    	FTCHD	STP27_0	!setpoint 27 eenheden
11934 10206 13 02109    	FTCHD	STP27_1	!setpoint 27 tientallen
11935 10207 13 02110    	FTCHD	STP27_2	!setpoint 27 honderdtallen
11936 10208 13 02111    L10208	FTCHD	STP27_3	!setpoint 27 duizendtallen
11937                   
11938 10209 17 00042.2  	ANDNT	REG0B27	!regeneratiefase 27
11939 10210 01 00350.1  	TRIG	REG0T28	!triggerpuls laden timer fase 28
11940 10211 30 00004    	JFRF	L10215
11941 10212 13 02112    	FTCHD	STP28_0	!setpoint 28 eenheden
11942 10213 13 02113    	FTCHD	STP28_1	!setpoint 28 tientallen
11943 10214 13 02114    	FTCHD	STP28_2	!setpoint 28 honderdtallen
11944 10215 13 02115    L10215	FTCHD	STP28_3	!setpoint 28 duizendtallen
11945                   
11946 10216 17 00042.3  	ANDNT	REG0B28	!regeneratiefase 28
11947 10217 01 00350.2  	TRIG	REG0T29	!triggerpuls laden timer fase 29
11948 10218 30 00004    	JFRF	L10222
11949 10219 13 02116    	FTCHD	STP29_0	!setpoint 29 eenheden
11950 10220 13 02117    	FTCHD	STP29_1	!setpoint 29 tientallen
11951 10221 13 02118    	FTCHD	STP29_2	!setpoint 29 honderdtallen
11952 10222 13 02119    L10222	FTCHD	STP29_3	!setpoint 29 duizendtallen
11953                   
11954 10223 17 00043.0  	ANDNT	REG0B29	!regeneratiefase 29
11955 10224 01 00350.3  	TRIG	REG0T30	!triggerpuls laden timer fase 30
11956 10225 30 00004    	JFRF	L10229
11957 10226 13 02120    	FTCHD	STP30_0	!setpoint 30 eenheden
11958 10227 13 02121    	FTCHD	STP30_1	!setpoint 30 tientallen
11959 10228 13 02122    	FTCHD	STP30_2	!setpoint 30 honderdtallen
11960 10229 13 02123    L10229	FTCHD	STP30_3	!setpoint 30 duizendtallen
11961                   
11962 10230 17 00043.1  	ANDNT	REG0B30	!regeneratiefase 30
11963 10231 01 00351.0  	TRIG	REG0T31	!triggerpuls laden timer fase 31
11964 10232 30 00004    	JFRF	L10236
11965 10233 13 02124    	FTCHD	STP31_0	!setpoint 31 eenheden
11966 10234 13 02125    	FTCHD	STP31_1	!setpoint 31 tientallen
11967 10235 13 02126    	FTCHD	STP31_2	!setpoint 31 honderdtallen
11968 10236 13 02127    L10236	FTCHD	STP31_3	!setpoint 31 duizendtallen
11969                   
11970 10237 17 00043.2  	ANDNT	REG0B31	!regeneratiefase 31
11971 10238 01 00351.1  	TRIG	REG0T32	!triggerpuls laden timer fase 32
11972 10239 30 00004    	JFRF	L10243
11973 10240 13 02128    	FTCHD	STP32_0	!setpoint 32 eenheden
11974 10241 13 02129    	FTCHD	STP32_1	!setpoint 32 tientallen
11975 10242 13 02130    	FTCHD	STP32_2	!setpoint 32 honderdtallen
11976 10243 13 02131    L10243	FTCHD	STP32_3	!setpoint 32 duizendtallen
11977                   
11978 10244 17 00043.3  	ANDNT	REG0B32	!regeneratiefase 32
11979 10245 01 00351.2  	TRIG	REG0T33	!triggerpuls laden timer fase 33
11980 10246 30 00004    	JFRF	L10250
11981 10247 13 02132    	FTCHD	STP33_0	!setpoint 33 eenheden
11982 10248 13 02133    	FTCHD	STP33_1	!setpoint 33 tientallen
11983 10249 13 02134    	FTCHD	STP33_2	!setpoint 33 honderdtallen
11984 10250 13 02135    L10250	FTCHD	STP33_3	!setpoint 33 duizendtallen
11985                   
11986 10251 17 00044.0  	ANDNT	REG0B33	!regeneratiefase 33
11987 10252 01 00351.3  	TRIG	REG0T34	!triggerpuls laden timer fase 33.1
11988 10253 30 00004    	JFRF	L10257
11989 10254 13 02136    	FTCHD	STP34_0	!setpoint 34 eenheden
11990 10255 13 02137    	FTCHD	STP34_1	!setpoint 34 tientallen
11991 10256 13 02138    	FTCHD	STP34_2	!setpoint 34 honderdtallen
11992 10257 13 02139    L10257	FTCHD	STP34_3	!setpoint 34 duizendtallen
11993                   
11994 10258 17 00400.0  	ANDNT	REG0B60	!regeneratie fase 60
11995 10259 01 00402.0  	TRIG	REG0T60	!triggerpuls laden timer fase 60
11996 10260 30 00004    	JFRF	L10264
11997 10261 13 02240    	FTCHD	STP60_0	!setpoint 60 eenheden
11998 10262 13 02241    	FTCHD	STP60_1	!setpoint 60 tientallen
11999 10263 13 02242    	FTCHD	STP60_2	!setpoint 60 honderdtallen
12000 10264 13 02243    L10264	FTCHD	STP60_3	!setpoint 60 duizendtallen
12001                   
12002 10265 17 00400.1  	ANDNT	REG0B61	!regeneratie fase 61
12003 10266 01 00402.1  	TRIG	REG0T61	!triggerpuls laden timer fase 61
12004 10267 30 00004    	JFRF	L10271
12005 10268 13 02244    	FTCHD	STP61_0	!setpoint 61 eenheden
12006 10269 13 02245    	FTCHD	STP61_1	!setpoint 61 tientallen
12007 10270 13 02246    	FTCHD	STP61_2	!setpoint 61 honderdtallen
12008 10271 13 02247    L10271	FTCHD	STP61_3	!setpoint 61 duizendtallen
12009                   
12010 10272 17 00400.2  	ANDNT	REG0B62	!regeneratie fase 62
12011 10273 01 00402.2  	TRIG	REG0T62	!triggerpuls laden timer fase 62
12012 10274 30 00004    	JFRF	L10278
12013 10275 13 02248    	FTCHD	STP62_0	!setpoint 62 eenheden
12014 10276 13 02249    	FTCHD	STP62_1	!setpoint 62 tientallen
12015 10277 13 02250    	FTCHD	STP62_2	!setpoint 62 honderdtallen
12016 10278 13 02251    L10278	FTCHD	STP62_3	!setpoint 62 duizendtallen
12017                   
12018 10279 17 00400.3  	ANDNT	REG0B63	!regeneratie fase 63
12019 10280 01 00402.3  	TRIG	REG0T63	!triggerpuls laden timer fase 63
12020 10281 30 00004    	JFRF	L10285
12021 10282 13 02252    	FTCHD	STP63_0	!setpoint 63 eenheden
12022 10283 13 02253    	FTCHD	STP63_1	!setpoint 63 tientallen
12023 10284 13 02254    	FTCHD	STP63_2	!setpoint 63 honderdtallen
12024 10285 13 02255    L10285	FTCHD	STP63_3	!setpoint 63 duizendtallen
12025                   
12026 10286 17 00401.0  	ANDNT	REG0B64	!regeneratie fase 64
12027 10287 01 00403.0  	TRIG	REG0T64	!triggerpuls laden timer fase 64
12028 10288 30 00004    	JFRF	L10292
12029 10289 13 02256    	FTCHD	STP64_0	!setpoint 64 eenheden
12030 10290 13 02257    	FTCHD	STP64_1	!setpoint 64 tientallen
12031 10291 13 02258    	FTCHD	STP64_2	!setpoint 64 honderdtallen
12032 10292 13 02259    L10292	FTCHD	STP64_3	!setpoint 64 duizendtallen
12033                   
12034 10293 17 00401.1  	ANDNT	REG0B65	!regeneratie fase 65
12035 10294 01 00403.1  	TRIG	REG0T65	!triggerpuls laden timer fase 65
12036 10295 30 00004    	JFRF	L10299
12037 10296 13 02260    	FTCHD	STP65_0	!setpoint 65 eenheden
12038 10297 13 02261    	FTCHD	STP65_1	!setpoint 65 tientallen
12039 10298 13 02262    	FTCHD	STP65_2	!setpoint 65 honderdtallen
12040 10299 13 02263    L10299	FTCHD	STP65_3	!setpoint 65 duizendtallen
12041                   
12042 10300 16 00352.1    AND STAP_3  !stappen fase register
12043 10301 18 00353.1  	OR	REG0B36	!startpuls regen. fasen 8 t/m 33.1
12044 10302 14 01492    	STRD	DSP98_0	!display 98 eenheden
12045 10303 14 01493    	STRD	DSP98_1	!display 98 tientallen
12046 10304 14 01494    	STRD	DSP98_2	!display 98 honderdtallen
12047 10305 14 01495    	STRD	DSP98_3	!display 98 duizendtallen
12048 10306 08 00353.0  	SET0	REG0B35	!einde fasetimer
12049                   
12050 10307 16 00511.1  	AND	S_1SEC	!triggerpuls 1,0 sec.
12051 10308 16 00113.3  	AND	REG0I04	!keuzeschak.regen. automatisch
12052 10309 16 00035.0    AND R_VOORW !regeneratievoorw. OK
12053 10310 17 00353.0  	ANDNT	REG0B35	!einde fasetimer
12054 10311 06 01492    	CNTD	DSP98_0	!display 98 eenheden
12055 10312 06 01493    	CNTD	DSP98_1	!display 98 tientallen
12056 10313 06 01494    	CNTD	DSP98_2	!display 98 honderdtallen
12057 10314 06 01495    	CNTD	DSP98_3	!display 98 duizendtallen
12058 10315 10 00353.0  	STRB	REG0B35	!einde fasetimer
12059                   
12060 10316 16 00359.0  	AND	REG0B55	!regeneratiefasen CMF vullen
12061 10317 16 00353.0  	AND	REG0B35	!einde fasetimer
12062 10318 17 00114.3  	ANDNT	REG0I10	!detectieschakelaar CMF gevuld
12063 10319 02 00325.1  	EQL	ALARM46	!regeneratie cmf niet op tijd gevuld
12064 10320 08 00353.0  	SET0	REG0B35	!einde fasetimer
12065                   
12066 10321 16 00359.1  	AND	REG0B56	!regeneratiefasen CMF ledigen
12067 10322 16 00353.0  	AND	REG0B35	!einde fasetimer
12068 10323 16 00115.0  	AND	REG0I11	!detectieschakelaar CMF geledigd
12069 10324 02 00325.2  	EQL	ALARM47	!regeneratie cmf niet op tijd geledigd
12070 10325 08 00353.0  	SET0	REG0B35	!einde fasetimer
12071                   
12072 10326 16 00037.3  	AND	REG0B08	!regeneratiefase 8
12073 10327 30 00008    	JFRF	L10335
12074 10328 13 01492    	FTCHD	DSP98_0	!display 98 eenheden
12075 10329 13 01493    	FTCHD	DSP98_1	!display 98 tientallen
12076 10330 13 01494    	FTCHD	DSP98_2	!display 98 honderdtallen
12077 10331 13 01495    	FTCHD	DSP98_3	!display 98 duizendtallen
12078 10332 14 01132    	STRD	DSP08_0	!display 08 eenheden
12079 10333 14 01133    	STRD	DSP08_1	!display 08 tientallen
12080 10334 14 01134    	STRD	DSP08_2	!display 08 honderdtallen
12081 10335 14 01135    L10335	STRD	DSP08_3	!display 08 duizendtallen
12082                   
12083 10336 17 00037.3  	ANDNT	REG0B08	!regeneratiefase 8
12084 10337 30 00008    	JFRF	L10345
12085 10338 13 02032    	FTCHD	STP08_0	!setpoint 08 eenheden
12086 10339 13 02033    	FTCHD	STP08_1	!setpoint 08 tientallen
12087 10340 13 02034    	FTCHD	STP08_2	!setpoint 08 honderdtallen
12088 10341 13 02035    	FTCHD	STP08_3	!setpoint 08 duizendtallen
12089 10342 14 01132    	STRD	DSP08_0	!display 08 eenheden
12090 10343 14 01133    	STRD	DSP08_1	!display 08 tientallen
12091 10344 14 01134    	STRD	DSP08_2	!display 08 honderdtallen
12092 10345 14 01135    L10345	STRD	DSP08_3	!display 08 duizendtallen
12093                   
12094 10346 16 00038.0  	AND	REG0B09	!regeneratiefase 9
12095 10347 30 00008    	JFRF	L10355
12096 10348 13 01492    	FTCHD	DSP98_0	!display 98 eenheden
12097 10349 13 01493    	FTCHD	DSP98_1	!display 98 tientallen
12098 10350 13 01494    	FTCHD	DSP98_2	!display 98 honderdtallen
12099 10351 13 01495    	FTCHD	DSP98_3	!display 98 duizendtallen
12100 10352 14 01136    	STRD	DSP09_0	!display 09 eenheden
12101 10353 14 01137    	STRD	DSP09_1	!display 09 tientallen
12102 10354 14 01138    	STRD	DSP09_2	!display 09 honderdtallen
12103 10355 14 01139    L10355	STRD	DSP09_3	!display 09 duizendtallen
12104                   
12105 10356 17 00038.0  	ANDNT	REG0B09	!regeneratiefase 9
12106 10357 30 00008    	JFRF	L10365
12107 10358 13 02036    	FTCHD	STP09_0	!setpoint 09 eenheden
12108 10359 13 02037    	FTCHD	STP09_1	!setpoint 09 tientallen
12109 10360 13 02038    	FTCHD	STP09_2	!setpoint 09 honderdtallen
12110 10361 13 02039    	FTCHD	STP09_3	!setpoint 09 duizendtallen
12111 10362 14 01136    	STRD	DSP09_0	!display 09 eenheden
12112 10363 14 01137    	STRD	DSP09_1	!display 09 tientallen
12113 10364 14 01138    	STRD	DSP09_2	!display 09 honderdtallen
12114 10365 14 01139    L10365	STRD	DSP09_3	!display 09 duizendtallen
12115                   
12116 10366 16 00038.1  	AND	REG0B10	!regeneratiefase 10
12117 10367 30 00008    	JFRF	L10375
12118 10368 13 01492    	FTCHD	DSP98_0	!display 98 eenheden
12119 10369 13 01493    	FTCHD	DSP98_1	!display 98 tientallen
12120 10370 13 01494    	FTCHD	DSP98_2	!display 98 honderdtallen
12121 10371 13 01495    	FTCHD	DSP98_3	!display 98 duizendtallen
12122 10372 14 01140    	STRD	DSP10_0	!display 10 eenheden
12123 10373 14 01141    	STRD	DSP10_1	!display 10 tientallen
12124 10374 14 01142    	STRD	DSP10_2	!display 10 honderdtallen
12125 10375 14 01143    L10375	STRD	DSP10_3	!display 10 duizendtallen
12126                   
12127 10376 17 00038.1  	ANDNT	REG0B10	!regeneratiefase 10
12128 10377 30 00008    	JFRF	L10385
12129 10378 13 02040    	FTCHD	STP10_0	!setpoint 10 eenheden
12130 10379 13 02041    	FTCHD	STP10_1	!setpoint 10 tientallen
12131 10380 13 02042    	FTCHD	STP10_2	!setpoint 10 honderdtallen
12132 10381 13 02043    	FTCHD	STP10_3	!setpoint 10 duizendtallen
12133 10382 14 01140    	STRD	DSP10_0	!display 10 eenheden
12134 10383 14 01141    	STRD	DSP10_1	!display 10 tientallen
12135 10384 14 01142    	STRD	DSP10_2	!display 10 honderdtallen
12136 10385 14 01143    L10385	STRD	DSP10_3	!display 10 duizendtallen
12137                   
12138 10386 16 00038.2  	AND	REG0B11	!regeneratiefase 11
12139 10387 30 00008    	JFRF	L10395
12140 10388 13 01492    	FTCHD	DSP98_0	!display 98 eenheden
12141 10389 13 01493    	FTCHD	DSP98_1	!display 98 tientallen
12142 10390 13 01494    	FTCHD	DSP98_2	!display 98 honderdtallen
12143 10391 13 01495    	FTCHD	DSP98_3	!display 98 duizendtallen
12144 10392 14 01144    	STRD	DSP11_0	!display 11 eenheden
12145 10393 14 01145    	STRD	DSP11_1	!display 11 tientallen
12146 10394 14 01146    	STRD	DSP11_2	!display 11 honderdtallen
12147 10395 14 01147    L10395	STRD	DSP11_3	!display 11 duizendtallen
12148                   
12149 10396 17 00038.2  	ANDNT	REG0B11	!regeneratiefase 11
12150 10397 30 00008    	JFRF	L10405
12151 10398 13 02044    	FTCHD	STP11_0	!setpoint 11 eenheden
12152 10399 13 02045    	FTCHD	STP11_1	!setpoint 11 tientallen
12153 10400 13 02046    	FTCHD	STP11_2	!setpoint 11 honderdtallen
12154 10401 13 02047    	FTCHD	STP11_3	!setpoint 11 duizendtallen
12155 10402 14 01144    	STRD	DSP11_0	!display 11 eenheden
12156 10403 14 01145    	STRD	DSP11_1	!display 11 tientallen
12157 10404 14 01146    	STRD	DSP11_2	!display 11 honderdtallen
12158 10405 14 01147    L10405	STRD	DSP11_3	!display 11 duizendtallen
12159                   
12160 10406 16 00038.3  	AND	REG0B12	!regeneratiefase 12
12161 10407 30 00008    	JFRF	L10415
12162 10408 13 01492    	FTCHD	DSP98_0	!display 98 eenheden
12163 10409 13 01493    	FTCHD	DSP98_1	!display 98 tientallen
12164 10410 13 01494    	FTCHD	DSP98_2	!display 98 honderdtallen
12165 10411 13 01495    	FTCHD	DSP98_3	!display 98 duizendtallen
12166 10412 14 01148    	STRD	DSP12_0	!display 12 eenheden
12167 10413 14 01149    	STRD	DSP12_1	!display 12 tientallen
12168 10414 14 01150    	STRD	DSP12_2	!display 12 honderdtallen
12169 10415 14 01151    L10415	STRD	DSP12_3	!display 12 duizendtallen
12170                   
12171 10416 17 00038.3  	ANDNT	REG0B12	!regeneratiefase 12
12172 10417 30 00008    	JFRF	L10425
12173 10418 13 02048    	FTCHD	STP12_0	!setpoint 12 eenheden
12174 10419 13 02049    	FTCHD	STP12_1	!setpoint 12 tientallen
12175 10420 13 02050    	FTCHD	STP12_2	!setpoint 12 honderdtallen
12176 10421 13 02051    	FTCHD	STP12_3	!setpoint 12 duizendtallen
12177 10422 14 01148    	STRD	DSP12_0	!display 12 eenheden
12178 10423 14 01149    	STRD	DSP12_1	!display 12 tientallen
12179 10424 14 01150    	STRD	DSP12_2	!display 12 honderdtallen
12180 10425 14 01151    L10425	STRD	DSP12_3	!display 12 duizendtallen
12181                   
12182 10426 16 00039.0  	AND	REG0B13	!regeneratiefase 13
12183 10427 30 00008    	JFRF	L10435
12184 10428 13 01492    	FTCHD	DSP98_0	!display 98 eenheden
12185 10429 13 01493    	FTCHD	DSP98_1	!display 98 tientallen
12186 10430 13 01494    	FTCHD	DSP98_2	!display 98 honderdtallen
12187 10431 13 01495    	FTCHD	DSP98_3	!display 98 duizendtallen
12188 10432 14 01152    	STRD	DSP13_0	!display 13 eenheden
12189 10433 14 01153    	STRD	DSP13_1	!display 13 tientallen
12190 10434 14 01154    	STRD	DSP13_2	!display 13 honderdtallen
12191 10435 14 01155    L10435	STRD	DSP13_3	!display 13 duizendtallen
12192                   
12193 10436 17 00039.0  	ANDNT	REG0B13	!regeneratiefase 13
12194 10437 30 00008    	JFRF	L10445
12195 10438 13 02052    	FTCHD	STP13_0	!setpoint 13 eenheden
12196 10439 13 02053    	FTCHD	STP13_1	!setpoint 13 tientallen
12197 10440 13 02054    	FTCHD	STP13_2	!setpoint 13 honderdtallen
12198 10441 13 02055    	FTCHD	STP13_3	!setpoint 13 duizendtallen
12199 10442 14 01152    	STRD	DSP13_0	!display 13 eenheden
12200 10443 14 01153    	STRD	DSP13_1	!display 13 tientallen
12201 10444 14 01154    	STRD	DSP13_2	!display 13 honderdtallen
12202 10445 14 01155    L10445	STRD	DSP13_3	!display 13 duizendtallen
12203                   
12204 10446 16 00039.1  	AND	REG0B14	!regeneratiefase 14
12205 10447 30 00008    	JFRF	L10455
12206 10448 13 01492    	FTCHD	DSP98_0	!display 98 eenheden
12207 10449 13 01493    	FTCHD	DSP98_1	!display 98 tientallen
12208 10450 13 01494    	FTCHD	DSP98_2	!display 98 honderdtallen
12209 10451 13 01495    	FTCHD	DSP98_3	!display 98 duizendtallen
12210 10452 14 01156    	STRD	DSP14_0	!display 14 eenheden
12211 10453 14 01157    	STRD	DSP14_1	!display 14 tientallen
12212 10454 14 01158    	STRD	DSP14_2	!display 14 honderdtallen
12213 10455 14 01159    L10455	STRD	DSP14_3	!display 14 duizendtallen
12214                   
12215 10456 17 00039.1  	ANDNT	REG0B14	!regeneratiefase 14
12216 10457 30 00008    	JFRF	L10465
12217 10458 13 02056    	FTCHD	STP14_0	!setpoint 14 eenheden
12218 10459 13 02057    	FTCHD	STP14_1	!setpoint 14 tientallen
12219 10460 13 02058    	FTCHD	STP14_2	!setpoint 14 honderdtallen
12220 10461 13 02059    	FTCHD	STP14_3	!setpoint 14 duizendtallen
12221 10462 14 01156    	STRD	DSP14_0	!display 14 eenheden
12222 10463 14 01157    	STRD	DSP14_1	!display 14 tientallen
12223 10464 14 01158    	STRD	DSP14_2	!display 14 honderdtallen
12224 10465 14 01159    L10465	STRD	DSP14_3	!display 14 duizendtallen
12225                   
12226 10466 16 00039.2  	AND	REG0B15	!regeneratiefase 15
12227 10467 30 00008    	JFRF	L10475
12228 10468 13 01492    	FTCHD	DSP98_0	!display 98 eenheden
12229 10469 13 01493    	FTCHD	DSP98_1	!display 98 tientallen
12230 10470 13 01494    	FTCHD	DSP98_2	!display 98 honderdtallen
12231 10471 13 01495    	FTCHD	DSP98_3	!display 98 duizendtallen
12232 10472 14 01160    	STRD	DSP15_0	!display 15 eenheden
12233 10473 14 01161    	STRD	DSP15_1	!display 15 tientallen
12234 10474 14 01162    	STRD	DSP15_2	!display 15 honderdtallen
12235 10475 14 01163    L10475	STRD	DSP15_3	!display 15 duizendtallen
12236                   
12237 10476 17 00039.2  	ANDNT	REG0B15	!regeneratiefase 15
12238 10477 30 00008    	JFRF	L10485
12239 10478 13 02060    	FTCHD	STP15_0	!setpoint 15 eenheden
12240 10479 13 02061    	FTCHD	STP15_1	!setpoint 15 tientallen
12241 10480 13 02062    	FTCHD	STP15_2	!setpoint 15 honderdtallen
12242 10481 13 02063    	FTCHD	STP15_3	!setpoint 15 duizendtallen
12243 10482 14 01160    	STRD	DSP15_0	!display 15 eenheden
12244 10483 14 01161    	STRD	DSP15_1	!display 15 tientallen
12245 10484 14 01162    	STRD	DSP15_2	!display 15 honderdtallen
12246 10485 14 01163    L10485	STRD	DSP15_3	!display 15 duizendtallen
12247                   
12248 10486 16 00039.3  	AND	REG0B16	!regeneratiefase 16
12249 10487 30 00008    	JFRF	L10495
12250 10488 13 01492    	FTCHD	DSP98_0	!display 98 eenheden
12251 10489 13 01493    	FTCHD	DSP98_1	!display 98 tientallen
12252 10490 13 01494    	FTCHD	DSP98_2	!display 98 honderdtallen
12253 10491 13 01495    	FTCHD	DSP98_3	!display 98 duizendtallen
12254 10492 14 01164    	STRD	DSP16_0	!display 16 eenheden
12255 10493 14 01165    	STRD	DSP16_1	!display 16 tientallen
12256 10494 14 01166    	STRD	DSP16_2	!display 16 honderdtallen
12257 10495 14 01167    L10495	STRD	DSP16_3	!display 16 duizendtallen
12258                   
12259 10496 17 00039.3  	ANDNT	REG0B16	!regeneratiefase 16
12260 10497 30 00008    	JFRF	L10505
12261 10498 13 02064    	FTCHD	STP16_0	!setpoint 16 eenheden
12262 10499 13 02065    	FTCHD	STP16_1	!setpoint 16 tientallen
12263 10500 13 02066    	FTCHD	STP16_2	!setpoint 16 honderdtallen
12264 10501 13 02067    	FTCHD	STP16_3	!setpoint 16 duizendtallen
12265 10502 14 01164    	STRD	DSP16_0	!display 16 eenheden
12266 10503 14 01165    	STRD	DSP16_1	!display 16 tientallen
12267 10504 14 01166    	STRD	DSP16_2	!display 16 honderdtallen
12268 10505 14 01167    L10505	STRD	DSP16_3	!display 16 duizendtallen
12269                   
12270 10506 16 00040.0  	AND	REG0B17	!regeneratiefase 17
12271 10507 30 00008    	JFRF	L10515
12272 10508 13 01492    	FTCHD	DSP98_0	!display 98 eenheden
12273 10509 13 01493    	FTCHD	DSP98_1	!display 98 tientallen
12274 10510 13 01494    	FTCHD	DSP98_2	!display 98 honderdtallen
12275 10511 13 01495    	FTCHD	DSP98_3	!display 98 duizendtallen
12276 10512 14 01168    	STRD	DSP17_0	!display 17 eenheden
12277 10513 14 01169    	STRD	DSP17_1	!display 17 tientallen
12278 10514 14 01170    	STRD	DSP17_2	!display 17 honderdtallen
12279 10515 14 01171    L10515	STRD	DSP17_3	!display 17 duizendtallen
12280                   
12281 10516 17 00040.0  	ANDNT	REG0B17	!regeneratiefase 17
12282 10517 30 00008    	JFRF	L10525
12283 10518 13 02068    	FTCHD	STP17_0	!setpoint 17 eenheden
12284 10519 13 02069    	FTCHD	STP17_1	!setpoint 17 tientallen
12285 10520 13 02070    	FTCHD	STP17_2	!setpoint 17 honderdtallen
12286 10521 13 02071    	FTCHD	STP17_3	!setpoint 17 duizendtallen
12287 10522 14 01168    	STRD	DSP17_0	!display 17 eenheden
12288 10523 14 01169    	STRD	DSP17_1	!display 17 tientallen
12289 10524 14 01170    	STRD	DSP17_2	!display 17 honderdtallen
12290 10525 14 01171    L10525	STRD	DSP17_3	!display 17 duizendtallen
12291                   
12292 10526 16 00040.1  	AND	REG0B18	!regeneratiefase 18
12293 10527 30 00008    	JFRF	L10535
12294 10528 13 01492    	FTCHD	DSP98_0	!display 98 eenheden
12295 10529 13 01493    	FTCHD	DSP98_1	!display 98 tientallen
12296 10530 13 01494    	FTCHD	DSP98_2	!display 98 honderdtallen
12297 10531 13 01495    	FTCHD	DSP98_3	!display 98 duizendtallen
12298 10532 14 01172    	STRD	DSP18_0	!display 18 eenheden
12299 10533 14 01173    	STRD	DSP18_1	!display 18 tientallen
12300 10534 14 01174    	STRD	DSP18_2	!display 18 honderdtallen
12301 10535 14 01175    L10535	STRD	DSP18_3	!display 18 duizendtallen
12302                   
12303 10536 17 00040.1  	ANDNT	REG0B18	!regeneratiefase 18
12304 10537 30 00008    	JFRF	L10545
12305 10538 13 02072    	FTCHD	STP18_0	!setpoint 18 eenheden
12306 10539 13 02073    	FTCHD	STP18_1	!setpoint 18 tientallen
12307 10540 13 02074    	FTCHD	STP18_2	!setpoint 18 honderdtallen
12308 10541 13 02075    	FTCHD	STP18_3	!setpoint 18 duizendtallen
12309 10542 14 01172    	STRD	DSP18_0	!display 18 eenheden
12310 10543 14 01173    	STRD	DSP18_1	!display 18 tientallen
12311 10544 14 01174    	STRD	DSP18_2	!display 18 honderdtallen
12312 10545 14 01175    L10545	STRD	DSP18_3	!display 18 duizendtallen
12313                   
12314 10546 16 00040.2  	AND	REG0B19	!regeneratiefase 19
12315 10547 30 00008    	JFRF	L10555
12316 10548 13 01492    	FTCHD	DSP98_0	!display 98 eenheden
12317 10549 13 01493    	FTCHD	DSP98_1	!display 98 tientallen
12318 10550 13 01494    	FTCHD	DSP98_2	!display 98 honderdtallen
12319 10551 13 01495    	FTCHD	DSP98_3	!display 98 duizendtallen
12320 10552 14 01176    	STRD	DSP19_0	!display 19 eenheden
12321 10553 14 01177    	STRD	DSP19_1	!display 19 tientallen
12322 10554 14 01178    	STRD	DSP19_2	!display 19 honderdtallen
12323 10555 14 01179    L10555	STRD	DSP19_3	!display 19 duizendtallen
12324                   
12325 10556 17 00040.2  	ANDNT	REG0B19	!regeneratiefase 19
12326 10557 30 00008    	JFRF	L10565
12327 10558 13 02076    	FTCHD	STP19_0	!setpoint 19 eenheden
12328 10559 13 02077    	FTCHD	STP19_1	!setpoint 19 tientallen
12329 10560 13 02078    	FTCHD	STP19_2	!setpoint 19 honderdtallen
12330 10561 13 02079    	FTCHD	STP19_3	!setpoint 19 duizendtallen
12331 10562 14 01176    	STRD	DSP19_0	!display 19 eenheden
12332 10563 14 01177    	STRD	DSP19_1	!display 19 tientallen
12333 10564 14 01178    	STRD	DSP19_2	!display 19 honderdtallen
12334 10565 14 01179    L10565	STRD	DSP19_3	!display 19 duizendtallen
12335                   
12336 10566 16 00040.3  	AND	REG0B20	!regeneratiefase 20
12337 10567 30 00008    	JFRF	L10575
12338 10568 13 01492    	FTCHD	DSP98_0	!display 98 eenheden
12339 10569 13 01493    	FTCHD	DSP98_1	!display 98 tientallen
12340 10570 13 01494    	FTCHD	DSP98_2	!display 98 honderdtallen
12341 10571 13 01495    	FTCHD	DSP98_3	!display 98 duizendtallen
12342 10572 14 01180    	STRD	DSP20_0	!display 20 eenheden
12343 10573 14 01181    	STRD	DSP20_1	!display 20 tientallen
12344 10574 14 01182    	STRD	DSP20_2	!display 20 honderdtallen
12345 10575 14 01183    L10575	STRD	DSP20_3	!display 20 duizendtallen
12346                   
12347 10576 17 00040.3  	ANDNT	REG0B20	!regeneratiefase 20
12348 10577 30 00008    	JFRF	L10585
12349 10578 13 02080    	FTCHD	STP20_0	!setpoint 20 eenheden
12350 10579 13 02081    	FTCHD	STP20_1	!setpoint 20 tientallen
12351 10580 13 02082    	FTCHD	STP20_2	!setpoint 20 honderdtallen
12352 10581 13 02083    	FTCHD	STP20_3	!setpoint 20 duizendtallen
12353 10582 14 01180    	STRD	DSP20_0	!display 20 eenheden
12354 10583 14 01181    	STRD	DSP20_1	!display 20 tientallen
12355 10584 14 01182    	STRD	DSP20_2	!display 20 honderdtallen
12356 10585 14 01183    L10585	STRD	DSP20_3	!display 20 duizendtallen
12357                   
12358 10586 16 00041.0  	AND	REG0B21	!regeneratiefase 21
12359 10587 30 00008    	JFRF	L10595
12360 10588 13 01492    	FTCHD	DSP98_0	!display 98 eenheden
12361 10589 13 01493    	FTCHD	DSP98_1	!display 98 tientallen
12362 10590 13 01494    	FTCHD	DSP98_2	!display 98 honderdtallen
12363 10591 13 01495    	FTCHD	DSP98_3	!display 98 duizendtallen
12364 10592 14 01184    	STRD	DSP21_0	!display 21 eenheden
12365 10593 14 01185    	STRD	DSP21_1	!display 21 tientallen
12366 10594 14 01186    	STRD	DSP21_2	!display 21 honderdtallen
12367 10595 14 01187    L10595	STRD	DSP21_3	!display 21 duizendtallen
12368                   
12369 10596 17 00041.0  	ANDNT	REG0B21	!regeneratiefase 21
12370 10597 30 00008    	JFRF	L10605
12371 10598 13 02084    	FTCHD	STP21_0	!setpoint 21 eenheden
12372 10599 13 02085    	FTCHD	STP21_1	!setpoint 21 tientallen
12373 10600 13 02086    	FTCHD	STP21_2	!setpoint 21 honderdtallen
12374 10601 13 02087    	FTCHD	STP21_3	!setpoint 21 duizendtallen
12375 10602 14 01184    	STRD	DSP21_0	!display 21 eenheden
12376 10603 14 01185    	STRD	DSP21_1	!display 21 tientallen
12377 10604 14 01186    	STRD	DSP21_2	!display 21 honderdtallen
12378 10605 14 01187    L10605	STRD	DSP21_3	!display 21 duizendtallen
12379                   
12380 10606 16 00041.1  	AND	REG0B22	!regeneratiefase 22
12381 10607 30 00008    	JFRF	L10615
12382 10608 13 01492    	FTCHD	DSP98_0	!display 98 eenheden
12383 10609 13 01493    	FTCHD	DSP98_1	!display 98 tientallen
12384 10610 13 01494    	FTCHD	DSP98_2	!display 98 honderdtallen
12385 10611 13 01495    	FTCHD	DSP98_3	!display 98 duizendtallen
12386 10612 14 01188    	STRD	DSP22_0	!display 22 eenheden
12387 10613 14 01189    	STRD	DSP22_1	!display 22 tientallen
12388 10614 14 01190    	STRD	DSP22_2	!display 22 honderdtallen
12389 10615 14 01191    L10615	STRD	DSP22_3	!display 22 duizendtallen
12390                   
12391 10616 17 00041.1  	ANDNT	REG0B22	!regeneratiefase 22
12392 10617 30 00008    	JFRF	L10625
12393 10618 13 02088    	FTCHD	STP22_0	!setpoint 22 eenheden
12394 10619 13 02089    	FTCHD	STP22_1	!setpoint 22 tientallen
12395 10620 13 02090    	FTCHD	STP22_2	!setpoint 22 honderdtallen
12396 10621 13 02091    	FTCHD	STP22_3	!setpoint 22 duizendtallen
12397 10622 14 01188    	STRD	DSP22_0	!display 22 eenheden
12398 10623 14 01189    	STRD	DSP22_1	!display 22 tientallen
12399 10624 14 01190    	STRD	DSP22_2	!display 22 honderdtallen
12400 10625 14 01191    L10625	STRD	DSP22_3	!display 22 duizendtallen
12401                   
12402 10626 16 00041.2  	AND	REG0B23	!regeneratiefase 23
12403 10627 30 00008    	JFRF	L10635
12404 10628 13 01492    	FTCHD	DSP98_0	!display 98 eenheden
12405 10629 13 01493    	FTCHD	DSP98_1	!display 98 tientallen
12406 10630 13 01494    	FTCHD	DSP98_2	!display 98 honderdtallen
12407 10631 13 01495    	FTCHD	DSP98_3	!display 98 duizendtallen
12408 10632 14 01192    	STRD	DSP23_0	!display 23 eenheden
12409 10633 14 01193    	STRD	DSP23_1	!display 23 tientallen
12410 10634 14 01194    	STRD	DSP23_2	!display 23 honderdtallen
12411 10635 14 01195    L10635	STRD	DSP23_3	!display 23 duizendtallen
12412                   
12413 10636 17 00041.2  	ANDNT	REG0B23	!regeneratiefase 23
12414 10637 30 00008    	JFRF	L10645
12415 10638 13 02092    	FTCHD	STP23_0	!setpoint 23 eenheden
12416 10639 13 02093    	FTCHD	STP23_1	!setpoint 23 tientallen
12417 10640 13 02094    	FTCHD	STP23_2	!setpoint 23 honderdtallen
12418 10641 13 02095    	FTCHD	STP23_3	!setpoint 23 duizendtallen
12419 10642 14 01192    	STRD	DSP23_0	!display 23 eenheden
12420 10643 14 01193    	STRD	DSP23_1	!display 23 tientallen
12421 10644 14 01194    	STRD	DSP23_2	!display 23 honderdtallen
12422 10645 14 01195    L10645	STRD	DSP23_3	!display 23 duizendtallen
12423                   
12424 10646 16 00041.3  	AND	REG0B24	!regeneratiefase 24
12425 10647 30 00008    	JFRF	L10655
12426 10648 13 01492    	FTCHD	DSP98_0	!display 98 eenheden
12427 10649 13 01493    	FTCHD	DSP98_1	!display 98 tientallen
12428 10650 13 01494    	FTCHD	DSP98_2	!display 98 honderdtallen
12429 10651 13 01495    	FTCHD	DSP98_3	!display 98 duizendtallen
12430 10652 14 01196    	STRD	DSP24_0	!display 24 eenheden
12431 10653 14 01197    	STRD	DSP24_1	!display 24 tientallen
12432 10654 14 01198    	STRD	DSP24_2	!display 24 honderdtallen
12433 10655 14 01199    L10655	STRD	DSP24_3	!display 24 duizendtallen
12434                   
12435 10656 17 00041.3  	ANDNT	REG0B24	!regeneratiefase 24
12436 10657 30 00008    	JFRF	L10665
12437 10658 13 02096    	FTCHD	STP24_0	!setpoint 24 eenheden
12438 10659 13 02097    	FTCHD	STP24_1	!setpoint 24 tientallen
12439 10660 13 02098    	FTCHD	STP24_2	!setpoint 24 honderdtallen
12440 10661 13 02099    	FTCHD	STP24_3	!setpoint 24 duizendtallen
12441 10662 14 01196    	STRD	DSP24_0	!display 24 eenheden
12442 10663 14 01197    	STRD	DSP24_1	!display 24 tientallen
12443 10664 14 01198    	STRD	DSP24_2	!display 24 honderdtallen
12444 10665 14 01199    L10665	STRD	DSP24_3	!display 24 duizendtallen
12445                   
12446 10666 16 00042.0  	AND	REG0B25	!regeneratiefase 25
12447 10667 30 00008    	JFRF	L10675
12448 10668 13 01492    	FTCHD	DSP98_0	!display 98 eenheden
12449 10669 13 01493    	FTCHD	DSP98_1	!display 98 tientallen
12450 10670 13 01494    	FTCHD	DSP98_2	!display 98 honderdtallen
12451 10671 13 01495    	FTCHD	DSP98_3	!display 98 duizendtallen
12452 10672 14 01200    	STRD	DSP25_0	!display 25 eenheden
12453 10673 14 01201    	STRD	DSP25_1	!display 25 tientallen
12454 10674 14 01202    	STRD	DSP25_2	!display 25 honderdtallen
12455 10675 14 01203    L10675	STRD	DSP25_3	!display 25 duizendtallen
12456                   
12457 10676 17 00042.0  	ANDNT	REG0B25	!regeneratiefase 25
12458 10677 30 00008    	JFRF	L10685
12459 10678 13 02100    	FTCHD	STP25_0	!setpoint 25 eenheden
12460 10679 13 02101    	FTCHD	STP25_1	!setpoint 25 tientallen
12461 10680 13 02102    	FTCHD	STP25_2	!setpoint 25 honderdtallen
12462 10681 13 02103    	FTCHD	STP25_3	!setpoint 25 duizendtallen
12463 10682 14 01200    	STRD	DSP25_0	!display 25 eenheden
12464 10683 14 01201    	STRD	DSP25_1	!display 25 tientallen
12465 10684 14 01202    	STRD	DSP25_2	!display 25 honderdtallen
12466 10685 14 01203    L10685	STRD	DSP25_3	!display 25 duizendtallen
12467                   
12468 10686 16 00042.1  	AND	REG0B26	!regeneratiefase 26
12469 10687 30 00008    	JFRF	L10695
12470 10688 13 01492    	FTCHD	DSP98_0	!display 98 eenheden
12471 10689 13 01493    	FTCHD	DSP98_1	!display 98 tientallen
12472 10690 13 01494    	FTCHD	DSP98_2	!display 98 honderdtallen
12473 10691 13 01495    	FTCHD	DSP98_3	!display 98 duizendtallen
12474 10692 14 01204    	STRD	DSP26_0	!display 26 eenheden
12475 10693 14 01205    	STRD	DSP26_1	!display 26 tientallen
12476 10694 14 01206    	STRD	DSP26_2	!display 26 honderdtallen
12477 10695 14 01207    L10695	STRD	DSP26_3	!display 26 duizendtallen
12478                   
12479 10696 17 00042.1  	ANDNT	REG0B26	!regeneratiefase 26
12480 10697 30 00008    	JFRF	L10705
12481 10698 13 02104    	FTCHD	STP26_0	!setpoint 26 eenheden
12482 10699 13 02105    	FTCHD	STP26_1	!setpoint 26 tientallen
12483 10700 13 02106    	FTCHD	STP26_2	!setpoint 26 honderdtallen
12484 10701 13 02107    	FTCHD	STP26_3	!setpoint 26 duizendtallen
12485 10702 14 01204    	STRD	DSP26_0	!display 26 eenheden
12486 10703 14 01205    	STRD	DSP26_1	!display 26 tientallen
12487 10704 14 01206    	STRD	DSP26_2	!display 26 honderdtallen
12488 10705 14 01207    L10705	STRD	DSP26_3	!display 26 duizendtallen
12489                   
12490 10706 16 00042.2  	AND	REG0B27	!regeneratiefase 27
12491 10707 30 00008    	JFRF	L10715
12492 10708 13 01492    	FTCHD	DSP98_0	!display 98 eenheden
12493 10709 13 01493    	FTCHD	DSP98_1	!display 98 tientallen
12494 10710 13 01494    	FTCHD	DSP98_2	!display 98 honderdtallen
12495 10711 13 01495    	FTCHD	DSP98_3	!display 98 duizendtallen
12496 10712 14 01208    	STRD	DSP27_0	!display 27 eenheden
12497 10713 14 01209    	STRD	DSP27_1	!display 27 tientallen
12498 10714 14 01210    	STRD	DSP27_2	!display 27 honderdtallen
12499 10715 14 01211    L10715	STRD	DSP27_3	!display 27 duizendtallen
12500                   
12501 10716 17 00042.2  	ANDNT	REG0B27	!regeneratiefase 27
12502 10717 30 00008    	JFRF	L10725
12503 10718 13 02108    	FTCHD	STP27_0	!setpoint 27 eenheden
12504 10719 13 02109    	FTCHD	STP27_1	!setpoint 27 tientallen
12505 10720 13 02110    	FTCHD	STP27_2	!setpoint 27 honderdtallen
12506 10721 13 02111    	FTCHD	STP27_3	!setpoint 27 duizendtallen
12507 10722 14 01208    	STRD	DSP27_0	!display 27 eenheden
12508 10723 14 01209    	STRD	DSP27_1	!display 27 tientallen
12509 10724 14 01210    	STRD	DSP27_2	!display 27 honderdtallen
12510 10725 14 01211    L10725	STRD	DSP27_3	!display 27 duizendtallen
12511                   
12512 10726 16 00042.3  	AND	REG0B28	!regeneratiefase 28
12513 10727 30 00008    	JFRF	L10735
12514 10728 13 01492    	FTCHD	DSP98_0	!display 98 eenheden
12515 10729 13 01493    	FTCHD	DSP98_1	!display 98 tientallen
12516 10730 13 01494    	FTCHD	DSP98_2	!display 98 honderdtallen
12517 10731 13 01495    	FTCHD	DSP98_3	!display 98 duizendtallen
12518 10732 14 01212    	STRD	DSP28_0	!display 28 eenheden
12519 10733 14 01213    	STRD	DSP28_1	!display 28 tientallen
12520 10734 14 01214    	STRD	DSP28_2	!display 28 honderdtallen
12521 10735 14 01215    L10735	STRD	DSP28_3	!display 28 duizendtallen
12522                   
12523 10736 17 00042.3  	ANDNT	REG0B28	!regeneratiefase 28
12524 10737 30 00008    	JFRF	L10745
12525 10738 13 02112    	FTCHD	STP28_0	!setpoint 28 eenheden
12526 10739 13 02113    	FTCHD	STP28_1	!setpoint 28 tientallen
12527 10740 13 02114    	FTCHD	STP28_2	!setpoint 28 honderdtallen
12528 10741 13 02115    	FTCHD	STP28_3	!setpoint 28 duizendtallen
12529 10742 14 01212    	STRD	DSP28_0	!display 28 eenheden
12530 10743 14 01213    	STRD	DSP28_1	!display 28 tientallen
12531 10744 14 01214    	STRD	DSP28_2	!display 28 honderdtallen
12532 10745 14 01215    L10745	STRD	DSP28_3	!display 28 duizendtallen
12533                   
12534 10746 16 00043.0  	AND	REG0B29	!regeneratiefase 29
12535 10747 30 00008    	JFRF	L10755
12536 10748 13 01492    	FTCHD	DSP98_0	!display 98 eenheden
12537 10749 13 01493    	FTCHD	DSP98_1	!display 98 tientallen
12538 10750 13 01494    	FTCHD	DSP98_2	!display 98 honderdtallen
12539 10751 13 01495    	FTCHD	DSP98_3	!display 98 duizendtallen
12540 10752 14 01216    	STRD	DSP29_0	!display 29 eenheden
12541 10753 14 01217    	STRD	DSP29_1	!display 29 tientallen
12542 10754 14 01218    	STRD	DSP29_2	!display 29 honderdtallen
12543 10755 14 01219    L10755	STRD	DSP29_3	!display 29 duizendtallen
12544                   
12545 10756 17 00043.0  	ANDNT	REG0B29	!regeneratiefase 29
12546 10757 30 00008    	JFRF	L10765
12547 10758 13 02116    	FTCHD	STP29_0	!setpoint 29 eenheden
12548 10759 13 02117    	FTCHD	STP29_1	!setpoint 29 tientallen
12549 10760 13 02118    	FTCHD	STP29_2	!setpoint 29 honderdtallen
12550 10761 13 02119    	FTCHD	STP29_3	!setpoint 29 duizendtallen
12551 10762 14 01216    	STRD	DSP29_0	!display 29 eenheden
12552 10763 14 01217    	STRD	DSP29_1	!display 29 tientallen
12553 10764 14 01218    	STRD	DSP29_2	!display 29 honderdtallen
12554 10765 14 01219    L10765	STRD	DSP29_3	!display 29 duizendtallen
12555                   
12556 10766 16 00043.1  	AND	REG0B30	!regeneratiefase 30
12557 10767 30 00008    	JFRF	L10775
12558 10768 13 01492    	FTCHD	DSP98_0	!display 98 eenheden
12559 10769 13 01493    	FTCHD	DSP98_1	!display 98 tientallen
12560 10770 13 01494    	FTCHD	DSP98_2	!display 98 honderdtallen
12561 10771 13 01495    	FTCHD	DSP98_3	!display 98 duizendtallen
12562 10772 14 01220    	STRD	DSP30_0	!display 30 eenheden
12563 10773 14 01221    	STRD	DSP30_1	!display 30 tientallen
12564 10774 14 01222    	STRD	DSP30_2	!display 30 honderdtallen
12565 10775 14 01223    L10775	STRD	DSP30_3	!display 30 duizendtallen
12566                   
12567 10776 17 00043.1  	ANDNT	REG0B30	!regeneratiefase 30
12568 10777 30 00008    	JFRF	L10785
12569 10778 13 02120    	FTCHD	STP30_0	!setpoint 30 eenheden
12570 10779 13 02121    	FTCHD	STP30_1	!setpoint 30 tientallen
12571 10780 13 02122    	FTCHD	STP30_2	!setpoint 30 honderdtallen
12572 10781 13 02123    	FTCHD	STP30_3	!setpoint 30 duizendtallen
12573 10782 14 01220    	STRD	DSP30_0	!display 30 eenheden
12574 10783 14 01221    	STRD	DSP30_1	!display 30 tientallen
12575 10784 14 01222    	STRD	DSP30_2	!display 30 honderdtallen
12576 10785 14 01223    L10785	STRD	DSP30_3	!display 30 duizendtallen
12577                   
12578 10786 16 00043.2  	AND	REG0B31	!regeneratiefase 31
12579 10787 30 00008    	JFRF	L10795
12580 10788 13 01492    	FTCHD	DSP98_0	!display 98 eenheden
12581 10789 13 01493    	FTCHD	DSP98_1	!display 98 tientallen
12582 10790 13 01494    	FTCHD	DSP98_2	!display 98 honderdtallen
12583 10791 13 01495    	FTCHD	DSP98_3	!display 98 duizendtallen
12584 10792 14 01224    	STRD	DSP31_0	!display 31 eenheden
12585 10793 14 01225    	STRD	DSP31_1	!display 31 tientallen
12586 10794 14 01226    	STRD	DSP31_2	!display 31 honderdtallen
12587 10795 14 01227    L10795	STRD	DSP31_3	!display 31 duizendtallen
12588                   
12589 10796 17 00043.2  	ANDNT	REG0B31	!regeneratiefase 31
12590 10797 30 00008    	JFRF	L10805
12591 10798 13 02124    	FTCHD	STP31_0	!setpoint 31 eenheden
12592 10799 13 02125    	FTCHD	STP31_1	!setpoint 31 tientallen
12593 10800 13 02126    	FTCHD	STP31_2	!setpoint 31 honderdtallen
12594 10801 13 02127    	FTCHD	STP31_3	!setpoint 31 duizendtallen
12595 10802 14 01224    	STRD	DSP31_0	!display 31 eenheden
12596 10803 14 01225    	STRD	DSP31_1	!display 31 tientallen
12597 10804 14 01226    	STRD	DSP31_2	!display 31 honderdtallen
12598 10805 14 01227    L10805	STRD	DSP31_3	!display 31 duizendtallen
12599                   
12600 10806 16 00043.3  	AND	REG0B32	!regeneratiefase 32
12601 10807 30 00008    	JFRF	L10815
12602 10808 13 01492    	FTCHD	DSP98_0	!display 98 eenheden
12603 10809 13 01493    	FTCHD	DSP98_1	!display 98 tientallen
12604 10810 13 01494    	FTCHD	DSP98_2	!display 98 honderdtallen
12605 10811 13 01495    	FTCHD	DSP98_3	!display 98 duizendtallen
12606 10812 14 01228    	STRD	DSP32_0	!display 32 eenheden
12607 10813 14 01229    	STRD	DSP32_1	!display 32 tientallen
12608 10814 14 01230    	STRD	DSP32_2	!display 32 honderdtallen
12609 10815 14 01231    L10815	STRD	DSP32_3	!display 32 duizendtallen
12610                   
12611 10816 17 00043.3  	ANDNT	REG0B32	!regeneratiefase 32
12612 10817 30 00008    	JFRF	L10825
12613 10818 13 02128    	FTCHD	STP32_0	!setpoint 32 eenheden
12614 10819 13 02129    	FTCHD	STP32_1	!setpoint 32 tientallen
12615 10820 13 02130    	FTCHD	STP32_2	!setpoint 32 honderdtallen
12616 10821 13 02131    	FTCHD	STP32_3	!setpoint 32 duizendtallen
12617 10822 14 01228    	STRD	DSP32_0	!display 32 eenheden
12618 10823 14 01229    	STRD	DSP32_1	!display 32 tientallen
12619 10824 14 01230    	STRD	DSP32_2	!display 32 honderdtallen
12620 10825 14 01231    L10825	STRD	DSP32_3	!display 32 duizendtallen
12621                   
12622 10826 16 00044.0  	AND	REG0B33	!regeneratiefase 33
12623 10827 30 00008    	JFRF	L10835
12624 10828 13 01492    	FTCHD	DSP98_0	!display 98 eenheden
12625 10829 13 01493    	FTCHD	DSP98_1	!display 98 tientallen
12626 10830 13 01494    	FTCHD	DSP98_2	!display 98 honderdtallen
12627 10831 13 01495    	FTCHD	DSP98_3	!display 98 duizendtallen
12628 10832 14 01232    	STRD	DSP33_0	!display 33 eenheden
12629 10833 14 01233    	STRD	DSP33_1	!display 33 tientallen
12630 10834 14 01234    	STRD	DSP33_2	!display 33 honderdtallen
12631 10835 14 01235    L10835	STRD	DSP33_3	!display 33 duizendtallen
12632                   
12633 10836 17 00044.0  	ANDNT	REG0B33	!regeneratiefase 33
12634 10837 30 00008    	JFRF	L10845
12635 10838 13 02132    	FTCHD	STP33_0	!setpoint 33 eenheden
12636 10839 13 02133    	FTCHD	STP33_1	!setpoint 33 tientallen
12637 10840 13 02134    	FTCHD	STP33_2	!setpoint 33 honderdtallen
12638 10841 13 02135    	FTCHD	STP33_3	!setpoint 33 duizendtallen
12639 10842 14 01232    	STRD	DSP33_0	!display 33 eenheden
12640 10843 14 01233    	STRD	DSP33_1	!display 33 tientallen
12641 10844 14 01234    	STRD	DSP33_2	!display 33 honderdtallen
12642 10845 14 01235    L10845	STRD	DSP33_3	!display 33 duizendtallen
12643                   
12644 10846 16 00044.1  	AND	REG0B34	!regeneratiefase 33.1
12645 10847 30 00008    	JFRF	L10855
12646 10848 13 01492    	FTCHD	DSP98_0	!display 98 eenheden
12647 10849 13 01493    	FTCHD	DSP98_1	!display 98 tientallen
12648 10850 13 01494    	FTCHD	DSP98_2	!display 98 honderdtallen
12649 10851 13 01495    	FTCHD	DSP98_3	!display 98 duizendtallen
12650 10852 14 01236    	STRD	DSP34_0	!display 34 eenheden
12651 10853 14 01237    	STRD	DSP34_1	!display 34 tientallen
12652 10854 14 01238    	STRD	DSP34_2	!display 34 honderdtallen
12653 10855 14 01239    L10855	STRD	DSP34_3	!display 34 duizendtallen
12654                   
12655 10856 17 00044.1  	ANDNT	REG0B34	!regeneratiefase 33.1
12656 10857 30 00008    	JFRF	L10865
12657 10858 13 02136    	FTCHD	STP34_0	!setpoint 34 eenheden
12658 10859 13 02137    	FTCHD	STP34_1	!setpoint 34 tientallen
12659 10860 13 02138    	FTCHD	STP34_2	!setpoint 34 honderdtallen
12660 10861 13 02139    	FTCHD	STP34_3	!setpoint 34 duizendtallen
12661 10862 14 01236    	STRD	DSP34_0	!display 34 eenheden
12662 10863 14 01237    	STRD	DSP34_1	!display 34 tientallen
12663 10864 14 01238    	STRD	DSP34_2	!display 34 honderdtallen
12664 10865 14 01239    L10865	STRD	DSP34_3	!display 34 duizendtallen
12665                   
12666 10866 16 00400.0  	AND	REG0B60	!regeneratie fase 60
12667 10867 30 00008    	JFRF	L10875
12668 10868 13 01492    	FTCHD	DSP98_0	!display 98 eenheden
12669 10869 13 01493    	FTCHD	DSP98_1	!display 98 tientallen
12670 10870 13 01494    	FTCHD	DSP98_2	!display 98 honderdtallen
12671 10871 13 01495    	FTCHD	DSP98_3	!display 98 duizendtallen
12672 10872 14 01340    	STRD	DSP60_0	!display 60 eenheden
12673 10873 14 01341    	STRD	DSP60_1	!display 60 tientallen
12674 10874 14 01342    	STRD	DSP60_2	!display 60 honderdtallen
12675 10875 14 01343    L10875	STRD	DSP60_3	!display 60 duizendtallen
12676                   
12677 10876 17 00400.0  	ANDNT	REG0B60	!regeneratie fase 60
12678 10877 30 00008    	JFRF	L10885
12679 10878 13 02240    	FTCHD	STP60_0	!setpoint 60 eenheden
12680 10879 13 02241    	FTCHD	STP60_1	!setpoint 60 tientallen
12681 10880 13 02242    	FTCHD	STP60_2	!setpoint 60 honderdtallen
12682 10881 13 02243    	FTCHD	STP60_3	!setpoint 60 duizendtallen
12683 10882 14 01340    	STRD	DSP60_0	!display 60 eenheden
12684 10883 14 01341    	STRD	DSP60_1	!display 60 tientallen
12685 10884 14 01342    	STRD	DSP60_2	!display 60 honderdtallen
12686 10885 14 01343    L10885	STRD	DSP60_3	!display 60 duizendtallen
12687                   
12688 10886 16 00400.1  	AND	REG0B61	!regeneratie fase 61
12689 10887 30 00008    	JFRF	L10895
12690 10888 13 01492    	FTCHD	DSP98_0	!display 98 eenheden
12691 10889 13 01493    	FTCHD	DSP98_1	!display 98 tientallen
12692 10890 13 01494    	FTCHD	DSP98_2	!display 98 honderdtallen
12693 10891 13 01495    	FTCHD	DSP98_3	!display 98 duizendtallen
12694 10892 14 01344    	STRD	DSP61_0	!display 61 eenheden
12695 10893 14 01345    	STRD	DSP61_1	!display 61 tientallen
12696 10894 14 01346    	STRD	DSP61_2	!display 61 honderdtallen
12697 10895 14 01347    L10895	STRD	DSP61_3	!display 61 duizendtallen
12698                   
12699 10896 17 00400.1  	ANDNT	REG0B61	!regeneratie fase 61
12700 10897 30 00008    	JFRF	L10905
12701 10898 13 02244    	FTCHD	STP61_0	!setpoint 61 eenheden
12702 10899 13 02245    	FTCHD	STP61_1	!setpoint 61 tientallen
12703 10900 13 02246    	FTCHD	STP61_2	!setpoint 61 honderdtallen
12704 10901 13 02247    	FTCHD	STP61_3	!setpoint 61 duizendtallen
12705 10902 14 01344    	STRD	DSP61_0	!display 61 eenheden
12706 10903 14 01345    	STRD	DSP61_1	!display 61 tientallen
12707 10904 14 01346    	STRD	DSP61_2	!display 61 honderdtallen
12708 10905 14 01347    L10905	STRD	DSP61_3	!display 61 duizendtallen
12709                   
12710 10906 16 00400.2  	AND	REG0B62	!regeneratie fase 62
12711 10907 30 00008    	JFRF	L10915
12712 10908 13 01492    	FTCHD	DSP98_0	!display 98 eenheden
12713 10909 13 01493    	FTCHD	DSP98_1	!display 98 tientallen
12714 10910 13 01494    	FTCHD	DSP98_2	!display 98 honderdtallen
12715 10911 13 01495    	FTCHD	DSP98_3	!display 98 duizendtallen
12716 10912 14 01348    	STRD	DSP62_0	!display 62 eenheden
12717 10913 14 01349    	STRD	DSP62_1	!display 62 tientallen
12718 10914 14 01350    	STRD	DSP62_2	!display 62 honderdtallen
12719 10915 14 01351    L10915	STRD	DSP62_3	!display 62 duizendtallen
12720                   
12721 10916 17 00400.2  	ANDNT	REG0B62	!regeneratie fase 62
12722 10917 30 00008    	JFRF	L10925
12723 10918 13 02248    	FTCHD	STP62_0	!setpoint 62 eenheden
12724 10919 13 02249    	FTCHD	STP62_1	!setpoint 62 tientallen
12725 10920 13 02250    	FTCHD	STP62_2	!setpoint 62 honderdtallen
12726 10921 13 02251    	FTCHD	STP62_3	!setpoint 62 duizendtallen
12727 10922 14 01348    	STRD	DSP62_0	!display 62 eenheden
12728 10923 14 01349    	STRD	DSP62_1	!display 62 tientallen
12729 10924 14 01350    	STRD	DSP62_2	!display 62 honderdtallen
12730 10925 14 01351    L10925	STRD	DSP62_3	!display 62 duizendtallen
12731                   
12732 10926 16 00400.3  	AND	REG0B63	!regeneratie fase 63
12733 10927 30 00008    	JFRF	L10935
12734 10928 13 01492    	FTCHD	DSP98_0	!display 98 eenheden
12735 10929 13 01493    	FTCHD	DSP98_1	!display 98 tientallen
12736 10930 13 01494    	FTCHD	DSP98_2	!display 98 honderdtallen
12737 10931 13 01495    	FTCHD	DSP98_3	!display 98 duizendtallen
12738 10932 14 01352    	STRD	DSP63_0	!display 63 eenheden
12739 10933 14 01353    	STRD	DSP63_1	!display 63 tientallen
12740 10934 14 01354    	STRD	DSP63_2	!display 63 honderdtallen
12741 10935 14 01355    L10935	STRD	DSP63_3	!display 63 duizendtallen
12742                   
12743 10936 17 00400.3  	ANDNT	REG0B63	!regeneratie fase 63
12744 10937 30 00008    	JFRF	L10945
12745 10938 13 02252    	FTCHD	STP63_0	!setpoint 63 eenheden
12746 10939 13 02253    	FTCHD	STP63_1	!setpoint 63 tientallen
12747 10940 13 02254    	FTCHD	STP63_2	!setpoint 63 honderdtallen
12748 10941 13 02255    	FTCHD	STP63_3	!setpoint 63 duizendtallen
12749 10942 14 01352    	STRD	DSP63_0	!display 63 eenheden
12750 10943 14 01353    	STRD	DSP63_1	!display 63 tientallen
12751 10944 14 01354    	STRD	DSP63_2	!display 63 honderdtallen
12752 10945 14 01355    L10945	STRD	DSP63_3	!display 63 duizendtallen
12753                   
12754 10946 16 00401.0  	AND	REG0B64	!regeneratie fase 64
12755 10947 30 00008    	JFRF	L10955
12756 10948 13 01492    	FTCHD	DSP98_0	!display 98 eenheden
12757 10949 13 01493    	FTCHD	DSP98_1	!display 98 tientallen
12758 10950 13 01494    	FTCHD	DSP98_2	!display 98 honderdtallen
12759 10951 13 01495    	FTCHD	DSP98_3	!display 98 duizendtallen
12760 10952 14 01356    	STRD	DSP64_0	!display 64 eenheden
12761 10953 14 01357    	STRD	DSP64_1	!display 64 tientallen
12762 10954 14 01358    	STRD	DSP64_2	!display 64 honderdtallen
12763 10955 14 01359    L10955	STRD	DSP64_3	!display 64 duizendtallen
12764                   
12765 10956 17 00401.0  	ANDNT	REG0B64	!regeneratie fase 64
12766 10957 30 00008    	JFRF	L10965
12767 10958 13 02256    	FTCHD	STP64_0	!setpoint 64 eenheden
12768 10959 13 02257    	FTCHD	STP64_1	!setpoint 64 tientallen
12769 10960 13 02258    	FTCHD	STP64_2	!setpoint 64 honderdtallen
12770 10961 13 02259    	FTCHD	STP64_3	!setpoint 64 duizendtallen
12771 10962 14 01356    	STRD	DSP64_0	!display 64 eenheden
12772 10963 14 01357    	STRD	DSP64_1	!display 64 tientallen
12773 10964 14 01358    	STRD	DSP64_2	!display 64 honderdtallen
12774 10965 14 01359    L10965	STRD	DSP64_3	!display 64 duizendtallen
12775                   
12776 10966 16 00401.1  	AND	REG0B65	!regeneratie fase 65
12777 10967 30 00008    	JFRF	L10975
12778 10968 13 01492    	FTCHD	DSP98_0	!display 98 eenheden
12779 10969 13 01493    	FTCHD	DSP98_1	!display 98 tientallen
12780 10970 13 01494    	FTCHD	DSP98_2	!display 98 honderdtallen
12781 10971 13 01495    	FTCHD	DSP98_3	!display 98 duizendtallen
12782 10972 14 01360    	STRD	DSP65_0	!display 65 eenheden
12783 10973 14 01361    	STRD	DSP65_1	!display 65 tientallen
12784 10974 14 01362    	STRD	DSP65_2	!display 65 honderdtallen
12785 10975 14 01363    L10975	STRD	DSP65_3	!display 65 duizendtallen
12786                   
12787 10976 17 00401.1  	ANDNT	REG0B65	!regeneratie fase 65
12788 10977 30 00008    	JFRF	L10985
12789 10978 13 02260    	FTCHD	STP65_0	!setpoint 65 eenheden
12790 10979 13 02261    	FTCHD	STP65_1	!setpoint 65 tientallen
12791 10980 13 02262    	FTCHD	STP65_2	!setpoint 65 honderdtallen
12792 10981 13 02263    	FTCHD	STP65_3	!setpoint 65 duizendtallen
12793 10982 14 01360    	STRD	DSP65_0	!display 65 eenheden
12794 10983 14 01361    	STRD	DSP65_1	!display 65 tientallen
12795 10984 14 01362    	STRD	DSP65_2	!display 65 honderdtallen
12796 10985 14 01363    L10985	STRD	DSP65_3	!display 65 duizendtallen
12797                   
12798 10986 17 00044.2  	ANDNT	REG0B00	!start regen. fasen 8 t/m 33.1
12799 10987 08 00037.3  	SET0	REG0B08	!regeneratiefase 8
12800 10988 08 00044.0  	SET0	REG0B33	!regeneratiefase 33
12801 10989 08 00044.1  	SET0	REG0B34	!regeneratiefase 33.1
12802                   
12803 10990 17 00044.2  	ANDNT	REG0B00	!start regen. fasen 8 t/m 33.1
12804 10991 12 00000    	FTCHC	00
12805 10992 14 00038    	STRD	0038
12806 10993 14 00039    	STRD	0039
12807 10994 14 00040    	STRD	0040
12808 10995 14 00041    	STRD	0041
12809 10996 14 00042    	STRD	0042
12810 10997 14 00043    	STRD	0043
12811 10998 14 00400    	STRD	0400
12812                   
12813 10999 17 00044.2  	ANDNT	REG0B00	!start regen. fasen 8 t/m 33.1
12814 11000 08 00401.0  	SET0	REG0B64	!regeneratie fase 64
12815 11001 08 00401.1  	SET0	REG0B65	!regeneratie fase 65
12816 11002 00          	NOP	48
12816 11003 00 
12816 11004 00 
12816 11005 00 
12816 11006 00 
12816 11007 00 
12816 11008 00 
12816 11009 00 
12816 11010 00 
12816 11011 00 
12816 11012 00 
12816 11013 00 
12816 11014 00 
12816 11015 00 
12816 11016 00 
12816 11017 00 
12816 11018 00 
12816 11019 00 
12816 11020 00 
12816 11021 00 
12816 11022 00 
12816 11023 00 
12816 11024 00 
12816 11025 00 
12816 11026 00 
12816 11027 00 
12816 11028 00 
12816 11029 00 
12816 11030 00 
12816 11031 00 
12816 11032 00 
12816 11033 00 
12816 11034 00 
12816 11035 00 
12816 11036 00 
12816 11037 00 
12816 11038 00 
12816 11039 00 
12816 11040 00 
12816 11041 00 
12816 11042 00 
12816 11043 00 
12816 11044 00 
12816 11045 00 
12816 11046 00 
12816 11047 00 
12816 11048 00 
12816 11049 00 
12817                   !                               DR_FLW
12818                   !				******
12819                   !
12820                   ! Flowbewaking reinwater
12821                   !
12822 11050 16 00000.1  	AND	000.1
12823 11051 13 01003    	FTCHD	FLW00_0	!LSB +
12824 11052 13 01002    	FTCHD	FLW00_1	!| flow reinwater
12825 11053 13 01001    	FTCHD	FLW00_2	!MSB +
12826 11054 14 01380    	STRD	DSP70_0	!display 70 eenheden
12827 11055 14 01381    	STRD	DSP70_1	!display 70 tientallen
12828 11056 14 01382    	STRD	DSP70_2	!display 70 honderdtallen
12829                   
12830 11057 16 00000.1  	AND	000.1
12831 11058 12 00015    	FTCHC	15
12832 11059 14 01383    	STRD	DSP70_3	!display 70 duizendtallen
12833                   
12834 11060 16 00000.1  	AND	000.1
12835 11061 13 01003    	FTCHD	FLW00_0	!LSB +
12836 11062 13 01002    	FTCHD	FLW00_1	!| flow reinwater
12837 11063 13 01001    	FTCHD	FLW00_2	!MSB +
12838 11064 15 02280    	COMP	STP70_0	!setpoint 70 eenheden
12839 11065 15 02281    	COMP	STP70_1	!setpoint 70 tientallen
12840 11066 15 02282    	COMP	STP70_2	!setpoint 70 honderdtallen
12841 11067 14 00370    	STRD	FLW0D00	!vergelijkingsresult.
12842                   
12843 11068 16 00370.2  	AND	FLW0B02	!F>C
12844 11069 19 00054.0  	ORNT	BDR0B10	!bedrijfsmelding
12845 11070 13 02296    	FTCHD	STP74_0	!setpoint 74 eenheden
12846 11071 13 02297    	FTCHD	STP74_1	!setpoint 74 tientallen
12847 11072 13 02298    	FTCHD	STP74_2	!setpoint 74 honderdtallen
12848 11073 13 02299    	FTCHD	STP74_3	!setpoint 74 duizendtallen
12849 11074 14 01396    	STRD	DSP74_0	!display 74 eenheden
12850 11075 14 01397    	STRD	DSP74_1	!display 74 tientallen
12851 11076 14 01398    	STRD	DSP74_2	!display 74 honderdtallen
12852 11077 14 01399    	STRD	DSP74_3	!display 74 duizendtallen
12853 11078 08 00374.0  	SET0	FLW0B04	!tijdvertr. flowalarm
12854                   
12855 11079 16 00511.1  	AND	S_1SEC	!triggerpuls 1,0 sec.
12856 11080 16 00370.1  	AND	FLW0B01	!F<C
12857 11081 16 00054.0  	AND	BDR0B10	!bedrijfsmelding
12858 11082 17 00374.0  	ANDNT	FLW0B04	!tijdvertr. flowalarm
12859 11083 06 01396    	CNTD	DSP74_0	!display 74 eenheden
12860 11084 06 01397    	CNTD	DSP74_1	!display 74 tientallen
12861 11085 06 01398    	CNTD	DSP74_2	!display 74 honderdtallen
12862 11086 06 01399    	CNTD	DSP74_3	!display 74 duizendtallen
12863 11087 10 00374.0  	STRB	FLW0B04	!tijdvertr. flowalarm
12864                   !
12865                   ! Flowbewaking ruwwater
12866                   !
12867 11088 16 00000.1  	AND	000.1
12868 11089 13 01007    	FTCHD	FLW01_0	!LSB +
12869 11090 13 01006    	FTCHD	FLW01_1	!| flow ruwwater
12870 11091 13 01005    	FTCHD	FLW01_2	!MSB +
12871 11092 14 01384    	STRD	DSP71_0	!display 71 eenheden
12872 11093 14 01385    	STRD	DSP71_1	!display 71 tientallen
12873 11094 14 01386    	STRD	DSP71_2	!display 71 honderdtallen
12874                   
12875 11095 16 00000.1  	AND	000.1
12876 11096 12 00015    	FTCHC	15
12877 11097 14 01387    	STRD	DSP71_3	!display 71 duizendtallen
12878                   
12879 11098 16 00000.1  	AND	000.1
12880 11099 13 01007    	FTCHD	FLW01_0	!LSB +
12881 11100 13 01006    	FTCHD	FLW01_1	!| flow ruwwater
12882 11101 13 01005    	FTCHD	FLW01_2	!MSB +
12883 11102 15 02284    	COMP	STP71_0	!setpoint 71 eenheden
12884 11103 15 02285    	COMP	STP71_1	!setpoint 71 tientallen
12885 11104 15 02286    	COMP	STP71_2	!setpoint 71 honderdtallen
12886 11105 14 00371    	STRD	FLW1D00	!vergelijkingsresult.
12887                   
12888 11106 16 00371.2  	AND	FLW1B02	!F>C
12889 11107 19 00140.3    ORNT  CMF_IN  !inbedrijfmelding CMF naar kast algemeen
12890 11108 13 02300    	FTCHD	STP75_0	!setpoint 75 eenheden
12891 11109 13 02301    	FTCHD	STP75_1	!setpoint 75 tientallen
12892 11110 13 02302    	FTCHD	STP75_2	!setpoint 75 honderdtallen
12893 11111 13 02303    	FTCHD	STP75_3	!setpoint 75 duizendtallen
12894 11112 14 01400    	STRD	DSP75_0	!display 75 eenheden
12895 11113 14 01401    	STRD	DSP75_1	!display 75 tientallen
12896 11114 14 01402    	STRD	DSP75_2	!display 75 honderdtallen
12897 11115 14 01403    	STRD	DSP75_3	!display 75 duizendtallen
12898 11116 08 00374.1  	SET0	FLW1B04	!tijdvertr. flowalarm
12899                   
12900 11117 16 00511.1  	AND	S_1SEC	!triggerpuls 1,0 sec.
12901 11118 16 00371.1  	AND	FLW1B01	!F<C
12902 11119 16 00054.0  	AND	BDR0B10	!bedrijfsmelding
12903 11120 17 00374.1  	ANDNT	FLW1B04	!tijdvertr. flowalarm
12904 11121 06 01400    	CNTD	DSP75_0	!display 75 eenheden
12905 11122 06 01401    	CNTD	DSP75_1	!display 75 tientallen
12906 11123 06 01402    	CNTD	DSP75_2	!display 75 honderdtallen
12907 11124 06 01403    	CNTD	DSP75_3	!display 75 duizendtallen
12908 11125 10 00374.1  	STRB	FLW1B04	!tijdvertr. flowalarm
12909                   
12910 11126 16 00374.1  	AND	FLW1B04	!tijdvertr. flowalarm
12911 11127 02 00325.0  	EQL	ALARM45	!lage flow alarm vuilproceswater
12912                   !
12913                   ! Flowbewaking concentraat
12914                   !
12915 11128 16 00000.1  	AND	000.1
12916 11129 13 01011    	FTCHD	FLW02_0	!LSB +
12917 11130 13 01010    	FTCHD	FLW02_1	!| flow concentraat
12918 11131 13 01009    	FTCHD	FLW02_2	!MSB +
12919 11132 14 01388    	STRD	DSP72_0	!display 72 eenheden
12920 11133 14 01389    	STRD	DSP72_1	!display 72 tientallen
12921 11134 14 01390    	STRD	DSP72_2	!display 72 honderdtallen
12922                   
12923 11135 16 00000.1  	AND	000.1
12924 11136 12 00015    	FTCHC	15
12925 11137 14 01391    	STRD	DSP72_3	!display 72 duizendtallen
12926                   
12927 11138 16 00000.1  	AND	000.1
12928 11139 13 01011    	FTCHD	FLW02_0	!LSB +
12929 11140 13 01010    	FTCHD	FLW02_1	!| flow concentraat
12930 11141 13 01009    	FTCHD	FLW02_2	!MSB +
12931 11142 15 02288    	COMP	STP72_0	!setpoint 72 eenheden
12932 11143 15 02289    	COMP	STP72_1	!setpoint 72 tientallen
12933 11144 15 02290    	COMP	STP72_2	!setpoint 72 honderdtallen
12934 11145 14 00372    	STRD	FLW2D00	!vergelijkingsresult.
12935                   
12936 11146 16 00372.2  	AND	FLW2B02	!F>C
12937 11147 19 00145.1  	ORNT	V10_4
12938 11148 13 02304    	FTCHD	STP76_0	!setpoint 76 eenheden
12939 11149 13 02305    	FTCHD	STP76_1	!setpoint 76 tientallen
12940 11150 13 02306    	FTCHD	STP76_2	!setpoint 76 honderdtallen
12941 11151 13 02307    	FTCHD	STP76_3	!setpoint 76 duizendtallen
12942 11152 14 01404    	STRD	DSP76_0	!display 76 eenheden
12943 11153 14 01405    	STRD	DSP76_1	!display 76 tientallen
12944 11154 14 01406    	STRD	DSP76_2	!display 76 honderdtallen
12945 11155 14 01407    	STRD	DSP76_3	!display 76 duizendtallen
12946 11156 08 00374.2  	SET0	FLW2B04	!tijdvertr. flowalarm
12947                   
12948 11157 16 00511.1  	AND	S_1SEC	!triggerpuls 1,0 sec.
12949 11158 16 00372.1  	AND	FLW2B01	!F<C
12950 11159 16 00145.1  	AND	V10_4
12951 11160 17 00374.2  	ANDNT	FLW2B04	!tijdvertr. flowalarm
12952 11161 06 01404    	CNTD	DSP76_0	!display 76 eenheden
12953 11162 06 01405    	CNTD	DSP76_1	!display 76 tientallen
12954 11163 06 01406    	CNTD	DSP76_2	!display 76 honderdtallen
12955 11164 06 01407    	CNTD	DSP76_3	!display 76 duizendtallen
12956 11165 10 00374.2  	STRB	FLW2B04	!tijdvertr. flowalarm
12957                   !
12958                   ! Flowbewaking reserve
12959                   !
12960 11166 16 00000.1  	AND	000.1
12961 11167 13 01015    	FTCHD	FLW03_0	!LSB +
12962 11168 13 01014    	FTCHD	FLW03_1	!| reserve
12963 11169 13 01013    	FTCHD	FLW03_2	!MSB +
12964 11170 14 01392    	STRD	DSP73_0	!display 73 eenheden
12965 11171 14 01393    	STRD	DSP73_1	!display 73 tientallen
12966 11172 14 01394    	STRD	DSP73_2	!display 73 honderdtallen
12967                   
12968 11173 16 00000.1  	AND	000.1
12969 11174 12 00015    	FTCHC	15
12970 11175 14 01383    	STRD	DSP70_3	!display 70 duizendtallen
12971                   
12972 11176 16 00000.1  	AND	000.1
12973 11177 13 01015    	FTCHD	FLW03_0	!LSB +
12974 11178 13 01014    	FTCHD	FLW03_1	!| reserve
12975 11179 13 01013    	FTCHD	FLW03_2	!MSB +
12976 11180 15 02292    	COMP	STP73_0	!setpoint 73 eenheden
12977 11181 15 02293    	COMP	STP73_1	!setpoint 73 tientallen
12978 11182 15 02294    	COMP	STP73_2	!setpoint 73 honderdtallen
12979 11183 14 00373    	STRD	FLW3D00	!vergelijkingsresult.
12980                   
12981 11184 16 00373.2  	AND	FLW3B02	!F>C
12982 11185 13 02308    	FTCHD	STP77_0	!setpoint 77 eenheden
12983 11186 13 02309    	FTCHD	STP77_1	!setpoint 77 tientallen
12984 11187 13 02310    	FTCHD	STP77_2	!setpoint 77 honderdtallen
12985 11188 13 02311    	FTCHD	STP77_3	!setpoint 77 duizendtallen
12986 11189 14 01408    	STRD	DSP77_0	!display 77 eenheden
12987 11190 14 01409    	STRD	DSP77_1	!display 77 tientallen
12988 11191 14 01410    	STRD	DSP77_2	!display 77 honderdtallen
12989 11192 14 01411    	STRD	DSP77_3	!display 77 duizendtallen
12990 11193 08 00374.3  	SET0	FLW3B04	!tijdvertr. flowalarm
12991                   
12992 11194 16 00511.1  	AND	S_1SEC	!triggerpuls 1,0 sec.
12993 11195 16 00373.1  	AND	FLW3B01	!F<C
12994 11196 17 00374.3  	ANDNT	FLW3B04	!tijdvertr. flowalarm
12995 11197 06 01408    	CNTD	DSP77_0	!display 77 eenheden
12996 11198 06 01409    	CNTD	DSP77_1	!display 77 tientallen
12997 11199 06 01410    	CNTD	DSP77_2	!display 77 honderdtallen
12998 11200 06 01411    	CNTD	DSP77_3	!display 77 duizendtallen
12999 11201 10 00374.3  	STRB	FLW3B04	!tijdvertr. flowalarm
13000 11202 00          	NOP	48
13000 11203 00 
13000 11204 00 
13000 11205 00 
13000 11206 00 
13000 11207 00 
13000 11208 00 
13000 11209 00 
13000 11210 00 
13000 11211 00 
13000 11212 00 
13000 11213 00 
13000 11214 00 
13000 11215 00 
13000 11216 00 
13000 11217 00 
13000 11218 00 
13000 11219 00 
13000 11220 00 
13000 11221 00 
13000 11222 00 
13000 11223 00 
13000 11224 00 
13000 11225 00 
13000 11226 00 
13000 11227 00 
13000 11228 00 
13000 11229 00 
13000 11230 00 
13000 11231 00 
13000 11232 00 
13000 11233 00 
13000 11234 00 
13000 11235 00 
13000 11236 00 
13000 11237 00 
13000 11238 00 
13000 11239 00 
13000 11240 00 
13000 11241 00 
13000 11242 00 
13000 11243 00 
13000 11244 00 
13000 11245 00 
13000 11246 00 
13000 11247 00 
13000 11248 00 
13000 11249 00 
13001                   !                               DR_GEL
13002                   !				******
13003                   !
13004                   ! Geleidb. bewaking reinwater
13005                   !
13006 11250 16 00000.1  	AND	000.1
13007 11251 13 01019    	FTCHD	GEL00_0	!LSB +
13008 11252 13 01018    	FTCHD	GEL00_1	!| geleidbaarheid reinwater
13009 11253 13 01017    	FTCHD	GEL00_2	!MSB +
13010 11254 14 01412    	STRD	DSP78_0	!display 78 eenheden
13011 11255 14 01413    	STRD	DSP78_1	!display 78 tientallen
13012 11256 14 01414    	STRD	DSP78_2	!display 78 honderdtallen
13013                   
13014 11257 16 00000.1  	AND	000.1
13015 11258 12 00015    	FTCHC	15
13016 11259 14 01415    	STRD	DSP78_3	!display 78 duizendtallen
13017                   
13018 11260 16 00000.1  	AND	000.1
13019 11261 13 01019    	FTCHD	GEL00_0	!LSB +
13020 11262 13 01018    	FTCHD	GEL00_1	!| geleidbaarheid reinwater
13021 11263 13 01017    	FTCHD	GEL00_2	!MSB +
13022 11264 15 02312    	COMP	STP78_0	!setpoint 78 eenheden
13023 11265 15 02313    	COMP	STP78_1	!setpoint 78 tientallen
13024 11266 15 02314    	COMP	STP78_2	!setpoint 78 honderdtallen
13025 11267 14 00375    	STRD	GEL0D00	!vergelijkingsresult.
13026                   
13027 11268 16 00375.2  	AND	GEL0B02	!F>C
13028 11269 13 02328    	FTCHD	STP82_0	!setpoint 82 eenheden
13029 11270 13 02329    	FTCHD	STP82_1	!setpoint 82 tientallen
13030 11271 13 02330    	FTCHD	STP82_2	!setpoint 82 honderdtallen
13031 11272 13 02331    	FTCHD	STP82_3	!setpoint 82 duizendtallen
13032 11273 14 01428    	STRD	DSP82_0	!display 82 eenheden
13033 11274 14 01429    	STRD	DSP82_1	!display 82 tientallen
13034 11275 14 01430    	STRD	DSP82_2	!display 82 honderdtallen
13035 11276 14 01431    	STRD	DSP82_3	!display 82 duizendtallen
13036 11277 08 00379.0  	SET0	GEL0B04	!tijdvertr. flowalarm
13037                   
13038 11278 16 00511.1  	AND	S_1SEC	!triggerpuls 1,0 sec.
13039 11279 16 00375.1  	AND	GEL0B01	!F<C
13040 11280 17 00379.0  	ANDNT	GEL0B04	!tijdvertr. flowalarm
13041 11281 06 01428    	CNTD	DSP82_0	!display 82 eenheden
13042 11282 06 01429    	CNTD	DSP82_1	!display 82 tientallen
13043 11283 06 01430    	CNTD	DSP82_2	!display 82 honderdtallen
13044 11284 06 01431    	CNTD	DSP82_3	!display 82 duizendtallen
13045 11285 10 00379.0  	STRB	GEL0B04	!tijdvertr. flowalarm
13046                   !
13047                   ! geleidb. bewaking spoelleiding
13048                   !
13049 11286 16 00000.1  	AND	000.1
13050 11287 13 01023    	FTCHD	GEL01_0	!LSB +
13051 11288 13 01022    	FTCHD	GEL01_1	!| geleidbaarheid spoelleiding
13052 11289 13 01021    	FTCHD	GEL01_2	!MSB +
13053 11290 14 01416    	STRD	DSP79_0	!display 79 eenheden
13054 11291 14 01417    	STRD	DSP79_1	!display 79 tientallen
13055 11292 14 01418    	STRD	DSP79_2	!display 79 honderdtallen
13056                   
13057 11293 16 00000.1  	AND	000.1
13058 11294 12 00015    	FTCHC	15
13059 11295 14 01419    	STRD	DSP79_3	!display 79 duizendtallen
13060                   
13061 11296 16 00000.1  	AND	000.1
13062 11297 13 01023    	FTCHD	GEL01_0	!LSB +
13063 11298 13 01022    	FTCHD	GEL01_1	!| geleidbaarheid spoelleiding
13064 11299 13 01021    	FTCHD	GEL01_2	!MSB +
13065 11300 15 02316    	COMP	STP79_0	!setpoint 79 eenheden
13066 11301 15 02317    	COMP	STP79_1	!setpoint 79 tientallen
13067 11302 15 02318    	COMP	STP79_2	!setpoint 79 honderdtallen
13068 11303 14 00376    	STRD	GEL1D00	!vergelijkingsresult.
13069                   
13070 11304 16 00376.2  	AND	GEL1B02	!F>C
13071 11305 13 02332    	FTCHD	STP83_0	!setpoint 83 eenheden
13072 11306 13 02333    	FTCHD	STP83_1	!setpoint 83 tientallen
13073 11307 13 02334    	FTCHD	STP83_2	!setpoint 83 honderdtallen
13074 11308 13 02335    	FTCHD	STP83_3	!setpoint 83 duizendtallen
13075 11309 14 01432    	STRD	DSP83_0	!display 83 eenheden
13076 11310 14 01433    	STRD	DSP83_1	!display 83 tientallen
13077 11311 14 01434    	STRD	DSP83_2	!display 83 honderdtallen
13078 11312 14 01435    	STRD	DSP83_3	!display 83 duizendtallen
13079 11313 08 00379.1  	SET0	GEL1B04	!tijdvertr. flowalarm
13080                   
13081 11314 16 00511.1  	AND	S_1SEC	!triggerpuls 1,0 sec.
13082 11315 16 00376.1  	AND	GEL1B01	!F<C
13083 11316 17 00379.1  	ANDNT	GEL1B04	!tijdvertr. flowalarm
13084 11317 06 01432    	CNTD	DSP83_0	!display 83 eenheden
13085 11318 06 01433    	CNTD	DSP83_1	!display 83 tientallen
13086 11319 06 01434    	CNTD	DSP83_2	!display 83 honderdtallen
13087 11320 06 01435    	CNTD	DSP83_3	!display 83 duizendtallen
13088 11321 10 00379.1  	STRB	GEL1B04	!tijdvertr. flowalarm
13089                   !
13090                   ! reserve
13091                   !
13092 11322 16 00000.1  	AND	000.1
13093 11323 13 01027    	FTCHD	GEL02_0	!LSB +
13094 11324 13 01026    	FTCHD	GEL02_1	!| reserve
13095 11325 13 01025    	FTCHD	GEL02_2	!MSB +
13096 11326 14 01420    	STRD	DSP80_0	!display 80 eenheden
13097 11327 14 01421    	STRD	DSP80_1	!display 80 tientallen
13098 11328 14 01422    	STRD	DSP80_2	!display 80 honderdtallen
13099                   
13100 11329 16 00000.1  	AND	000.1
13101 11330 12 00015    	FTCHC	15
13102 11331 14 01423    	STRD	DSP80_3	!display 80 duizendtallen
13103                   
13104 11332 16 00000.1  	AND	000.1
13105 11333 13 01027    	FTCHD	GEL02_0	!LSB +
13106 11334 13 01026    	FTCHD	GEL02_1	!| reserve
13107 11335 13 01025    	FTCHD	GEL02_2	!MSB +
13108 11336 15 02320    	COMP	STP80_0	!setpoint 80 eenheden
13109 11337 15 02321    	COMP	STP80_1	!setpoint 80 tientallen
13110 11338 15 02322    	COMP	STP80_2	!setpoint 80 honderdtallen
13111 11339 14 00377    	STRD	GEL2D00	!vergelijkingsresult.
13112                   
13113 11340 16 00377.2  	AND	GEL2B02	!F>C
13114 11341 13 02336    	FTCHD	STP84_0	!setpoint 84 eenheden
13115 11342 13 02337    	FTCHD	STP84_1	!setpoint 84 tientallen
13116 11343 13 02338    	FTCHD	STP84_2	!setpoint 84 honderdtallen
13117 11344 13 02339    	FTCHD	STP84_3	!setpoint 84 duizendtallen
13118 11345 14 01436    	STRD	DSP84_0	!display 84 eenheden
13119 11346 14 01437    	STRD	DSP84_1	!display 84 tientallen
13120 11347 14 01438    	STRD	DSP84_2	!display 84 honderdtallen
13121 11348 14 01439    	STRD	DSP84_3	!display 84 duizendtallen
13122 11349 08 00379.2  	SET0	GEL2B04	!tijdvertr. flowalarm
13123                   
13124 11350 16 00511.1  	AND	S_1SEC	!triggerpuls 1,0 sec.
13125 11351 16 00377.1  	AND	GEL2B01	!F<C
13126 11352 17 00379.2  	ANDNT	GEL2B04	!tijdvertr. flowalarm
13127 11353 06 01436    	CNTD	DSP84_0	!display 84 eenheden
13128 11354 06 01437    	CNTD	DSP84_1	!display 84 tientallen
13129 11355 06 01438    	CNTD	DSP84_2	!display 84 honderdtallen
13130 11356 06 01439    	CNTD	DSP84_3	!display 84 duizendtallen
13131 11357 10 00379.2  	STRB	GEL2B04	!tijdvertr. flowalarm
13132                   !
13133                   ! reserve
13134                   !
13135 11358 16 00000.1  	AND	000.1
13136 11359 13 01031    	FTCHD	GEL03_0	!LSB +
13137 11360 13 01030    	FTCHD	GEL03_1	!| reserve
13138 11361 13 01029    	FTCHD	GEL03_2	!MSB +
13139 11362 14 01424    	STRD	DSP81_0	!display 81 eenheden
13140 11363 14 01425    	STRD	DSP81_1	!display 81 tientallen
13141 11364 14 01426    	STRD	DSP81_2	!display 81 honderdtallen
13142                   
13143 11365 16 00000.1  	AND	000.1
13144 11366 12 00015    	FTCHC	15
13145 11367 14 01427    	STRD	DSP81_3	!display 81 duizendtallen
13146                   
13147 11368 16 00000.1  	AND	000.1
13148 11369 13 01031    	FTCHD	GEL03_0	!LSB +
13149 11370 13 01030    	FTCHD	GEL03_1	!| reserve
13150 11371 13 01029    	FTCHD	GEL03_2	!MSB +
13151 11372 15 02324    	COMP	STP81_0	!setpoint 81 eenheden
13152 11373 15 02325    	COMP	STP81_1	!setpoint 81 tientallen
13153 11374 15 02326    	COMP	STP81_2	!setpoint 81 honderdtallen
13154 11375 14 00378    	STRD	GEL3D00	!vergelijkingsresult.
13155                   
13156 11376 16 00378.2  	AND	GEL3B02	!F>C
13157 11377 13 02340    	FTCHD	STP85_0	!setpoint 85 eenheden
13158 11378 13 02341    	FTCHD	STP85_1	!setpoint 85 tientallen
13159 11379 13 02342    	FTCHD	STP85_2	!setpoint 85 honderdtallen
13160 11380 13 02343    	FTCHD	STP85_3	!setpoint 85 duizendtallen
13161 11381 14 01440    	STRD	DSP85_0	!display 85 eenheden
13162 11382 14 01441    	STRD	DSP85_1	!display 85 tientallen
13163 11383 14 01442    	STRD	DSP85_2	!display 85 honderdtallen
13164 11384 14 01443    	STRD	DSP85_3	!display 85 duizendtallen
13165 11385 08 00379.3  	SET0	GEL3B04	!tijdvertr. flowalarm
13166                   
13167 11386 16 00511.1  	AND	S_1SEC	!triggerpuls 1,0 sec.
13168 11387 16 00378.1  	AND	GEL3B01	!F<C
13169 11388 17 00379.3  	ANDNT	GEL3B04	!tijdvertr. flowalarm
13170 11389 06 01440    	CNTD	DSP85_0	!display 85 eenheden
13171 11390 06 01441    	CNTD	DSP85_1	!display 85 tientallen
13172 11391 06 01442    	CNTD	DSP85_2	!display 85 honderdtallen
13173 11392 06 01443    	CNTD	DSP85_3	!display 85 duizendtallen
13174 11393 10 00379.3  	STRB	GEL3B04	!tijdvertr. flowalarm
13175 11394 00          	NOP	56
13175 11395 00 
13175 11396 00 
13175 11397 00 
13175 11398 00 
13175 11399 00 
13175 11400 00 
13175 11401 00 
13175 11402 00 
13175 11403 00 
13175 11404 00 
13175 11405 00 
13175 11406 00 
13175 11407 00 
13175 11408 00 
13175 11409 00 
13175 11410 00 
13175 11411 00 
13175 11412 00 
13175 11413 00 
13175 11414 00 
13175 11415 00 
13175 11416 00 
13175 11417 00 
13175 11418 00 
13175 11419 00 
13175 11420 00 
13175 11421 00 
13175 11422 00 
13175 11423 00 
13175 11424 00 
13175 11425 00 
13175 11426 00 
13175 11427 00 
13175 11428 00 
13175 11429 00 
13175 11430 00 
13175 11431 00 
13175 11432 00 
13175 11433 00 
13175 11434 00 
13175 11435 00 
13175 11436 00 
13175 11437 00 
13175 11438 00 
13175 11439 00 
13175 11440 00 
13175 11441 00 
13175 11442 00 
13175 11443 00 
13175 11444 00 
13175 11445 00 
13175 11446 00 
13175 11447 00 
13175 11448 00 
13175 11449 00 
13176 11450 16 00000.1  	AND	000.1
13177 11451 13 00110    	FTCHD	DWS2_1	!eenheid DWS
13178 11452 13 00111    	FTCHD	DWS2_2	!tiental DWS
13179 11453 15 01500    	COMP	1500	!constante 0
13180 11454 15 01500    	COMP	1500	!constante 0
13181 11455 10 00003.0  	STRB	RESULT1	!F=C
13182                   
13183 11456 16 00003.0  	AND	RESULT1	!F=C
13184 11457 30 01899    	JFRF	L13356
13185                   
13186 11458 16 00000.1  	AND	000.1
13187 11459 13 00104    	FTCHD	DWS1_1	!eenheid DWS
13188 11460 13 00105    	FTCHD	DWS1_2	!tiental DWS
13189 11461 15 01500    	COMP	1500	!constante 0
13190 11462 15 01500    	COMP	1500	!constante 0
13191 11463 10 00003.0  	STRB	RESULT1	!F=C
13192                   
13193 11464 16 00003.0  	AND	RESULT1	!F=C
13194 11465 30 00012    	JFRF	L11477
13195                   
13196 11466 16 00003.0  	AND	RESULT1	!F=C
13197 11467 13 02000    	FTCHD	STP00_0	!setpoint 00 eenheden
13198 11468 13 02001    	FTCHD	STP00_1	!setpoint 00 tientallen
13199 11469 13 02002    	FTCHD	STP00_2	!setpoint 00 honderdtallen
13200 11470 13 02003    	FTCHD	STP00_3	!setpoint 00 duizendtallen
13201 11471 14 00160    	STRD	DISPL_0	!display aansturing eenh.
13202 11472 14 00161    	STRD	DISPL_1	!display aansturing tiental.
13203 11473 14 00162    	STRD	DISPL_2	!display aansturing honderdt.
13204 11474 14 00163    	STRD	DISPL_3	!display aansturing duizendt.
13205                   
13206 11475 17 00000.1  	ANDNT	000.1
13207 11476 30 01880    	JFRF	L13356
13208                   
13209 11477 16 00000.1  L11477	AND	000.1
13210 11478 13 00104    	FTCHD	DWS1_1	!eenheid DWS
13211 11479 13 00105    	FTCHD	DWS1_2	!tiental DWS
13212 11480 15 01501    	COMP	1501	!constante 1
13213 11481 15 01500    	COMP	1500	!constante 0
13214 11482 10 00003.0  	STRB	RESULT1	!F=C
13215                   
13216 11483 16 00003.0  	AND	RESULT1	!F=C
13217 11484 30 00012    	JFRF	L11496
13218                   
13219 11485 16 00003.0  	AND	RESULT1	!F=C
13220 11486 13 02004    	FTCHD	STP01_0	!setpoint 01 eenheden
13221 11487 13 02005    	FTCHD	STP01_1	!setpoint 01 tientallen
13222 11488 13 02006    	FTCHD	STP01_2	!setpoint 01 honderdtallen
13223 11489 13 02007    	FTCHD	STP01_3	!setpoint 01 duizendtallen
13224 11490 14 00160    	STRD	DISPL_0	!display aansturing eenh.
13225 11491 14 00161    	STRD	DISPL_1	!display aansturing tiental.
13226 11492 14 00162    	STRD	DISPL_2	!display aansturing honderdt.
13227 11493 14 00163    	STRD	DISPL_3	!display aansturing duizendt.
13228                   
13229 11494 17 00000.1  	ANDNT	000.1
13230 11495 30 01861    	JFRF	L13356
13231                   
13232 11496 16 00000.1  L11496	AND	000.1
13233 11497 13 00104    	FTCHD	DWS1_1	!eenheid DWS
13234 11498 13 00105    	FTCHD	DWS1_2	!tiental DWS
13235 11499 15 01502    	COMP	1502	!constante 2
13236 11500 15 01500    	COMP	1500	!constante 0
13237 11501 10 00003.0  	STRB	RESULT1	!F=C
13238                   
13239 11502 16 00003.0  	AND	RESULT1	!F=C
13240 11503 30 00012    	JFRF	L11515
13241                   
13242 11504 16 00003.0  	AND	RESULT1	!F=C
13243 11505 13 02008    	FTCHD	STP02_0	!setpoint 02 eenheden
13244 11506 13 02009    	FTCHD	STP02_1	!setpoint 02 tientallen
13245 11507 13 02010    	FTCHD	STP02_2	!setpoint 02 honderdtallen
13246 11508 13 02011    	FTCHD	STP02_3	!setpoint 02 duizendtallen
13247 11509 14 00160    	STRD	DISPL_0	!display aansturing eenh.
13248 11510 14 00161    	STRD	DISPL_1	!display aansturing tiental.
13249 11511 14 00162    	STRD	DISPL_2	!display aansturing honderdt.
13250 11512 14 00163    	STRD	DISPL_3	!display aansturing duizendt.
13251                   
13252 11513 17 00000.1  	ANDNT	000.1
13253 11514 30 01842    	JFRF	L13356
13254                   
13255 11515 16 00000.1  L11515	AND	000.1
13256 11516 13 00104    	FTCHD	DWS1_1	!eenheid DWS
13257 11517 13 00105    	FTCHD	DWS1_2	!tiental DWS
13258 11518 15 01503    	COMP	1503	!constante 3
13259 11519 15 01500    	COMP	1500	!constante 0
13260 11520 10 00003.0  	STRB	RESULT1	!F=C
13261                   
13262 11521 16 00003.0  	AND	RESULT1	!F=C
13263 11522 30 00012    	JFRF	L11534
13264                   
13265 11523 16 00003.0  	AND	RESULT1	!F=C
13266 11524 13 02012    	FTCHD	STP03_0	!setpoint 03 eenheden
13267 11525 13 02013    	FTCHD	STP03_1	!setpoint 03 tientallen
13268 11526 13 02014    	FTCHD	STP03_2	!setpoint 03 honderdtallen
13269 11527 13 02015    	FTCHD	STP03_3	!setpoint 03 duizendtallen
13270 11528 14 00160    	STRD	DISPL_0	!display aansturing eenh.
13271 11529 14 00161    	STRD	DISPL_1	!display aansturing tiental.
13272 11530 14 00162    	STRD	DISPL_2	!display aansturing honderdt.
13273 11531 14 00163    	STRD	DISPL_3	!display aansturing duizendt.
13274                   
13275 11532 17 00000.1  	ANDNT	000.1
13276 11533 30 01823    	JFRF	L13356
13277                   
13278 11534 16 00000.1  L11534	AND	000.1
13279 11535 13 00104    	FTCHD	DWS1_1	!eenheid DWS
13280 11536 13 00105    	FTCHD	DWS1_2	!tiental DWS
13281 11537 15 01504    	COMP	1504	!constante 4
13282 11538 15 01500    	COMP	1500	!constante 0
13283 11539 10 00003.0  	STRB	RESULT1	!F=C
13284                   
13285 11540 16 00003.0  	AND	RESULT1	!F=C
13286 11541 30 00012    	JFRF	L11553
13287                   
13288 11542 16 00003.0  	AND	RESULT1	!F=C
13289 11543 13 02016    	FTCHD	STP04_0	!setpoint 04 eenheden
13290 11544 13 02017    	FTCHD	STP04_1	!setpoint 04 tientallen
13291 11545 13 02018    	FTCHD	STP04_2	!setpoint 04 honderdtallen
13292 11546 13 02019    	FTCHD	STP04_3	!setpoint 04 duizendtallen
13293 11547 14 00160    	STRD	DISPL_0	!display aansturing eenh.
13294 11548 14 00161    	STRD	DISPL_1	!display aansturing tiental.
13295 11549 14 00162    	STRD	DISPL_2	!display aansturing honderdt.
13296 11550 14 00163    	STRD	DISPL_3	!display aansturing duizendt.
13297                   
13298 11551 17 00000.1  	ANDNT	000.1
13299 11552 30 01804    	JFRF	L13356
13300                   
13301 11553 16 00000.1  L11553	AND	000.1
13302 11554 13 00104    	FTCHD	DWS1_1	!eenheid DWS
13303 11555 13 00105    	FTCHD	DWS1_2	!tiental DWS
13304 11556 15 01505    	COMP	1505	!constante 5
13305 11557 15 01500    	COMP	1500	!constante 0
13306 11558 10 00003.0  	STRB	RESULT1	!F=C
13307                   
13308 11559 16 00003.0  	AND	RESULT1	!F=C
13309 11560 30 00012    	JFRF	L11572
13310                   
13311 11561 16 00003.0  	AND	RESULT1	!F=C
13312 11562 13 02020    	FTCHD	STP05_0	!setpoint 05 eenheden
13313 11563 13 02021    	FTCHD	STP05_1	!setpoint 05 tientallen
13314 11564 13 02022    	FTCHD	STP05_2	!setpoint 05 honderdtallen
13315 11565 13 02023    	FTCHD	STP05_3	!setpoint 05 duizendtallen
13316 11566 14 00160    	STRD	DISPL_0	!display aansturing eenh.
13317 11567 14 00161    	STRD	DISPL_1	!display aansturing tiental.
13318 11568 14 00162    	STRD	DISPL_2	!display aansturing honderdt.
13319 11569 14 00163    	STRD	DISPL_3	!display aansturing duizendt.
13320                   
13321 11570 17 00000.1  	ANDNT	000.1
13322 11571 30 01785    	JFRF	L13356
13323                   
13324 11572 16 00000.1  L11572	AND	000.1
13325 11573 13 00104    	FTCHD	DWS1_1	!eenheid DWS
13326 11574 13 00105    	FTCHD	DWS1_2	!tiental DWS
13327 11575 15 01506    	COMP	1506	!constante 6
13328 11576 15 01500    	COMP	1500	!constante 0
13329 11577 10 00003.0  	STRB	RESULT1	!F=C
13330                   
13331 11578 16 00003.0  	AND	RESULT1	!F=C
13332 11579 30 00012    	JFRF	L11591
13333                   
13334 11580 16 00003.0  	AND	RESULT1	!F=C
13335 11581 13 02024    	FTCHD	STP06_0	!setpoint 06 eenheden
13336 11582 13 02025    	FTCHD	STP06_1	!setpoint 06 tientallen
13337 11583 13 02026    	FTCHD	STP06_2	!setpoint 06 honderdtallen
13338 11584 13 02027    	FTCHD	STP06_3	!setpoint 06 duizendtallen
13339 11585 14 00160    	STRD	DISPL_0	!display aansturing eenh.
13340 11586 14 00161    	STRD	DISPL_1	!display aansturing tiental.
13341 11587 14 00162    	STRD	DISPL_2	!display aansturing honderdt.
13342 11588 14 00163    	STRD	DISPL_3	!display aansturing duizendt.
13343                   
13344 11589 17 00000.1  	ANDNT	000.1
13345 11590 30 01766    	JFRF	L13356
13346                   
13347 11591 16 00000.1  L11591	AND	000.1
13348 11592 13 00104    	FTCHD	DWS1_1	!eenheid DWS
13349 11593 13 00105    	FTCHD	DWS1_2	!tiental DWS
13350 11594 15 01507    	COMP	1507	!constante 7
13351 11595 15 01500    	COMP	1500	!constante 0
13352 11596 10 00003.0  	STRB	RESULT1	!F=C
13353                   
13354 11597 16 00003.0  	AND	RESULT1	!F=C
13355 11598 30 00012    	JFRF	L11610
13356                   
13357 11599 16 00003.0  	AND	RESULT1	!F=C
13358 11600 13 02028    	FTCHD	STP07_0	!setpoint 07 eenheden
13359 11601 13 02029    	FTCHD	STP07_1	!setpoint 07 tientallen
13360 11602 13 02030    	FTCHD	STP07_2	!setpoint 07 honderdtallen
13361 11603 13 02031    	FTCHD	STP07_3	!setpoint 07 duizendtallen
13362 11604 14 00160    	STRD	DISPL_0	!display aansturing eenh.
13363 11605 14 00161    	STRD	DISPL_1	!display aansturing tiental.
13364 11606 14 00162    	STRD	DISPL_2	!display aansturing honderdt.
13365 11607 14 00163    	STRD	DISPL_3	!display aansturing duizendt.
13366                   
13367 11608 17 00000.1  	ANDNT	000.1
13368 11609 30 01747    	JFRF	L13356
13369                   
13370 11610 16 00000.1  L11610	AND	000.1
13371 11611 13 00104    	FTCHD	DWS1_1	!eenheid DWS
13372 11612 13 00105    	FTCHD	DWS1_2	!tiental DWS
13373 11613 15 01508    	COMP	1508	!constante 8
13374 11614 15 01500    	COMP	1500	!constante 0
13375 11615 10 00003.0  	STRB	RESULT1	!F=C
13376                   
13377 11616 16 00003.0  	AND	RESULT1	!F=C
13378 11617 30 00012    	JFRF	L11629
13379                   
13380 11618 16 00003.0  	AND	RESULT1	!F=C
13381 11619 13 02032    	FTCHD	STP08_0	!setpoint 08 eenheden
13382 11620 13 02033    	FTCHD	STP08_1	!setpoint 08 tientallen
13383 11621 13 02034    	FTCHD	STP08_2	!setpoint 08 honderdtallen
13384 11622 13 02035    	FTCHD	STP08_3	!setpoint 08 duizendtallen
13385 11623 14 00160    	STRD	DISPL_0	!display aansturing eenh.
13386 11624 14 00161    	STRD	DISPL_1	!display aansturing tiental.
13387 11625 14 00162    	STRD	DISPL_2	!display aansturing honderdt.
13388 11626 14 00163    	STRD	DISPL_3	!display aansturing duizendt.
13389                   
13390 11627 17 00000.1  	ANDNT	000.1
13391 11628 30 01728    	JFRF	L13356
13392                   
13393 11629 16 00000.1  L11629	AND	000.1
13394 11630 13 00104    	FTCHD	DWS1_1	!eenheid DWS
13395 11631 13 00105    	FTCHD	DWS1_2	!tiental DWS
13396 11632 15 01509    	COMP	1509	!constante 9
13397 11633 15 01500    	COMP	1500	!constante 0
13398 11634 10 00003.0  	STRB	RESULT1	!F=C
13399                   
13400 11635 16 00003.0  	AND	RESULT1	!F=C
13401 11636 30 00012    	JFRF	L11648
13402                   
13403 11637 16 00003.0  	AND	RESULT1	!F=C
13404 11638 13 02036    	FTCHD	STP09_0	!setpoint 09 eenheden
13405 11639 13 02037    	FTCHD	STP09_1	!setpoint 09 tientallen
13406 11640 13 02038    	FTCHD	STP09_2	!setpoint 09 honderdtallen
13407 11641 13 02039    	FTCHD	STP09_3	!setpoint 09 duizendtallen
13408 11642 14 00160    	STRD	DISPL_0	!display aansturing eenh.
13409 11643 14 00161    	STRD	DISPL_1	!display aansturing tiental.
13410 11644 14 00162    	STRD	DISPL_2	!display aansturing honderdt.
13411 11645 14 00163    	STRD	DISPL_3	!display aansturing duizendt.
13412                   
13413 11646 17 00000.1  	ANDNT	000.1
13414 11647 30 01709    	JFRF	L13356
13415                   
13416 11648 16 00000.1  L11648	AND	000.1
13417 11649 13 00104    	FTCHD	DWS1_1	!eenheid DWS
13418 11650 13 00105    	FTCHD	DWS1_2	!tiental DWS
13419 11651 15 01500    	COMP	1500	!constante 0
13420 11652 15 01501    	COMP	1501	!constante 1
13421 11653 10 00003.0  	STRB	RESULT1	!F=C
13422                   
13423 11654 16 00003.0  	AND	RESULT1	!F=C
13424 11655 30 00012    	JFRF	L11667
13425                   
13426 11656 16 00003.0  	AND	RESULT1	!F=C
13427 11657 13 02040    	FTCHD	STP10_0	!setpoint 10 eenheden
13428 11658 13 02041    	FTCHD	STP10_1	!setpoint 10 tientallen
13429 11659 13 02042    	FTCHD	STP10_2	!setpoint 10 honderdtallen
13430 11660 13 02043    	FTCHD	STP10_3	!setpoint 10 duizendtallen
13431 11661 14 00160    	STRD	DISPL_0	!display aansturing eenh.
13432 11662 14 00161    	STRD	DISPL_1	!display aansturing tiental.
13433 11663 14 00162    	STRD	DISPL_2	!display aansturing honderdt.
13434 11664 14 00163    	STRD	DISPL_3	!display aansturing duizendt.
13435                   
13436 11665 17 00000.1  	ANDNT	000.1
13437 11666 30 01690    	JFRF	L13356
13438                   
13439 11667 16 00000.1  L11667	AND	000.1
13440 11668 13 00104    	FTCHD	DWS1_1	!eenheid DWS
13441 11669 13 00105    	FTCHD	DWS1_2	!tiental DWS
13442 11670 15 01501    	COMP	1501	!constante 1
13443 11671 15 01501    	COMP	1501	!constante 1
13444 11672 10 00003.0  	STRB	RESULT1	!F=C
13445                   
13446 11673 16 00003.0  	AND	RESULT1	!F=C
13447 11674 30 00012    	JFRF	L11686
13448                   
13449 11675 16 00003.0  	AND	RESULT1	!F=C
13450 11676 13 02044    	FTCHD	STP11_0	!setpoint 11 eenheden
13451 11677 13 02045    	FTCHD	STP11_1	!setpoint 11 tientallen
13452 11678 13 02046    	FTCHD	STP11_2	!setpoint 11 honderdtallen
13453 11679 13 02047    	FTCHD	STP11_3	!setpoint 11 duizendtallen
13454 11680 14 00160    	STRD	DISPL_0	!display aansturing eenh.
13455 11681 14 00161    	STRD	DISPL_1	!display aansturing tiental.
13456 11682 14 00162    	STRD	DISPL_2	!display aansturing honderdt.
13457 11683 14 00163    	STRD	DISPL_3	!display aansturing duizendt.
13458                   
13459 11684 17 00000.1  	ANDNT	000.1
13460 11685 30 01671    	JFRF	L13356
13461                   
13462 11686 16 00000.1  L11686	AND	000.1
13463 11687 13 00104    	FTCHD	DWS1_1	!eenheid DWS
13464 11688 13 00105    	FTCHD	DWS1_2	!tiental DWS
13465 11689 15 01502    	COMP	1502	!constante 2
13466 11690 15 01501    	COMP	1501	!constante 1
13467 11691 10 00003.0  	STRB	RESULT1	!F=C
13468                   
13469 11692 16 00003.0  	AND	RESULT1	!F=C
13470 11693 30 00012    	JFRF	L11705
13471                   
13472 11694 16 00003.0  	AND	RESULT1	!F=C
13473 11695 13 02048    	FTCHD	STP12_0	!setpoint 12 eenheden
13474 11696 13 02049    	FTCHD	STP12_1	!setpoint 12 tientallen
13475 11697 13 02050    	FTCHD	STP12_2	!setpoint 12 honderdtallen
13476 11698 13 02051    	FTCHD	STP12_3	!setpoint 12 duizendtallen
13477 11699 14 00160    	STRD	DISPL_0	!display aansturing eenh.
13478 11700 14 00161    	STRD	DISPL_1	!display aansturing tiental.
13479 11701 14 00162    	STRD	DISPL_2	!display aansturing honderdt.
13480 11702 14 00163    	STRD	DISPL_3	!display aansturing duizendt.
13481                   
13482 11703 17 00000.1  	ANDNT	000.1
13483 11704 30 01652    	JFRF	L13356
13484                   
13485 11705 16 00000.1  L11705	AND	000.1
13486 11706 13 00104    	FTCHD	DWS1_1	!eenheid DWS
13487 11707 13 00105    	FTCHD	DWS1_2	!tiental DWS
13488 11708 15 01503    	COMP	1503	!constante 3
13489 11709 15 01501    	COMP	1501	!constante 1
13490 11710 10 00003.0  	STRB	RESULT1	!F=C
13491                   
13492 11711 16 00003.0  	AND	RESULT1	!F=C
13493 11712 30 00012    	JFRF	L11724
13494                   
13495 11713 16 00003.0  	AND	RESULT1	!F=C
13496 11714 13 02052    	FTCHD	STP13_0	!setpoint 13 eenheden
13497 11715 13 02053    	FTCHD	STP13_1	!setpoint 13 tientallen
13498 11716 13 02054    	FTCHD	STP13_2	!setpoint 13 honderdtallen
13499 11717 13 02055    	FTCHD	STP13_3	!setpoint 13 duizendtallen
13500 11718 14 00160    	STRD	DISPL_0	!display aansturing eenh.
13501 11719 14 00161    	STRD	DISPL_1	!display aansturing tiental.
13502 11720 14 00162    	STRD	DISPL_2	!display aansturing honderdt.
13503 11721 14 00163    	STRD	DISPL_3	!display aansturing duizendt.
13504                   
13505 11722 17 00000.1  	ANDNT	000.1
13506 11723 30 01633    	JFRF	L13356
13507                   
13508 11724 16 00000.1  L11724	AND	000.1
13509 11725 13 00104    	FTCHD	DWS1_1	!eenheid DWS
13510 11726 13 00105    	FTCHD	DWS1_2	!tiental DWS
13511 11727 15 01504    	COMP	1504	!constante 4
13512 11728 15 01501    	COMP	1501	!constante 1
13513 11729 10 00003.0  	STRB	RESULT1	!F=C
13514                   
13515 11730 16 00003.0  	AND	RESULT1	!F=C
13516 11731 30 00012    	JFRF	L11743
13517                   
13518 11732 16 00003.0  	AND	RESULT1	!F=C
13519 11733 13 02056    	FTCHD	STP14_0	!setpoint 14 eenheden
13520 11734 13 02057    	FTCHD	STP14_1	!setpoint 14 tientallen
13521 11735 13 02058    	FTCHD	STP14_2	!setpoint 14 honderdtallen
13522 11736 13 02059    	FTCHD	STP14_3	!setpoint 14 duizendtallen
13523 11737 14 00160    	STRD	DISPL_0	!display aansturing eenh.
13524 11738 14 00161    	STRD	DISPL_1	!display aansturing tiental.
13525 11739 14 00162    	STRD	DISPL_2	!display aansturing honderdt.
13526 11740 14 00163    	STRD	DISPL_3	!display aansturing duizendt.
13527                   
13528 11741 17 00000.1  	ANDNT	000.1
13529 11742 30 01614    	JFRF	L13356
13530                   
13531 11743 16 00000.1  L11743	AND	000.1
13532 11744 13 00104    	FTCHD	DWS1_1	!eenheid DWS
13533 11745 13 00105    	FTCHD	DWS1_2	!tiental DWS
13534 11746 15 01505    	COMP	1505	!constante 5
13535 11747 15 01501    	COMP	1501	!constante 1
13536 11748 10 00003.0  	STRB	RESULT1	!F=C
13537                   
13538 11749 16 00003.0  	AND	RESULT1	!F=C
13539 11750 30 00012    	JFRF	L11762
13540                   
13541 11751 16 00003.0  	AND	RESULT1	!F=C
13542 11752 13 02060    	FTCHD	STP15_0	!setpoint 15 eenheden
13543 11753 13 02061    	FTCHD	STP15_1	!setpoint 15 tientallen
13544 11754 13 02062    	FTCHD	STP15_2	!setpoint 15 honderdtallen
13545 11755 13 02063    	FTCHD	STP15_3	!setpoint 15 duizendtallen
13546 11756 14 00160    	STRD	DISPL_0	!display aansturing eenh.
13547 11757 14 00161    	STRD	DISPL_1	!display aansturing tiental.
13548 11758 14 00162    	STRD	DISPL_2	!display aansturing honderdt.
13549 11759 14 00163    	STRD	DISPL_3	!display aansturing duizendt.
13550                   
13551 11760 17 00000.1  	ANDNT	000.1
13552 11761 30 01595    	JFRF	L13356
13553                   
13554 11762 16 00000.1  L11762	AND	000.1
13555 11763 13 00104    	FTCHD	DWS1_1	!eenheid DWS
13556 11764 13 00105    	FTCHD	DWS1_2	!tiental DWS
13557 11765 15 01506    	COMP	1506	!constante 6
13558 11766 15 01501    	COMP	1501	!constante 1
13559 11767 10 00003.0  	STRB	RESULT1	!F=C
13560                   
13561 11768 16 00003.0  	AND	RESULT1	!F=C
13562 11769 30 00012    	JFRF	L11781
13563                   
13564 11770 16 00003.0  	AND	RESULT1	!F=C
13565 11771 13 02064    	FTCHD	STP16_0	!setpoint 16 eenheden
13566 11772 13 02065    	FTCHD	STP16_1	!setpoint 16 tientallen
13567 11773 13 02066    	FTCHD	STP16_2	!setpoint 16 honderdtallen
13568 11774 13 02067    	FTCHD	STP16_3	!setpoint 16 duizendtallen
13569 11775 14 00160    	STRD	DISPL_0	!display aansturing eenh.
13570 11776 14 00161    	STRD	DISPL_1	!display aansturing tiental.
13571 11777 14 00162    	STRD	DISPL_2	!display aansturing honderdt.
13572 11778 14 00163    	STRD	DISPL_3	!display aansturing duizendt.
13573                   
13574 11779 17 00000.1  	ANDNT	000.1
13575 11780 30 01576    	JFRF	L13356
13576                   
13577 11781 16 00000.1  L11781	AND	000.1
13578 11782 13 00104    	FTCHD	DWS1_1	!eenheid DWS
13579 11783 13 00105    	FTCHD	DWS1_2	!tiental DWS
13580 11784 15 01507    	COMP	1507	!constante 7
13581 11785 15 01501    	COMP	1501	!constante 1
13582 11786 10 00003.0  	STRB	RESULT1	!F=C
13583                   
13584 11787 16 00003.0  	AND	RESULT1	!F=C
13585 11788 30 00012    	JFRF	L11800
13586                   
13587 11789 16 00003.0  	AND	RESULT1	!F=C
13588 11790 13 02068    	FTCHD	STP17_0	!setpoint 17 eenheden
13589 11791 13 02069    	FTCHD	STP17_1	!setpoint 17 tientallen
13590 11792 13 02070    	FTCHD	STP17_2	!setpoint 17 honderdtallen
13591 11793 13 02071    	FTCHD	STP17_3	!setpoint 17 duizendtallen
13592 11794 14 00160    	STRD	DISPL_0	!display aansturing eenh.
13593 11795 14 00161    	STRD	DISPL_1	!display aansturing tiental.
13594 11796 14 00162    	STRD	DISPL_2	!display aansturing honderdt.
13595 11797 14 00163    	STRD	DISPL_3	!display aansturing duizendt.
13596                   
13597 11798 17 00000.1  	ANDNT	000.1
13598 11799 30 01557    	JFRF	L13356
13599                   
13600 11800 16 00000.1  L11800	AND	000.1
13601 11801 13 00104    	FTCHD	DWS1_1	!eenheid DWS
13602 11802 13 00105    	FTCHD	DWS1_2	!tiental DWS
13603 11803 15 01508    	COMP	1508	!constante 8
13604 11804 15 01501    	COMP	1501	!constante 1
13605 11805 10 00003.0  	STRB	RESULT1	!F=C
13606                   
13607 11806 16 00003.0  	AND	RESULT1	!F=C
13608 11807 30 00012    	JFRF	L11819
13609                   
13610 11808 16 00003.0  	AND	RESULT1	!F=C
13611 11809 13 02072    	FTCHD	STP18_0	!setpoint 18 eenheden
13612 11810 13 02073    	FTCHD	STP18_1	!setpoint 18 tientallen
13613 11811 13 02074    	FTCHD	STP18_2	!setpoint 18 honderdtallen
13614 11812 13 02075    	FTCHD	STP18_3	!setpoint 18 duizendtallen
13615 11813 14 00160    	STRD	DISPL_0	!display aansturing eenh.
13616 11814 14 00161    	STRD	DISPL_1	!display aansturing tiental.
13617 11815 14 00162    	STRD	DISPL_2	!display aansturing honderdt.
13618 11816 14 00163    	STRD	DISPL_3	!display aansturing duizendt.
13619                   
13620 11817 17 00000.1  	ANDNT	000.1
13621 11818 30 01538    	JFRF	L13356
13622                   
13623 11819 16 00000.1  L11819	AND	000.1
13624 11820 13 00104    	FTCHD	DWS1_1	!eenheid DWS
13625 11821 13 00105    	FTCHD	DWS1_2	!tiental DWS
13626 11822 15 01509    	COMP	1509	!constante 9
13627 11823 15 01501    	COMP	1501	!constante 1
13628 11824 10 00003.0  	STRB	RESULT1	!F=C
13629                   
13630 11825 16 00003.0  	AND	RESULT1	!F=C
13631 11826 30 00012    	JFRF	L11838
13632                   
13633 11827 16 00003.0  	AND	RESULT1	!F=C
13634 11828 13 02076    	FTCHD	STP19_0	!setpoint 19 eenheden
13635 11829 13 02077    	FTCHD	STP19_1	!setpoint 19 tientallen
13636 11830 13 02078    	FTCHD	STP19_2	!setpoint 19 honderdtallen
13637 11831 13 02079    	FTCHD	STP19_3	!setpoint 19 duizendtallen
13638 11832 14 00160    	STRD	DISPL_0	!display aansturing eenh.
13639 11833 14 00161    	STRD	DISPL_1	!display aansturing tiental.
13640 11834 14 00162    	STRD	DISPL_2	!display aansturing honderdt.
13641 11835 14 00163    	STRD	DISPL_3	!display aansturing duizendt.
13642                   
13643 11836 17 00000.1  	ANDNT	000.1
13644 11837 30 01519    	JFRF	L13356
13645                   
13646 11838 16 00000.1  L11838	AND	000.1
13647 11839 13 00104    	FTCHD	DWS1_1	!eenheid DWS
13648 11840 13 00105    	FTCHD	DWS1_2	!tiental DWS
13649 11841 15 01500    	COMP	1500	!constante 0
13650 11842 15 01502    	COMP	1502	!constante 2
13651 11843 10 00003.0  	STRB	RESULT1	!F=C
13652                   
13653 11844 16 00003.0  	AND	RESULT1	!F=C
13654 11845 30 00012    	JFRF	L11857
13655                   
13656 11846 16 00003.0  	AND	RESULT1	!F=C
13657 11847 13 02080    	FTCHD	STP20_0	!setpoint 20 eenheden
13658 11848 13 02081    	FTCHD	STP20_1	!setpoint 20 tientallen
13659 11849 13 02082    	FTCHD	STP20_2	!setpoint 20 honderdtallen
13660 11850 13 02083    	FTCHD	STP20_3	!setpoint 20 duizendtallen
13661 11851 14 00160    	STRD	DISPL_0	!display aansturing eenh.
13662 11852 14 00161    	STRD	DISPL_1	!display aansturing tiental.
13663 11853 14 00162    	STRD	DISPL_2	!display aansturing honderdt.
13664 11854 14 00163    	STRD	DISPL_3	!display aansturing duizendt.
13665                   
13666 11855 17 00000.1  	ANDNT	000.1
13667 11856 30 01500    	JFRF	L13356
13668                   
13669 11857 16 00000.1  L11857	AND	000.1
13670 11858 13 00104    	FTCHD	DWS1_1	!eenheid DWS
13671 11859 13 00105    	FTCHD	DWS1_2	!tiental DWS
13672 11860 15 01501    	COMP	1501	!constante 1
13673 11861 15 01502    	COMP	1502	!constante 2
13674 11862 10 00003.0  	STRB	RESULT1	!F=C
13675                   
13676 11863 16 00003.0  	AND	RESULT1	!F=C
13677 11864 30 00012    	JFRF	L11876
13678                   
13679 11865 16 00003.0  	AND	RESULT1	!F=C
13680 11866 13 02084    	FTCHD	STP21_0	!setpoint 21 eenheden
13681 11867 13 02085    	FTCHD	STP21_1	!setpoint 21 tientallen
13682 11868 13 02086    	FTCHD	STP21_2	!setpoint 21 honderdtallen
13683 11869 13 02087    	FTCHD	STP21_3	!setpoint 21 duizendtallen
13684 11870 14 00160    	STRD	DISPL_0	!display aansturing eenh.
13685 11871 14 00161    	STRD	DISPL_1	!display aansturing tiental.
13686 11872 14 00162    	STRD	DISPL_2	!display aansturing honderdt.
13687 11873 14 00163    	STRD	DISPL_3	!display aansturing duizendt.
13688                   
13689 11874 17 00000.1  	ANDNT	000.1
13690 11875 30 01481    	JFRF	L13356
13691                   
13692 11876 16 00000.1  L11876	AND	000.1
13693 11877 13 00104    	FTCHD	DWS1_1	!eenheid DWS
13694 11878 13 00105    	FTCHD	DWS1_2	!tiental DWS
13695 11879 15 01502    	COMP	1502	!constante 2
13696 11880 15 01502    	COMP	1502	!constante 2
13697 11881 10 00003.0  	STRB	RESULT1	!F=C
13698                   
13699 11882 16 00003.0  	AND	RESULT1	!F=C
13700 11883 30 00012    	JFRF	L11895
13701                   
13702 11884 16 00003.0  	AND	RESULT1	!F=C
13703 11885 13 02088    	FTCHD	STP22_0	!setpoint 22 eenheden
13704 11886 13 02089    	FTCHD	STP22_1	!setpoint 22 tientallen
13705 11887 13 02090    	FTCHD	STP22_2	!setpoint 22 honderdtallen
13706 11888 13 02091    	FTCHD	STP22_3	!setpoint 22 duizendtallen
13707 11889 14 00160    	STRD	DISPL_0	!display aansturing eenh.
13708 11890 14 00161    	STRD	DISPL_1	!display aansturing tiental.
13709 11891 14 00162    	STRD	DISPL_2	!display aansturing honderdt.
13710 11892 14 00163    	STRD	DISPL_3	!display aansturing duizendt.
13711                   
13712 11893 17 00000.1  	ANDNT	000.1
13713 11894 30 01462    	JFRF	L13356
13714                   
13715 11895 16 00000.1  L11895	AND	000.1
13716 11896 13 00104    	FTCHD	DWS1_1	!eenheid DWS
13717 11897 13 00105    	FTCHD	DWS1_2	!tiental DWS
13718 11898 15 01503    	COMP	1503	!constante 3
13719 11899 15 01502    	COMP	1502	!constante 2
13720 11900 10 00003.0  	STRB	RESULT1	!F=C
13721                   
13722 11901 16 00003.0  	AND	RESULT1	!F=C
13723 11902 30 00012    	JFRF	L11914
13724                   
13725 11903 16 00003.0  	AND	RESULT1	!F=C
13726 11904 13 02092    	FTCHD	STP23_0	!setpoint 23 eenheden
13727 11905 13 02093    	FTCHD	STP23_1	!setpoint 23 tientallen
13728 11906 13 02094    	FTCHD	STP23_2	!setpoint 23 honderdtallen
13729 11907 13 02095    	FTCHD	STP23_3	!setpoint 23 duizendtallen
13730 11908 14 00160    	STRD	DISPL_0	!display aansturing eenh.
13731 11909 14 00161    	STRD	DISPL_1	!display aansturing tiental.
13732 11910 14 00162    	STRD	DISPL_2	!display aansturing honderdt.
13733 11911 14 00163    	STRD	DISPL_3	!display aansturing duizendt.
13734                   
13735 11912 17 00000.1  	ANDNT	000.1
13736 11913 30 01443    	JFRF	L13356
13737                   
13738 11914 16 00000.1  L11914	AND	000.1
13739 11915 13 00104    	FTCHD	DWS1_1	!eenheid DWS
13740 11916 13 00105    	FTCHD	DWS1_2	!tiental DWS
13741 11917 15 01504    	COMP	1504	!constante 4
13742 11918 15 01502    	COMP	1502	!constante 2
13743 11919 10 00003.0  	STRB	RESULT1	!F=C
13744                   
13745 11920 16 00003.0  	AND	RESULT1	!F=C
13746 11921 30 00012    	JFRF	L11933
13747                   
13748 11922 16 00003.0  	AND	RESULT1	!F=C
13749 11923 13 02096    	FTCHD	STP24_0	!setpoint 24 eenheden
13750 11924 13 02097    	FTCHD	STP24_1	!setpoint 24 tientallen
13751 11925 13 02098    	FTCHD	STP24_2	!setpoint 24 honderdtallen
13752 11926 13 02099    	FTCHD	STP24_3	!setpoint 24 duizendtallen
13753 11927 14 00160    	STRD	DISPL_0	!display aansturing eenh.
13754 11928 14 00161    	STRD	DISPL_1	!display aansturing tiental.
13755 11929 14 00162    	STRD	DISPL_2	!display aansturing honderdt.
13756 11930 14 00163    	STRD	DISPL_3	!display aansturing duizendt.
13757                   
13758 11931 17 00000.1  	ANDNT	000.1
13759 11932 30 01424    	JFRF	L13356
13760                   
13761 11933 16 00000.1  L11933	AND	000.1
13762 11934 13 00104    	FTCHD	DWS1_1	!eenheid DWS
13763 11935 13 00105    	FTCHD	DWS1_2	!tiental DWS
13764 11936 15 01505    	COMP	1505	!constante 5
13765 11937 15 01502    	COMP	1502	!constante 2
13766 11938 10 00003.0  	STRB	RESULT1	!F=C
13767                   
13768 11939 16 00003.0  	AND	RESULT1	!F=C
13769 11940 30 00012    	JFRF	L11952
13770                   
13771 11941 16 00003.0  	AND	RESULT1	!F=C
13772 11942 13 02100    	FTCHD	STP25_0	!setpoint 25 eenheden
13773 11943 13 02101    	FTCHD	STP25_1	!setpoint 25 tientallen
13774 11944 13 02102    	FTCHD	STP25_2	!setpoint 25 honderdtallen
13775 11945 13 02103    	FTCHD	STP25_3	!setpoint 25 duizendtallen
13776 11946 14 00160    	STRD	DISPL_0	!display aansturing eenh.
13777 11947 14 00161    	STRD	DISPL_1	!display aansturing tiental.
13778 11948 14 00162    	STRD	DISPL_2	!display aansturing honderdt.
13779 11949 14 00163    	STRD	DISPL_3	!display aansturing duizendt.
13780                   
13781 11950 17 00000.1  	ANDNT	000.1
13782 11951 30 01405    	JFRF	L13356
13783                   
13784 11952 16 00000.1  L11952	AND	000.1
13785 11953 13 00104    	FTCHD	DWS1_1	!eenheid DWS
13786 11954 13 00105    	FTCHD	DWS1_2	!tiental DWS
13787 11955 15 01506    	COMP	1506	!constante 6
13788 11956 15 01502    	COMP	1502	!constante 2
13789 11957 10 00003.0  	STRB	RESULT1	!F=C
13790                   
13791 11958 16 00003.0  	AND	RESULT1	!F=C
13792 11959 30 00012    	JFRF	L11971
13793                   
13794 11960 16 00003.0  	AND	RESULT1	!F=C
13795 11961 13 02104    	FTCHD	STP26_0	!setpoint 26 eenheden
13796 11962 13 02105    	FTCHD	STP26_1	!setpoint 26 tientallen
13797 11963 13 02106    	FTCHD	STP26_2	!setpoint 26 honderdtallen
13798 11964 13 02107    	FTCHD	STP26_3	!setpoint 26 duizendtallen
13799 11965 14 00160    	STRD	DISPL_0	!display aansturing eenh.
13800 11966 14 00161    	STRD	DISPL_1	!display aansturing tiental.
13801 11967 14 00162    	STRD	DISPL_2	!display aansturing honderdt.
13802 11968 14 00163    	STRD	DISPL_3	!display aansturing duizendt.
13803                   
13804 11969 17 00000.1  	ANDNT	000.1
13805 11970 30 01386    	JFRF	L13356
13806                   
13807 11971 16 00000.1  L11971	AND	000.1
13808 11972 13 00104    	FTCHD	DWS1_1	!eenheid DWS
13809 11973 13 00105    	FTCHD	DWS1_2	!tiental DWS
13810 11974 15 01507    	COMP	1507	!constante 7
13811 11975 15 01502    	COMP	1502	!constante 2
13812 11976 10 00003.0  	STRB	RESULT1	!F=C
13813                   
13814 11977 16 00003.0  	AND	RESULT1	!F=C
13815 11978 30 00012    	JFRF	L11990
13816                   
13817 11979 16 00003.0  	AND	RESULT1	!F=C
13818 11980 13 02108    	FTCHD	STP27_0	!setpoint 27 eenheden
13819 11981 13 02109    	FTCHD	STP27_1	!setpoint 27 tientallen
13820 11982 13 02110    	FTCHD	STP27_2	!setpoint 27 honderdtallen
13821 11983 13 02111    	FTCHD	STP27_3	!setpoint 27 duizendtallen
13822 11984 14 00160    	STRD	DISPL_0	!display aansturing eenh.
13823 11985 14 00161    	STRD	DISPL_1	!display aansturing tiental.
13824 11986 14 00162    	STRD	DISPL_2	!display aansturing honderdt.
13825 11987 14 00163    	STRD	DISPL_3	!display aansturing duizendt.
13826                   
13827 11988 17 00000.1  	ANDNT	000.1
13828 11989 30 01367    	JFRF	L13356
13829                   
13830 11990 16 00000.1  L11990	AND	000.1
13831 11991 13 00104    	FTCHD	DWS1_1	!eenheid DWS
13832 11992 13 00105    	FTCHD	DWS1_2	!tiental DWS
13833 11993 15 01508    	COMP	1508	!constante 8
13834 11994 15 01502    	COMP	1502	!constante 2
13835 11995 10 00003.0  	STRB	RESULT1	!F=C
13836                   
13837 11996 16 00003.0  	AND	RESULT1	!F=C
13838 11997 30 00012    	JFRF	L12009
13839                   
13840 11998 16 00003.0  	AND	RESULT1	!F=C
13841 11999 13 02112    	FTCHD	STP28_0	!setpoint 28 eenheden
13842 12000 13 02113    	FTCHD	STP28_1	!setpoint 28 tientallen
13843 12001 13 02114    	FTCHD	STP28_2	!setpoint 28 honderdtallen
13844 12002 13 02115    	FTCHD	STP28_3	!setpoint 28 duizendtallen
13845 12003 14 00160    	STRD	DISPL_0	!display aansturing eenh.
13846 12004 14 00161    	STRD	DISPL_1	!display aansturing tiental.
13847 12005 14 00162    	STRD	DISPL_2	!display aansturing honderdt.
13848 12006 14 00163    	STRD	DISPL_3	!display aansturing duizendt.
13849                   
13850 12007 17 00000.1  	ANDNT	000.1
13851 12008 30 01348    	JFRF	L13356
13852                   
13853 12009 16 00000.1  L12009	AND	000.1
13854 12010 13 00104    	FTCHD	DWS1_1	!eenheid DWS
13855 12011 13 00105    	FTCHD	DWS1_2	!tiental DWS
13856 12012 15 01509    	COMP	1509	!constante 9
13857 12013 15 01502    	COMP	1502	!constante 2
13858 12014 10 00003.0  	STRB	RESULT1	!F=C
13859                   
13860 12015 16 00003.0  	AND	RESULT1	!F=C
13861 12016 30 00012    	JFRF	L12028
13862                   
13863 12017 16 00003.0  	AND	RESULT1	!F=C
13864 12018 13 02116    	FTCHD	STP29_0	!setpoint 29 eenheden
13865 12019 13 02117    	FTCHD	STP29_1	!setpoint 29 tientallen
13866 12020 13 02118    	FTCHD	STP29_2	!setpoint 29 honderdtallen
13867 12021 13 02119    	FTCHD	STP29_3	!setpoint 29 duizendtallen
13868 12022 14 00160    	STRD	DISPL_0	!display aansturing eenh.
13869 12023 14 00161    	STRD	DISPL_1	!display aansturing tiental.
13870 12024 14 00162    	STRD	DISPL_2	!display aansturing honderdt.
13871 12025 14 00163    	STRD	DISPL_3	!display aansturing duizendt.
13872                   
13873 12026 17 00000.1  	ANDNT	000.1
13874 12027 30 01329    	JFRF	L13356
13875                   
13876 12028 16 00000.1  L12028	AND	000.1
13877 12029 13 00104    	FTCHD	DWS1_1	!eenheid DWS
13878 12030 13 00105    	FTCHD	DWS1_2	!tiental DWS
13879 12031 15 01500    	COMP	1500	!constante 0
13880 12032 15 01503    	COMP	1503	!constante 3
13881 12033 10 00003.0  	STRB	RESULT1	!F=C
13882                   
13883 12034 16 00003.0  	AND	RESULT1	!F=C
13884 12035 30 00012    	JFRF	L12047
13885                   
13886 12036 16 00003.0  	AND	RESULT1	!F=C
13887 12037 13 02120    	FTCHD	STP30_0	!setpoint 30 eenheden
13888 12038 13 02121    	FTCHD	STP30_1	!setpoint 30 tientallen
13889 12039 13 02122    	FTCHD	STP30_2	!setpoint 30 honderdtallen
13890 12040 13 02123    	FTCHD	STP30_3	!setpoint 30 duizendtallen
13891 12041 14 00160    	STRD	DISPL_0	!display aansturing eenh.
13892 12042 14 00161    	STRD	DISPL_1	!display aansturing tiental.
13893 12043 14 00162    	STRD	DISPL_2	!display aansturing honderdt.
13894 12044 14 00163    	STRD	DISPL_3	!display aansturing duizendt.
13895                   
13896 12045 17 00000.1  	ANDNT	000.1
13897 12046 30 01310    	JFRF	L13356
13898                   
13899 12047 16 00000.1  L12047	AND	000.1
13900 12048 13 00104    	FTCHD	DWS1_1	!eenheid DWS
13901 12049 13 00105    	FTCHD	DWS1_2	!tiental DWS
13902 12050 15 01501    	COMP	1501	!constante 1
13903 12051 15 01503    	COMP	1503	!constante 3
13904 12052 10 00003.0  	STRB	RESULT1	!F=C
13905                   
13906 12053 16 00003.0  	AND	RESULT1	!F=C
13907 12054 30 00012    	JFRF	L12066
13908                   
13909 12055 16 00003.0  	AND	RESULT1	!F=C
13910 12056 13 02124    	FTCHD	STP31_0	!setpoint 31 eenheden
13911 12057 13 02125    	FTCHD	STP31_1	!setpoint 31 tientallen
13912 12058 13 02126    	FTCHD	STP31_2	!setpoint 31 honderdtallen
13913 12059 13 02127    	FTCHD	STP31_3	!setpoint 31 duizendtallen
13914 12060 14 00160    	STRD	DISPL_0	!display aansturing eenh.
13915 12061 14 00161    	STRD	DISPL_1	!display aansturing tiental.
13916 12062 14 00162    	STRD	DISPL_2	!display aansturing honderdt.
13917 12063 14 00163    	STRD	DISPL_3	!display aansturing duizendt.
13918                   
13919 12064 17 00000.1  	ANDNT	000.1
13920 12065 30 01291    	JFRF	L13356
13921                   
13922 12066 16 00000.1  L12066	AND	000.1
13923 12067 13 00104    	FTCHD	DWS1_1	!eenheid DWS
13924 12068 13 00105    	FTCHD	DWS1_2	!tiental DWS
13925 12069 15 01502    	COMP	1502	!constante 2
13926 12070 15 01503    	COMP	1503	!constante 3
13927 12071 10 00003.0  	STRB	RESULT1	!F=C
13928                   
13929 12072 16 00003.0  	AND	RESULT1	!F=C
13930 12073 30 00012    	JFRF	L12085
13931                   
13932 12074 16 00003.0  	AND	RESULT1	!F=C
13933 12075 13 02128    	FTCHD	STP32_0	!setpoint 32 eenheden
13934 12076 13 02129    	FTCHD	STP32_1	!setpoint 32 tientallen
13935 12077 13 02130    	FTCHD	STP32_2	!setpoint 32 honderdtallen
13936 12078 13 02131    	FTCHD	STP32_3	!setpoint 32 duizendtallen
13937 12079 14 00160    	STRD	DISPL_0	!display aansturing eenh.
13938 12080 14 00161    	STRD	DISPL_1	!display aansturing tiental.
13939 12081 14 00162    	STRD	DISPL_2	!display aansturing honderdt.
13940 12082 14 00163    	STRD	DISPL_3	!display aansturing duizendt.
13941                   
13942 12083 17 00000.1  	ANDNT	000.1
13943 12084 30 01272    	JFRF	L13356
13944                   
13945 12085 16 00000.1  L12085	AND	000.1
13946 12086 13 00104    	FTCHD	DWS1_1	!eenheid DWS
13947 12087 13 00105    	FTCHD	DWS1_2	!tiental DWS
13948 12088 15 01503    	COMP	1503	!constante 3
13949 12089 15 01503    	COMP	1503	!constante 3
13950 12090 10 00003.0  	STRB	RESULT1	!F=C
13951                   
13952 12091 16 00003.0  	AND	RESULT1	!F=C
13953 12092 30 00012    	JFRF	L12104
13954                   
13955 12093 16 00003.0  	AND	RESULT1	!F=C
13956 12094 13 02132    	FTCHD	STP33_0	!setpoint 33 eenheden
13957 12095 13 02133    	FTCHD	STP33_1	!setpoint 33 tientallen
13958 12096 13 02134    	FTCHD	STP33_2	!setpoint 33 honderdtallen
13959 12097 13 02135    	FTCHD	STP33_3	!setpoint 33 duizendtallen
13960 12098 14 00160    	STRD	DISPL_0	!display aansturing eenh.
13961 12099 14 00161    	STRD	DISPL_1	!display aansturing tiental.
13962 12100 14 00162    	STRD	DISPL_2	!display aansturing honderdt.
13963 12101 14 00163    	STRD	DISPL_3	!display aansturing duizendt.
13964                   
13965 12102 17 00000.1  	ANDNT	000.1
13966 12103 30 01253    	JFRF	L13356
13967                   
13968 12104 16 00000.1  L12104	AND	000.1
13969 12105 13 00104    	FTCHD	DWS1_1	!eenheid DWS
13970 12106 13 00105    	FTCHD	DWS1_2	!tiental DWS
13971 12107 15 01504    	COMP	1504	!constante 4
13972 12108 15 01503    	COMP	1503	!constante 3
13973 12109 10 00003.0  	STRB	RESULT1	!F=C
13974                   
13975 12110 16 00003.0  	AND	RESULT1	!F=C
13976 12111 30 00012    	JFRF	L12123
13977                   
13978 12112 16 00003.0  	AND	RESULT1	!F=C
13979 12113 13 02136    	FTCHD	STP34_0	!setpoint 34 eenheden
13980 12114 13 02137    	FTCHD	STP34_1	!setpoint 34 tientallen
13981 12115 13 02138    	FTCHD	STP34_2	!setpoint 34 honderdtallen
13982 12116 13 02139    	FTCHD	STP34_3	!setpoint 34 duizendtallen
13983 12117 14 00160    	STRD	DISPL_0	!display aansturing eenh.
13984 12118 14 00161    	STRD	DISPL_1	!display aansturing tiental.
13985 12119 14 00162    	STRD	DISPL_2	!display aansturing honderdt.
13986 12120 14 00163    	STRD	DISPL_3	!display aansturing duizendt.
13987                   
13988 12121 17 00000.1  	ANDNT	000.1
13989 12122 30 01234    	JFRF	L13356
13990                   
13991 12123 16 00000.1  L12123	AND	000.1
13992 12124 13 00104    	FTCHD	DWS1_1	!eenheid DWS
13993 12125 13 00105    	FTCHD	DWS1_2	!tiental DWS
13994 12126 15 01505    	COMP	1505	!constante 5
13995 12127 15 01503    	COMP	1503	!constante 3
13996 12128 10 00003.0  	STRB	RESULT1	!F=C
13997                   
13998 12129 16 00003.0  	AND	RESULT1	!F=C
13999 12130 30 00012    	JFRF	L12142
14000                   
14001 12131 16 00003.0  	AND	RESULT1	!F=C
14002 12132 13 02140    	FTCHD	STP35_0	!setpoint 35 eenheden
14003 12133 13 02141    	FTCHD	STP35_1	!setpoint 35 tientallen
14004 12134 13 02142    	FTCHD	STP35_2	!setpoint 35 honderdtallen
14005 12135 13 02143    	FTCHD	STP35_3	!setpoint 35 duizendtallen
14006 12136 14 00160    	STRD	DISPL_0	!display aansturing eenh.
14007 12137 14 00161    	STRD	DISPL_1	!display aansturing tiental.
14008 12138 14 00162    	STRD	DISPL_2	!display aansturing honderdt.
14009 12139 14 00163    	STRD	DISPL_3	!display aansturing duizendt.
14010                   
14011 12140 17 00000.1  	ANDNT	000.1
14012 12141 30 01215    	JFRF	L13356
14013                   
14014 12142 16 00000.1  L12142	AND	000.1
14015 12143 13 00104    	FTCHD	DWS1_1	!eenheid DWS
14016 12144 13 00105    	FTCHD	DWS1_2	!tiental DWS
14017 12145 15 01506    	COMP	1506	!constante 6
14018 12146 15 01503    	COMP	1503	!constante 3
14019 12147 10 00003.0  	STRB	RESULT1	!F=C
14020                   
14021 12148 16 00003.0  	AND	RESULT1	!F=C
14022 12149 30 00012    	JFRF	L12161
14023                   
14024 12150 16 00003.0  	AND	RESULT1	!F=C
14025 12151 13 02144    	FTCHD	STP36_0	!setpoint 36 eenheden
14026 12152 13 02145    	FTCHD	STP36_1	!setpoint 36 tientallen
14027 12153 13 02146    	FTCHD	STP36_2	!setpoint 36 honderdtallen
14028 12154 13 02147    	FTCHD	STP36_3	!setpoint 36 duizendtallen
14029 12155 14 00160    	STRD	DISPL_0	!display aansturing eenh.
14030 12156 14 00161    	STRD	DISPL_1	!display aansturing tiental.
14031 12157 14 00162    	STRD	DISPL_2	!display aansturing honderdt.
14032 12158 14 00163    	STRD	DISPL_3	!display aansturing duizendt.
14033                   
14034 12159 17 00000.1  	ANDNT	000.1
14035 12160 30 01196    	JFRF	L13356
14036                   
14037 12161 16 00000.1  L12161	AND	000.1
14038 12162 13 00104    	FTCHD	DWS1_1	!eenheid DWS
14039 12163 13 00105    	FTCHD	DWS1_2	!tiental DWS
14040 12164 15 01507    	COMP	1507	!constante 7
14041 12165 15 01503    	COMP	1503	!constante 3
14042 12166 10 00003.0  	STRB	RESULT1	!F=C
14043                   
14044 12167 16 00003.0  	AND	RESULT1	!F=C
14045 12168 30 00012    	JFRF	L12180
14046                   
14047 12169 16 00003.0  	AND	RESULT1	!F=C
14048 12170 13 02148    	FTCHD	STP37_0	!setpoint 37 eenheden
14049 12171 13 02149    	FTCHD	STP37_1	!setpoint 37 tientallen
14050 12172 13 02150    	FTCHD	STP37_2	!setpoint 37 honderdtallen
14051 12173 13 02151    	FTCHD	STP37_3	!setpoint 37 duizendtallen
14052 12174 14 00160    	STRD	DISPL_0	!display aansturing eenh.
14053 12175 14 00161    	STRD	DISPL_1	!display aansturing tiental.
14054 12176 14 00162    	STRD	DISPL_2	!display aansturing honderdt.
14055 12177 14 00163    	STRD	DISPL_3	!display aansturing duizendt.
14056                   
14057 12178 17 00000.1  	ANDNT	000.1
14058 12179 30 01177    	JFRF	L13356
14059                   
14060 12180 16 00000.1  L12180	AND	000.1
14061 12181 13 00104    	FTCHD	DWS1_1	!eenheid DWS
14062 12182 13 00105    	FTCHD	DWS1_2	!tiental DWS
14063 12183 15 01508    	COMP	1508	!constante 8
14064 12184 15 01503    	COMP	1503	!constante 3
14065 12185 10 00003.0  	STRB	RESULT1	!F=C
14066                   
14067 12186 16 00003.0  	AND	RESULT1	!F=C
14068 12187 30 00012    	JFRF	L12199
14069                   
14070 12188 16 00003.0  	AND	RESULT1	!F=C
14071 12189 13 02152    	FTCHD	STP38_0	!setpoint 38 eenheden
14072 12190 13 02153    	FTCHD	STP38_1	!setpoint 38 tientallen
14073 12191 13 02154    	FTCHD	STP38_2	!setpoint 38 honderdtallen
14074 12192 13 02155    	FTCHD	STP38_3	!setpoint 38 duizendtallen
14075 12193 14 00160    	STRD	DISPL_0	!display aansturing eenh.
14076 12194 14 00161    	STRD	DISPL_1	!display aansturing tiental.
14077 12195 14 00162    	STRD	DISPL_2	!display aansturing honderdt.
14078 12196 14 00163    	STRD	DISPL_3	!display aansturing duizendt.
14079                   
14080 12197 17 00000.1  	ANDNT	000.1
14081 12198 30 01158    	JFRF	L13356
14082                   
14083 12199 16 00000.1  L12199	AND	000.1
14084 12200 13 00104    	FTCHD	DWS1_1	!eenheid DWS
14085 12201 13 00105    	FTCHD	DWS1_2	!tiental DWS
14086 12202 15 01509    	COMP	1509	!constante 9
14087 12203 15 01503    	COMP	1503	!constante 3
14088 12204 10 00003.0  	STRB	RESULT1	!F=C
14089                   
14090 12205 16 00003.0  	AND	RESULT1	!F=C
14091 12206 30 00012    	JFRF	L12218
14092                   
14093 12207 16 00003.0  	AND	RESULT1	!F=C
14094 12208 13 02156    	FTCHD	STP39_0	!setpoint 39 eenheden
14095 12209 13 02157    	FTCHD	STP39_1	!setpoint 39 tientallen
14096 12210 13 02158    	FTCHD	STP39_2	!setpoint 39 honderdtallen
14097 12211 13 02159    	FTCHD	STP39_3	!setpoint 39 duizendtallen
14098 12212 14 00160    	STRD	DISPL_0	!display aansturing eenh.
14099 12213 14 00161    	STRD	DISPL_1	!display aansturing tiental.
14100 12214 14 00162    	STRD	DISPL_2	!display aansturing honderdt.
14101 12215 14 00163    	STRD	DISPL_3	!display aansturing duizendt.
14102                   
14103 12216 17 00000.1  	ANDNT	000.1
14104 12217 30 01139    	JFRF	L13356
14105                   
14106 12218 16 00000.1  L12218	AND	000.1
14107 12219 13 00104    	FTCHD	DWS1_1	!eenheid DWS
14108 12220 13 00105    	FTCHD	DWS1_2	!tiental DWS
14109 12221 15 01500    	COMP	1500	!constante 0
14110 12222 15 01504    	COMP	1504	!constante 4
14111 12223 10 00003.0  	STRB	RESULT1	!F=C
14112                   
14113 12224 16 00003.0  	AND	RESULT1	!F=C
14114 12225 30 00012    	JFRF	L12237
14115                   
14116 12226 16 00003.0  	AND	RESULT1	!F=C
14117 12227 13 02160    	FTCHD	STP40_0	!setpoint 40 eenheden
14118 12228 13 02161    	FTCHD	STP40_1	!setpoint 40 tientallen
14119 12229 13 02162    	FTCHD	STP40_2	!setpoint 40 honderdtallen
14120 12230 13 02163    	FTCHD	STP40_3	!setpoint 40 duizendtallen
14121 12231 14 00160    	STRD	DISPL_0	!display aansturing eenh.
14122 12232 14 00161    	STRD	DISPL_1	!display aansturing tiental.
14123 12233 14 00162    	STRD	DISPL_2	!display aansturing honderdt.
14124 12234 14 00163    	STRD	DISPL_3	!display aansturing duizendt.
14125                   
14126 12235 17 00000.1  	ANDNT	000.1
14127 12236 30 01120    	JFRF	L13356
14128                   
14129 12237 16 00000.1  L12237	AND	000.1
14130 12238 13 00104    	FTCHD	DWS1_1	!eenheid DWS
14131 12239 13 00105    	FTCHD	DWS1_2	!tiental DWS
14132 12240 15 01501    	COMP	1501	!constante 1
14133 12241 15 01504    	COMP	1504	!constante 4
14134 12242 10 00003.0  	STRB	RESULT1	!F=C
14135                   
14136 12243 16 00003.0  	AND	RESULT1	!F=C
14137 12244 30 00012    	JFRF	L12256
14138                   
14139 12245 16 00003.0  	AND	RESULT1	!F=C
14140 12246 13 02164    	FTCHD	STP41_0	!setpoint 41 eenheden
14141 12247 13 02165    	FTCHD	STP41_1	!setpoint 41 tientallen
14142 12248 13 02166    	FTCHD	STP41_2	!setpoint 41 honderdtallen
14143 12249 13 02167    	FTCHD	STP41_3	!setpoint 41 duizendtallen
14144 12250 14 00160    	STRD	DISPL_0	!display aansturing eenh.
14145 12251 14 00161    	STRD	DISPL_1	!display aansturing tiental.
14146 12252 14 00162    	STRD	DISPL_2	!display aansturing honderdt.
14147 12253 14 00163    	STRD	DISPL_3	!display aansturing duizendt.
14148                   
14149 12254 17 00000.1  	ANDNT	000.1
14150 12255 30 01101    	JFRF	L13356
14151                   
14152 12256 16 00000.1  L12256	AND	000.1
14153 12257 13 00104    	FTCHD	DWS1_1	!eenheid DWS
14154 12258 13 00105    	FTCHD	DWS1_2	!tiental DWS
14155 12259 15 01502    	COMP	1502	!constante 2
14156 12260 15 01504    	COMP	1504	!constante 4
14157 12261 10 00003.0  	STRB	RESULT1	!F=C
14158                   
14159 12262 16 00003.0  	AND	RESULT1	!F=C
14160 12263 30 00012    	JFRF	L12275
14161                   
14162 12264 16 00003.0  	AND	RESULT1	!F=C
14163 12265 13 02168    	FTCHD	STP42_0	!setpoint 42 eenheden
14164 12266 13 02169    	FTCHD	STP42_1	!setpoint 42 tientallen
14165 12267 13 02170    	FTCHD	STP42_2	!setpoint 42 honderdtallen
14166 12268 13 02171    	FTCHD	STP42_3	!setpoint 42 duizendtallen
14167 12269 14 00160    	STRD	DISPL_0	!display aansturing eenh.
14168 12270 14 00161    	STRD	DISPL_1	!display aansturing tiental.
14169 12271 14 00162    	STRD	DISPL_2	!display aansturing honderdt.
14170 12272 14 00163    	STRD	DISPL_3	!display aansturing duizendt.
14171                   
14172 12273 17 00000.1  	ANDNT	000.1
14173 12274 30 01082    	JFRF	L13356
14174                   
14175 12275 16 00000.1  L12275	AND	000.1
14176 12276 13 00104    	FTCHD	DWS1_1	!eenheid DWS
14177 12277 13 00105    	FTCHD	DWS1_2	!tiental DWS
14178 12278 15 01503    	COMP	1503	!constante 3
14179 12279 15 01504    	COMP	1504	!constante 4
14180 12280 10 00003.0  	STRB	RESULT1	!F=C
14181                   
14182 12281 16 00003.0  	AND	RESULT1	!F=C
14183 12282 30 00012    	JFRF	L12294
14184                   
14185 12283 16 00003.0  	AND	RESULT1	!F=C
14186 12284 13 02172    	FTCHD	STP43_0	!setpoint 43 eenheden
14187 12285 13 02173    	FTCHD	STP43_1	!setpoint 43 tientallen
14188 12286 13 02174    	FTCHD	STP43_2	!setpoint 43 honderdtallen
14189 12287 13 02175    	FTCHD	STP43_3	!setpoint 43 duizendtallen
14190 12288 14 00160    	STRD	DISPL_0	!display aansturing eenh.
14191 12289 14 00161    	STRD	DISPL_1	!display aansturing tiental.
14192 12290 14 00162    	STRD	DISPL_2	!display aansturing honderdt.
14193 12291 14 00163    	STRD	DISPL_3	!display aansturing duizendt.
14194                   
14195 12292 17 00000.1  	ANDNT	000.1
14196 12293 30 01063    	JFRF	L13356
14197                   
14198 12294 16 00000.1  L12294	AND	000.1
14199 12295 13 00104    	FTCHD	DWS1_1	!eenheid DWS
14200 12296 13 00105    	FTCHD	DWS1_2	!tiental DWS
14201 12297 15 01504    	COMP	1504	!constante 4
14202 12298 15 01504    	COMP	1504	!constante 4
14203 12299 10 00003.0  	STRB	RESULT1	!F=C
14204                   
14205 12300 16 00003.0  	AND	RESULT1	!F=C
14206 12301 30 00012    	JFRF	L12313
14207                   
14208 12302 16 00003.0  	AND	RESULT1	!F=C
14209 12303 13 02176    	FTCHD	STP44_0	!setpoint 44 eenheden
14210 12304 13 02177    	FTCHD	STP44_1	!setpoint 44 tientallen
14211 12305 13 02178    	FTCHD	STP44_2	!setpoint 44 honderdtallen
14212 12306 13 02179    	FTCHD	STP44_3	!setpoint 44 duizendtallen
14213 12307 14 00160    	STRD	DISPL_0	!display aansturing eenh.
14214 12308 14 00161    	STRD	DISPL_1	!display aansturing tiental.
14215 12309 14 00162    	STRD	DISPL_2	!display aansturing honderdt.
14216 12310 14 00163    	STRD	DISPL_3	!display aansturing duizendt.
14217                   
14218 12311 17 00000.1  	ANDNT	000.1
14219 12312 30 01044    	JFRF	L13356
14220                   
14221 12313 16 00000.1  L12313	AND	000.1
14222 12314 13 00104    	FTCHD	DWS1_1	!eenheid DWS
14223 12315 13 00105    	FTCHD	DWS1_2	!tiental DWS
14224 12316 15 01505    	COMP	1505	!constante 5
14225 12317 15 01504    	COMP	1504	!constante 4
14226 12318 10 00003.0  	STRB	RESULT1	!F=C
14227                   
14228 12319 16 00003.0  	AND	RESULT1	!F=C
14229 12320 30 00012    	JFRF	L12332
14230                   
14231 12321 16 00003.0  	AND	RESULT1	!F=C
14232 12322 13 02180    	FTCHD	STP45_0	!setpoint 45 eenheden
14233 12323 13 02181    	FTCHD	STP45_1	!setpoint 45 tientallen
14234 12324 13 02182    	FTCHD	STP45_2	!setpoint 45 honderdtallen
14235 12325 13 02183    	FTCHD	STP45_3	!setpoint 45 duizendtallen
14236 12326 14 00160    	STRD	DISPL_0	!display aansturing eenh.
14237 12327 14 00161    	STRD	DISPL_1	!display aansturing tiental.
14238 12328 14 00162    	STRD	DISPL_2	!display aansturing honderdt.
14239 12329 14 00163    	STRD	DISPL_3	!display aansturing duizendt.
14240                   
14241 12330 17 00000.1  	ANDNT	000.1
14242 12331 30 01025    	JFRF	L13356
14243                   
14244 12332 16 00000.1  L12332	AND	000.1
14245 12333 13 00104    	FTCHD	DWS1_1	!eenheid DWS
14246 12334 13 00105    	FTCHD	DWS1_2	!tiental DWS
14247 12335 15 01506    	COMP	1506	!constante 6
14248 12336 15 01504    	COMP	1504	!constante 4
14249 12337 10 00003.0  	STRB	RESULT1	!F=C
14250                   
14251 12338 16 00003.0  	AND	RESULT1	!F=C
14252 12339 30 00012    	JFRF	L12351
14253                   
14254 12340 16 00003.0  	AND	RESULT1	!F=C
14255 12341 13 02184    	FTCHD	STP46_0	!setpoint 46 eenheden
14256 12342 13 02185    	FTCHD	STP46_1	!setpoint 46 tientallen
14257 12343 13 02186    	FTCHD	STP46_2	!setpoint 46 honderdtallen
14258 12344 13 02187    	FTCHD	STP46_3	!setpoint 46 duizendtallen
14259 12345 14 00160    	STRD	DISPL_0	!display aansturing eenh.
14260 12346 14 00161    	STRD	DISPL_1	!display aansturing tiental.
14261 12347 14 00162    	STRD	DISPL_2	!display aansturing honderdt.
14262 12348 14 00163    	STRD	DISPL_3	!display aansturing duizendt.
14263                   
14264 12349 17 00000.1  	ANDNT	000.1
14265 12350 30 01006    	JFRF	L13356
14266                   
14267 12351 16 00000.1  L12351	AND	000.1
14268 12352 13 00104    	FTCHD	DWS1_1	!eenheid DWS
14269 12353 13 00105    	FTCHD	DWS1_2	!tiental DWS
14270 12354 15 01507    	COMP	1507	!constante 7
14271 12355 15 01504    	COMP	1504	!constante 4
14272 12356 10 00003.0  	STRB	RESULT1	!F=C
14273                   
14274 12357 16 00003.0  	AND	RESULT1	!F=C
14275 12358 30 00012    	JFRF	L12370
14276                   
14277 12359 16 00003.0  	AND	RESULT1	!F=C
14278 12360 13 02188    	FTCHD	STP47_0	!setpoint 47 eenheden
14279 12361 13 02189    	FTCHD	STP47_1	!setpoint 47 tientallen
14280 12362 13 02190    	FTCHD	STP47_2	!setpoint 47 honderdtallen
14281 12363 13 02191    	FTCHD	STP47_3	!setpoint 47 duizendtallen
14282 12364 14 00160    	STRD	DISPL_0	!display aansturing eenh.
14283 12365 14 00161    	STRD	DISPL_1	!display aansturing tiental.
14284 12366 14 00162    	STRD	DISPL_2	!display aansturing honderdt.
14285 12367 14 00163    	STRD	DISPL_3	!display aansturing duizendt.
14286                   
14287 12368 17 00000.1  	ANDNT	000.1
14288 12369 30 00987    	JFRF	L13356
14289                   
14290 12370 16 00000.1  L12370	AND	000.1
14291 12371 13 00104    	FTCHD	DWS1_1	!eenheid DWS
14292 12372 13 00105    	FTCHD	DWS1_2	!tiental DWS
14293 12373 15 01508    	COMP	1508	!constante 8
14294 12374 15 01504    	COMP	1504	!constante 4
14295 12375 10 00003.0  	STRB	RESULT1	!F=C
14296                   
14297 12376 16 00003.0  	AND	RESULT1	!F=C
14298 12377 30 00012    	JFRF	L12389
14299                   
14300 12378 16 00003.0  	AND	RESULT1	!F=C
14301 12379 13 02192    	FTCHD	STP48_0	!setpoint 48 eenheden
14302 12380 13 02193    	FTCHD	STP48_1	!setpoint 48 tientallen
14303 12381 13 02194    	FTCHD	STP48_2	!setpoint 48 honderdtallen
14304 12382 13 02195    	FTCHD	STP48_3	!setpoint 48 duizendtallen
14305 12383 14 00160    	STRD	DISPL_0	!display aansturing eenh.
14306 12384 14 00161    	STRD	DISPL_1	!display aansturing tiental.
14307 12385 14 00162    	STRD	DISPL_2	!display aansturing honderdt.
14308 12386 14 00163    	STRD	DISPL_3	!display aansturing duizendt.
14309                   
14310 12387 17 00000.1  	ANDNT	000.1
14311 12388 30 00968    	JFRF	L13356
14312                   
14313 12389 16 00000.1  L12389	AND	000.1
14314 12390 13 00104    	FTCHD	DWS1_1	!eenheid DWS
14315 12391 13 00105    	FTCHD	DWS1_2	!tiental DWS
14316 12392 15 01509    	COMP	1509	!constante 9
14317 12393 15 01504    	COMP	1504	!constante 4
14318 12394 10 00003.0  	STRB	RESULT1	!F=C
14319                   
14320 12395 16 00003.0  	AND	RESULT1	!F=C
14321 12396 30 00012    	JFRF	L12408
14322                   
14323 12397 16 00003.0  	AND	RESULT1	!F=C
14324 12398 13 02196    	FTCHD	STP49_0	!setpoint 49 eenheden
14325 12399 13 02197    	FTCHD	STP49_1	!setpoint 49 tientallen
14326 12400 13 02198    	FTCHD	STP49_2	!setpoint 49 honderdtallen
14327 12401 13 02199    	FTCHD	STP49_3	!setpoint 49 duizendtallen
14328 12402 14 00160    	STRD	DISPL_0	!display aansturing eenh.
14329 12403 14 00161    	STRD	DISPL_1	!display aansturing tiental.
14330 12404 14 00162    	STRD	DISPL_2	!display aansturing honderdt.
14331 12405 14 00163    	STRD	DISPL_3	!display aansturing duizendt.
14332                   
14333 12406 17 00000.1  	ANDNT	000.1
14334 12407 30 00949    	JFRF	L13356
14335                   
14336 12408 16 00000.1  L12408	AND	000.1
14337 12409 13 00104    	FTCHD	DWS1_1	!eenheid DWS
14338 12410 13 00105    	FTCHD	DWS1_2	!tiental DWS
14339 12411 15 01500    	COMP	1500	!constante 0
14340 12412 15 01505    	COMP	1505	!constante 5
14341 12413 10 00003.0  	STRB	RESULT1	!F=C
14342                   
14343 12414 16 00003.0  	AND	RESULT1	!F=C
14344 12415 30 00012    	JFRF	L12427
14345                   
14346 12416 16 00003.0  	AND	RESULT1	!F=C
14347 12417 13 02200    	FTCHD	STP50_0	!setpoint 50 eenheden
14348 12418 13 02201    	FTCHD	STP50_1	!setpoint 50 tientallen
14349 12419 13 02202    	FTCHD	STP50_2	!setpoint 50 honderdtallen
14350 12420 13 02203    	FTCHD	STP50_3	!setpoint 50 duizendtallen
14351 12421 14 00160    	STRD	DISPL_0	!display aansturing eenh.
14352 12422 14 00161    	STRD	DISPL_1	!display aansturing tiental.
14353 12423 14 00162    	STRD	DISPL_2	!display aansturing honderdt.
14354 12424 14 00163    	STRD	DISPL_3	!display aansturing duizendt.
14355                   
14356 12425 17 00000.1  	ANDNT	000.1
14357 12426 30 00930    	JFRF	L13356
14358                   
14359 12427 16 00000.1  L12427	AND	000.1
14360 12428 13 00104    	FTCHD	DWS1_1	!eenheid DWS
14361 12429 13 00105    	FTCHD	DWS1_2	!tiental DWS
14362 12430 15 01501    	COMP	1501	!constante 1
14363 12431 15 01505    	COMP	1505	!constante 5
14364 12432 10 00003.0  	STRB	RESULT1	!F=C
14365                   
14366 12433 16 00003.0  	AND	RESULT1	!F=C
14367 12434 30 00012    	JFRF	L12446
14368                   
14369 12435 16 00003.0  	AND	RESULT1	!F=C
14370 12436 13 02204    	FTCHD	STP51_0	!setpoint 51 eenheden
14371 12437 13 02205    	FTCHD	STP51_1	!setpoint 51 tientallen
14372 12438 13 02206    	FTCHD	STP51_2	!setpoint 51 honderdtallen
14373 12439 13 02207    	FTCHD	STP51_3	!setpoint 51 duizendtallen
14374 12440 14 00160    	STRD	DISPL_0	!display aansturing eenh.
14375 12441 14 00161    	STRD	DISPL_1	!display aansturing tiental.
14376 12442 14 00162    	STRD	DISPL_2	!display aansturing honderdt.
14377 12443 14 00163    	STRD	DISPL_3	!display aansturing duizendt.
14378                   
14379 12444 17 00000.1  	ANDNT	000.1
14380 12445 30 00911    	JFRF	L13356
14381                   
14382 12446 16 00000.1  L12446	AND	000.1
14383 12447 13 00104    	FTCHD	DWS1_1	!eenheid DWS
14384 12448 13 00105    	FTCHD	DWS1_2	!tiental DWS
14385 12449 15 01502    	COMP	1502	!constante 2
14386 12450 15 01505    	COMP	1505	!constante 5
14387 12451 10 00003.0  	STRB	RESULT1	!F=C
14388                   
14389 12452 16 00003.0  	AND	RESULT1	!F=C
14390 12453 30 00012    	JFRF	L12465
14391                   
14392 12454 16 00003.0  	AND	RESULT1	!F=C
14393 12455 13 02208    	FTCHD	STP52_0	!setpoint 52 eenheden
14394 12456 13 02209    	FTCHD	STP52_1	!setpoint 52 tientallen
14395 12457 13 02210    	FTCHD	STP52_2	!setpoint 52 honderdtallen
14396 12458 13 02211    	FTCHD	STP52_3	!setpoint 52 duizendtallen
14397 12459 14 00160    	STRD	DISPL_0	!display aansturing eenh.
14398 12460 14 00161    	STRD	DISPL_1	!display aansturing tiental.
14399 12461 14 00162    	STRD	DISPL_2	!display aansturing honderdt.
14400 12462 14 00163    	STRD	DISPL_3	!display aansturing duizendt.
14401                   
14402 12463 17 00000.1  	ANDNT	000.1
14403 12464 30 00892    	JFRF	L13356
14404                   
14405 12465 16 00000.1  L12465	AND	000.1
14406 12466 13 00104    	FTCHD	DWS1_1	!eenheid DWS
14407 12467 13 00105    	FTCHD	DWS1_2	!tiental DWS
14408 12468 15 01503    	COMP	1503	!constante 3
14409 12469 15 01505    	COMP	1505	!constante 5
14410 12470 10 00003.0  	STRB	RESULT1	!F=C
14411                   
14412 12471 16 00003.0  	AND	RESULT1	!F=C
14413 12472 30 00012    	JFRF	L12484
14414                   
14415 12473 16 00003.0  	AND	RESULT1	!F=C
14416 12474 13 02212    	FTCHD	STP53_0	!setpoint 53 eenheden
14417 12475 13 02213    	FTCHD	STP53_1	!setpoint 53 tientallen
14418 12476 13 02214    	FTCHD	STP53_2	!setpoint 53 honderdtallen
14419 12477 13 02215    	FTCHD	STP53_3	!setpoint 53 duizendtallen
14420 12478 14 00160    	STRD	DISPL_0	!display aansturing eenh.
14421 12479 14 00161    	STRD	DISPL_1	!display aansturing tiental.
14422 12480 14 00162    	STRD	DISPL_2	!display aansturing honderdt.
14423 12481 14 00163    	STRD	DISPL_3	!display aansturing duizendt.
14424                   
14425 12482 17 00000.1  	ANDNT	000.1
14426 12483 30 00873    	JFRF	L13356
14427                   
14428 12484 16 00000.1  L12484	AND	000.1
14429 12485 13 00104    	FTCHD	DWS1_1	!eenheid DWS
14430 12486 13 00105    	FTCHD	DWS1_2	!tiental DWS
14431 12487 15 01504    	COMP	1504	!constante 4
14432 12488 15 01505    	COMP	1505	!constante 5
14433 12489 10 00003.0  	STRB	RESULT1	!F=C
14434                   
14435 12490 16 00003.0  	AND	RESULT1	!F=C
14436 12491 30 00012    	JFRF	L12503
14437                   
14438 12492 16 00003.0  	AND	RESULT1	!F=C
14439 12493 13 02216    	FTCHD	STP54_0	!setpoint 54 eenheden
14440 12494 13 02217    	FTCHD	STP54_1	!setpoint 54 tientallen
14441 12495 13 02218    	FTCHD	STP54_2	!setpoint 54 honderdtallen
14442 12496 13 02219    	FTCHD	STP54_3	!setpoint 54 duizendtallen
14443 12497 14 00160    	STRD	DISPL_0	!display aansturing eenh.
14444 12498 14 00161    	STRD	DISPL_1	!display aansturing tiental.
14445 12499 14 00162    	STRD	DISPL_2	!display aansturing honderdt.
14446 12500 14 00163    	STRD	DISPL_3	!display aansturing duizendt.
14447                   
14448 12501 17 00000.1  	ANDNT	000.1
14449 12502 30 00854    	JFRF	L13356
14450                   
14451 12503 16 00000.1  L12503	AND	000.1
14452 12504 13 00104    	FTCHD	DWS1_1	!eenheid DWS
14453 12505 13 00105    	FTCHD	DWS1_2	!tiental DWS
14454 12506 15 01505    	COMP	1505	!constante 5
14455 12507 15 01505    	COMP	1505	!constante 5
14456 12508 10 00003.0  	STRB	RESULT1	!F=C
14457                   
14458 12509 16 00003.0  	AND	RESULT1	!F=C
14459 12510 30 00012    	JFRF	L12522
14460                   
14461 12511 16 00003.0  	AND	RESULT1	!F=C
14462 12512 13 02220    	FTCHD	STP55_0	!setpoint 55 eenheden
14463 12513 13 02221    	FTCHD	STP55_1	!setpoint 55 tientallen
14464 12514 13 02222    	FTCHD	STP55_2	!setpoint 55 honderdtallen
14465 12515 13 02223    	FTCHD	STP55_3	!setpoint 55 duizendtallen
14466 12516 14 00160    	STRD	DISPL_0	!display aansturing eenh.
14467 12517 14 00161    	STRD	DISPL_1	!display aansturing tiental.
14468 12518 14 00162    	STRD	DISPL_2	!display aansturing honderdt.
14469 12519 14 00163    	STRD	DISPL_3	!display aansturing duizendt.
14470                   
14471 12520 17 00000.1  	ANDNT	000.1
14472 12521 30 00835    	JFRF	L13356
14473                   
14474 12522 16 00000.1  L12522	AND	000.1
14475 12523 13 00104    	FTCHD	DWS1_1	!eenheid DWS
14476 12524 13 00105    	FTCHD	DWS1_2	!tiental DWS
14477 12525 15 01506    	COMP	1506	!constante 6
14478 12526 15 01505    	COMP	1505	!constante 5
14479 12527 10 00003.0  	STRB	RESULT1	!F=C
14480                   
14481 12528 16 00003.0  	AND	RESULT1	!F=C
14482 12529 30 00012    	JFRF	L12541
14483                   
14484 12530 16 00003.0  	AND	RESULT1	!F=C
14485 12531 13 02224    	FTCHD	STP56_0	!setpoint 56 eenheden
14486 12532 13 02225    	FTCHD	STP56_1	!setpoint 56 tientallen
14487 12533 13 02226    	FTCHD	STP56_2	!setpoint 56 honderdtallen
14488 12534 13 02227    	FTCHD	STP56_3	!setpoint 56 duizendtallen
14489 12535 14 00160    	STRD	DISPL_0	!display aansturing eenh.
14490 12536 14 00161    	STRD	DISPL_1	!display aansturing tiental.
14491 12537 14 00162    	STRD	DISPL_2	!display aansturing honderdt.
14492 12538 14 00163    	STRD	DISPL_3	!display aansturing duizendt.
14493                   
14494 12539 17 00000.1  	ANDNT	000.1
14495 12540 30 00816    	JFRF	L13356
14496                   
14497 12541 16 00000.1  L12541	AND	000.1
14498 12542 13 00104    	FTCHD	DWS1_1	!eenheid DWS
14499 12543 13 00105    	FTCHD	DWS1_2	!tiental DWS
14500 12544 15 01507    	COMP	1507	!constante 7
14501 12545 15 01505    	COMP	1505	!constante 5
14502 12546 10 00003.0  	STRB	RESULT1	!F=C
14503                   
14504 12547 16 00003.0  	AND	RESULT1	!F=C
14505 12548 30 00012    	JFRF	L12560
14506                   
14507 12549 16 00003.0  	AND	RESULT1	!F=C
14508 12550 13 02228    	FTCHD	STP57_0	!setpoint 57 eenheden
14509 12551 13 02229    	FTCHD	STP57_1	!setpoint 57 tientallen
14510 12552 13 02230    	FTCHD	STP57_2	!setpoint 57 honderdtallen
14511 12553 13 02231    	FTCHD	STP57_3	!setpoint 57 duizendtallen
14512 12554 14 00160    	STRD	DISPL_0	!display aansturing eenh.
14513 12555 14 00161    	STRD	DISPL_1	!display aansturing tiental.
14514 12556 14 00162    	STRD	DISPL_2	!display aansturing honderdt.
14515 12557 14 00163    	STRD	DISPL_3	!display aansturing duizendt.
14516                   
14517 12558 17 00000.1  	ANDNT	000.1
14518 12559 30 00797    	JFRF	L13356
14519                   
14520 12560 16 00000.1  L12560	AND	000.1
14521 12561 13 00104    	FTCHD	DWS1_1	!eenheid DWS
14522 12562 13 00105    	FTCHD	DWS1_2	!tiental DWS
14523 12563 15 01508    	COMP	1508	!constante 8
14524 12564 15 01505    	COMP	1505	!constante 5
14525 12565 10 00003.0  	STRB	RESULT1	!F=C
14526                   
14527 12566 16 00003.0  	AND	RESULT1	!F=C
14528 12567 30 00012    	JFRF	L12579
14529                   
14530 12568 16 00003.0  	AND	RESULT1	!F=C
14531 12569 13 02232    	FTCHD	STP58_0	!setpoint 58 eenheden
14532 12570 13 02233    	FTCHD	STP58_1	!setpoint 58 tientallen
14533 12571 13 02234    	FTCHD	STP58_2	!setpoint 58 honderdtallen
14534 12572 13 02235    	FTCHD	STP58_3	!setpoint 58 duizendtallen
14535 12573 14 00160    	STRD	DISPL_0	!display aansturing eenh.
14536 12574 14 00161    	STRD	DISPL_1	!display aansturing tiental.
14537 12575 14 00162    	STRD	DISPL_2	!display aansturing honderdt.
14538 12576 14 00163    	STRD	DISPL_3	!display aansturing duizendt.
14539                   
14540 12577 17 00000.1  	ANDNT	000.1
14541 12578 30 00778    	JFRF	L13356
14542                   
14543 12579 16 00000.1  L12579	AND	000.1
14544 12580 13 00104    	FTCHD	DWS1_1	!eenheid DWS
14545 12581 13 00105    	FTCHD	DWS1_2	!tiental DWS
14546 12582 15 01509    	COMP	1509	!constante 9
14547 12583 15 01505    	COMP	1505	!constante 5
14548 12584 10 00003.0  	STRB	RESULT1	!F=C
14549                   
14550 12585 16 00003.0  	AND	RESULT1	!F=C
14551 12586 30 00012    	JFRF	L12598
14552                   
14553 12587 16 00003.0  	AND	RESULT1	!F=C
14554 12588 13 02236    	FTCHD	STP59_0	!setpoint 59 eenheden
14555 12589 13 02237    	FTCHD	STP59_1	!setpoint 59 tientallen
14556 12590 13 02238    	FTCHD	STP59_2	!setpoint 59 honderdtallen
14557 12591 13 02239    	FTCHD	STP59_3	!setpoint 59 duizendtallen
14558 12592 14 00160    	STRD	DISPL_0	!display aansturing eenh.
14559 12593 14 00161    	STRD	DISPL_1	!display aansturing tiental.
14560 12594 14 00162    	STRD	DISPL_2	!display aansturing honderdt.
14561 12595 14 00163    	STRD	DISPL_3	!display aansturing duizendt.
14562                   
14563 12596 17 00000.1  	ANDNT	000.1
14564 12597 30 00759    	JFRF	L13356
14565                   
14566 12598 16 00000.1  L12598	AND	000.1
14567 12599 13 00104    	FTCHD	DWS1_1	!eenheid DWS
14568 12600 13 00105    	FTCHD	DWS1_2	!tiental DWS
14569 12601 15 01500    	COMP	1500	!constante 0
14570 12602 15 01506    	COMP	1506	!constante 6
14571 12603 10 00003.0  	STRB	RESULT1	!F=C
14572                   
14573 12604 16 00003.0  	AND	RESULT1	!F=C
14574 12605 30 00012    	JFRF	L12617
14575                   
14576 12606 16 00003.0  	AND	RESULT1	!F=C
14577 12607 13 02240    	FTCHD	STP60_0	!setpoint 60 eenheden
14578 12608 13 02241    	FTCHD	STP60_1	!setpoint 60 tientallen
14579 12609 13 02242    	FTCHD	STP60_2	!setpoint 60 honderdtallen
14580 12610 13 02243    	FTCHD	STP60_3	!setpoint 60 duizendtallen
14581 12611 14 00160    	STRD	DISPL_0	!display aansturing eenh.
14582 12612 14 00161    	STRD	DISPL_1	!display aansturing tiental.
14583 12613 14 00162    	STRD	DISPL_2	!display aansturing honderdt.
14584 12614 14 00163    	STRD	DISPL_3	!display aansturing duizendt.
14585                   
14586 12615 17 00000.1  	ANDNT	000.1
14587 12616 30 00740    	JFRF	L13356
14588                   
14589 12617 16 00000.1  L12617	AND	000.1
14590 12618 13 00104    	FTCHD	DWS1_1	!eenheid DWS
14591 12619 13 00105    	FTCHD	DWS1_2	!tiental DWS
14592 12620 15 01501    	COMP	1501	!constante 1
14593 12621 15 01506    	COMP	1506	!constante 6
14594 12622 10 00003.0  	STRB	RESULT1	!F=C
14595                   
14596 12623 16 00003.0  	AND	RESULT1	!F=C
14597 12624 30 00012    	JFRF	L12636
14598                   
14599 12625 16 00003.0  	AND	RESULT1	!F=C
14600 12626 13 02244    	FTCHD	STP61_0	!setpoint 61 eenheden
14601 12627 13 02245    	FTCHD	STP61_1	!setpoint 61 tientallen
14602 12628 13 02246    	FTCHD	STP61_2	!setpoint 61 honderdtallen
14603 12629 13 02247    	FTCHD	STP61_3	!setpoint 61 duizendtallen
14604 12630 14 00160    	STRD	DISPL_0	!display aansturing eenh.
14605 12631 14 00161    	STRD	DISPL_1	!display aansturing tiental.
14606 12632 14 00162    	STRD	DISPL_2	!display aansturing honderdt.
14607 12633 14 00163    	STRD	DISPL_3	!display aansturing duizendt.
14608                   
14609 12634 17 00000.1  	ANDNT	000.1
14610 12635 30 00721    	JFRF	L13356
14611                   
14612 12636 16 00000.1  L12636	AND	000.1
14613 12637 13 00104    	FTCHD	DWS1_1	!eenheid DWS
14614 12638 13 00105    	FTCHD	DWS1_2	!tiental DWS
14615 12639 15 01502    	COMP	1502	!constante 2
14616 12640 15 01506    	COMP	1506	!constante 6
14617 12641 10 00003.0  	STRB	RESULT1	!F=C
14618                   
14619 12642 16 00003.0  	AND	RESULT1	!F=C
14620 12643 30 00012    	JFRF	L12655
14621                   
14622 12644 16 00003.0  	AND	RESULT1	!F=C
14623 12645 13 02248    	FTCHD	STP62_0	!setpoint 62 eenheden
14624 12646 13 02249    	FTCHD	STP62_1	!setpoint 62 tientallen
14625 12647 13 02250    	FTCHD	STP62_2	!setpoint 62 honderdtallen
14626 12648 13 02251    	FTCHD	STP62_3	!setpoint 62 duizendtallen
14627 12649 14 00160    	STRD	DISPL_0	!display aansturing eenh.
14628 12650 14 00161    	STRD	DISPL_1	!display aansturing tiental.
14629 12651 14 00162    	STRD	DISPL_2	!display aansturing honderdt.
14630 12652 14 00163    	STRD	DISPL_3	!display aansturing duizendt.
14631                   
14632 12653 17 00000.1  	ANDNT	000.1
14633 12654 30 00702    	JFRF	L13356
14634                   
14635 12655 16 00000.1  L12655	AND	000.1
14636 12656 13 00104    	FTCHD	DWS1_1	!eenheid DWS
14637 12657 13 00105    	FTCHD	DWS1_2	!tiental DWS
14638 12658 15 01503    	COMP	1503	!constante 3
14639 12659 15 01506    	COMP	1506	!constante 6
14640 12660 10 00003.0  	STRB	RESULT1	!F=C
14641                   
14642 12661 16 00003.0  	AND	RESULT1	!F=C
14643 12662 30 00012    	JFRF	L12674
14644                   
14645 12663 16 00003.0  	AND	RESULT1	!F=C
14646 12664 13 02252    	FTCHD	STP63_0	!setpoint 63 eenheden
14647 12665 13 02253    	FTCHD	STP63_1	!setpoint 63 tientallen
14648 12666 13 02254    	FTCHD	STP63_2	!setpoint 63 honderdtallen
14649 12667 13 02255    	FTCHD	STP63_3	!setpoint 63 duizendtallen
14650 12668 14 00160    	STRD	DISPL_0	!display aansturing eenh.
14651 12669 14 00161    	STRD	DISPL_1	!display aansturing tiental.
14652 12670 14 00162    	STRD	DISPL_2	!display aansturing honderdt.
14653 12671 14 00163    	STRD	DISPL_3	!display aansturing duizendt.
14654                   
14655 12672 17 00000.1  	ANDNT	000.1
14656 12673 30 00683    	JFRF	L13356
14657                   
14658 12674 16 00000.1  L12674	AND	000.1
14659 12675 13 00104    	FTCHD	DWS1_1	!eenheid DWS
14660 12676 13 00105    	FTCHD	DWS1_2	!tiental DWS
14661 12677 15 01504    	COMP	1504	!constante 4
14662 12678 15 01506    	COMP	1506	!constante 6
14663 12679 10 00003.0  	STRB	RESULT1	!F=C
14664                   
14665 12680 16 00003.0  	AND	RESULT1	!F=C
14666 12681 30 00012    	JFRF	L12693
14667                   
14668 12682 16 00003.0  	AND	RESULT1	!F=C
14669 12683 13 02256    	FTCHD	STP64_0	!setpoint 64 eenheden
14670 12684 13 02257    	FTCHD	STP64_1	!setpoint 64 tientallen
14671 12685 13 02258    	FTCHD	STP64_2	!setpoint 64 honderdtallen
14672 12686 13 02259    	FTCHD	STP64_3	!setpoint 64 duizendtallen
14673 12687 14 00160    	STRD	DISPL_0	!display aansturing eenh.
14674 12688 14 00161    	STRD	DISPL_1	!display aansturing tiental.
14675 12689 14 00162    	STRD	DISPL_2	!display aansturing honderdt.
14676 12690 14 00163    	STRD	DISPL_3	!display aansturing duizendt.
14677                   
14678 12691 17 00000.1  	ANDNT	000.1
14679 12692 30 00664    	JFRF	L13356
14680                   
14681 12693 16 00000.1  L12693	AND	000.1
14682 12694 13 00104    	FTCHD	DWS1_1	!eenheid DWS
14683 12695 13 00105    	FTCHD	DWS1_2	!tiental DWS
14684 12696 15 01505    	COMP	1505	!constante 5
14685 12697 15 01506    	COMP	1506	!constante 6
14686 12698 10 00003.0  	STRB	RESULT1	!F=C
14687                   
14688 12699 16 00003.0  	AND	RESULT1	!F=C
14689 12700 30 00012    	JFRF	L12712
14690                   
14691 12701 16 00003.0  	AND	RESULT1	!F=C
14692 12702 13 02260    	FTCHD	STP65_0	!setpoint 65 eenheden
14693 12703 13 02261    	FTCHD	STP65_1	!setpoint 65 tientallen
14694 12704 13 02262    	FTCHD	STP65_2	!setpoint 65 honderdtallen
14695 12705 13 02263    	FTCHD	STP65_3	!setpoint 65 duizendtallen
14696 12706 14 00160    	STRD	DISPL_0	!display aansturing eenh.
14697 12707 14 00161    	STRD	DISPL_1	!display aansturing tiental.
14698 12708 14 00162    	STRD	DISPL_2	!display aansturing honderdt.
14699 12709 14 00163    	STRD	DISPL_3	!display aansturing duizendt.
14700                   
14701 12710 17 00000.1  	ANDNT	000.1
14702 12711 30 00645    	JFRF	L13356
14703                   
14704 12712 16 00000.1  L12712	AND	000.1
14705 12713 13 00104    	FTCHD	DWS1_1	!eenheid DWS
14706 12714 13 00105    	FTCHD	DWS1_2	!tiental DWS
14707 12715 15 01506    	COMP	1506	!constante 6
14708 12716 15 01506    	COMP	1506	!constante 6
14709 12717 10 00003.0  	STRB	RESULT1	!F=C
14710                   
14711 12718 16 00003.0  	AND	RESULT1	!F=C
14712 12719 30 00012    	JFRF	L12731
14713                   
14714 12720 16 00003.0  	AND	RESULT1	!F=C
14715 12721 13 02264    	FTCHD	STP66_0	!setpoint 66 eenheden
14716 12722 13 02265    	FTCHD	STP66_1	!setpoint 66 tientallen
14717 12723 13 02266    	FTCHD	STP66_2	!setpoint 66 honderdtallen
14718 12724 13 02267    	FTCHD	STP66_3	!setpoint 66 duizendtallen
14719 12725 14 00160    	STRD	DISPL_0	!display aansturing eenh.
14720 12726 14 00161    	STRD	DISPL_1	!display aansturing tiental.
14721 12727 14 00162    	STRD	DISPL_2	!display aansturing honderdt.
14722 12728 14 00163    	STRD	DISPL_3	!display aansturing duizendt.
14723                   
14724 12729 17 00000.1  	ANDNT	000.1
14725 12730 30 00626    	JFRF	L13356
14726                   
14727 12731 16 00000.1  L12731	AND	000.1
14728 12732 13 00104    	FTCHD	DWS1_1	!eenheid DWS
14729 12733 13 00105    	FTCHD	DWS1_2	!tiental DWS
14730 12734 15 01507    	COMP	1507	!constante 7
14731 12735 15 01506    	COMP	1506	!constante 6
14732 12736 10 00003.0  	STRB	RESULT1	!F=C
14733                   
14734 12737 16 00003.0  	AND	RESULT1	!F=C
14735 12738 30 00012    	JFRF	L12750
14736                   
14737 12739 16 00003.0  	AND	RESULT1	!F=C
14738 12740 13 02268    	FTCHD	STP67_0	!setpoint 67 eenheden
14739 12741 13 02269    	FTCHD	STP67_1	!setpoint 67 tientallen
14740 12742 13 02270    	FTCHD	STP67_2	!setpoint 67 honderdtallen
14741 12743 13 02271    	FTCHD	STP67_3	!setpoint 67 duizendtallen
14742 12744 14 00160    	STRD	DISPL_0	!display aansturing eenh.
14743 12745 14 00161    	STRD	DISPL_1	!display aansturing tiental.
14744 12746 14 00162    	STRD	DISPL_2	!display aansturing honderdt.
14745 12747 14 00163    	STRD	DISPL_3	!display aansturing duizendt.
14746                   
14747 12748 17 00000.1  	ANDNT	000.1
14748 12749 30 00607    	JFRF	L13356
14749                   
14750 12750 16 00000.1  L12750	AND	000.1
14751 12751 13 00104    	FTCHD	DWS1_1	!eenheid DWS
14752 12752 13 00105    	FTCHD	DWS1_2	!tiental DWS
14753 12753 15 01508    	COMP	1508	!constante 8
14754 12754 15 01506    	COMP	1506	!constante 6
14755 12755 10 00003.0  	STRB	RESULT1	!F=C
14756                   
14757 12756 16 00003.0  	AND	RESULT1	!F=C
14758 12757 30 00012    	JFRF	L12769
14759                   
14760 12758 16 00003.0  	AND	RESULT1	!F=C
14761 12759 13 02272    	FTCHD	STP68_0	!setpoint 68 eenheden
14762 12760 13 02273    	FTCHD	STP68_1	!setpoint 68 tientallen
14763 12761 13 02274    	FTCHD	STP68_2	!setpoint 68 honderdtallen
14764 12762 13 02275    	FTCHD	STP68_3	!setpoint 68 duizendtallen
14765 12763 14 00160    	STRD	DISPL_0	!display aansturing eenh.
14766 12764 14 00161    	STRD	DISPL_1	!display aansturing tiental.
14767 12765 14 00162    	STRD	DISPL_2	!display aansturing honderdt.
14768 12766 14 00163    	STRD	DISPL_3	!display aansturing duizendt.
14769                   
14770 12767 17 00000.1  	ANDNT	000.1
14771 12768 30 00588    	JFRF	L13356
14772                   
14773 12769 16 00000.1  L12769	AND	000.1
14774 12770 13 00104    	FTCHD	DWS1_1	!eenheid DWS
14775 12771 13 00105    	FTCHD	DWS1_2	!tiental DWS
14776 12772 15 01509    	COMP	1509	!constante 9
14777 12773 15 01506    	COMP	1506	!constante 6
14778 12774 10 00003.0  	STRB	RESULT1	!F=C
14779                   
14780 12775 16 00003.0  	AND	RESULT1	!F=C
14781 12776 30 00012    	JFRF	L12788
14782                   
14783 12777 16 00003.0  	AND	RESULT1	!F=C
14784 12778 13 02276    	FTCHD	STP69_0	!setpoint 69 eenheden
14785 12779 13 02277    	FTCHD	STP69_1	!setpoint 69 tientallen
14786 12780 13 02278    	FTCHD	STP69_2	!setpoint 69 honderdtallen
14787 12781 13 02279    	FTCHD	STP69_3	!setpoint 69 duizendtallen
14788 12782 14 00160    	STRD	DISPL_0	!display aansturing eenh.
14789 12783 14 00161    	STRD	DISPL_1	!display aansturing tiental.
14790 12784 14 00162    	STRD	DISPL_2	!display aansturing honderdt.
14791 12785 14 00163    	STRD	DISPL_3	!display aansturing duizendt.
14792                   
14793 12786 17 00000.1  	ANDNT	000.1
14794 12787 30 00569    	JFRF	L13356
14795                   
14796 12788 16 00000.1  L12788	AND	000.1
14797 12789 13 00104    	FTCHD	DWS1_1	!eenheid DWS
14798 12790 13 00105    	FTCHD	DWS1_2	!tiental DWS
14799 12791 15 01500    	COMP	1500	!constante 0
14800 12792 15 01507    	COMP	1507	!constante 7
14801 12793 10 00003.0  	STRB	RESULT1	!F=C
14802                   
14803 12794 16 00003.0  	AND	RESULT1	!F=C
14804 12795 30 00012    	JFRF	L12807
14805                   
14806 12796 16 00003.0  	AND	RESULT1	!F=C
14807 12797 13 02280    	FTCHD	STP70_0	!setpoint 70 eenheden
14808 12798 13 02281    	FTCHD	STP70_1	!setpoint 70 tientallen
14809 12799 13 02282    	FTCHD	STP70_2	!setpoint 70 honderdtallen
14810 12800 13 02283    	FTCHD	STP70_3	!setpoint 70 duizendtallen
14811 12801 14 00160    	STRD	DISPL_0	!display aansturing eenh.
14812 12802 14 00161    	STRD	DISPL_1	!display aansturing tiental.
14813 12803 14 00162    	STRD	DISPL_2	!display aansturing honderdt.
14814 12804 14 00163    	STRD	DISPL_3	!display aansturing duizendt.
14815                   
14816 12805 17 00000.1  	ANDNT	000.1
14817 12806 30 00550    	JFRF	L13356
14818                   
14819 12807 16 00000.1  L12807	AND	000.1
14820 12808 13 00104    	FTCHD	DWS1_1	!eenheid DWS
14821 12809 13 00105    	FTCHD	DWS1_2	!tiental DWS
14822 12810 15 01501    	COMP	1501	!constante 1
14823 12811 15 01507    	COMP	1507	!constante 7
14824 12812 10 00003.0  	STRB	RESULT1	!F=C
14825                   
14826 12813 16 00003.0  	AND	RESULT1	!F=C
14827 12814 30 00012    	JFRF	L12826
14828                   
14829 12815 16 00003.0  	AND	RESULT1	!F=C
14830 12816 13 02284    	FTCHD	STP71_0	!setpoint 71 eenheden
14831 12817 13 02285    	FTCHD	STP71_1	!setpoint 71 tientallen
14832 12818 13 02286    	FTCHD	STP71_2	!setpoint 71 honderdtallen
14833 12819 13 02287    	FTCHD	STP71_3	!setpoint 71 duizendtallen
14834 12820 14 00160    	STRD	DISPL_0	!display aansturing eenh.
14835 12821 14 00161    	STRD	DISPL_1	!display aansturing tiental.
14836 12822 14 00162    	STRD	DISPL_2	!display aansturing honderdt.
14837 12823 14 00163    	STRD	DISPL_3	!display aansturing duizendt.
14838                   
14839 12824 17 00000.1  	ANDNT	000.1
14840 12825 30 00531    	JFRF	L13356
14841                   
14842 12826 16 00000.1  L12826	AND	000.1
14843 12827 13 00104    	FTCHD	DWS1_1	!eenheid DWS
14844 12828 13 00105    	FTCHD	DWS1_2	!tiental DWS
14845 12829 15 01502    	COMP	1502	!constante 2
14846 12830 15 01507    	COMP	1507	!constante 7
14847 12831 10 00003.0  	STRB	RESULT1	!F=C
14848                   
14849 12832 16 00003.0  	AND	RESULT1	!F=C
14850 12833 30 00012    	JFRF	L12845
14851                   
14852 12834 16 00003.0  	AND	RESULT1	!F=C
14853 12835 13 02288    	FTCHD	STP72_0	!setpoint 72 eenheden
14854 12836 13 02289    	FTCHD	STP72_1	!setpoint 72 tientallen
14855 12837 13 02290    	FTCHD	STP72_2	!setpoint 72 honderdtallen
14856 12838 13 02291    	FTCHD	STP72_3	!setpoint 72 duizendtallen
14857 12839 14 00160    	STRD	DISPL_0	!display aansturing eenh.
14858 12840 14 00161    	STRD	DISPL_1	!display aansturing tiental.
14859 12841 14 00162    	STRD	DISPL_2	!display aansturing honderdt.
14860 12842 14 00163    	STRD	DISPL_3	!display aansturing duizendt.
14861                   
14862 12843 17 00000.1  	ANDNT	000.1
14863 12844 30 00512    	JFRF	L13356
14864                   
14865 12845 16 00000.1  L12845	AND	000.1
14866 12846 13 00104    	FTCHD	DWS1_1	!eenheid DWS
14867 12847 13 00105    	FTCHD	DWS1_2	!tiental DWS
14868 12848 15 01503    	COMP	1503	!constante 3
14869 12849 15 01507    	COMP	1507	!constante 7
14870 12850 10 00003.0  	STRB	RESULT1	!F=C
14871                   
14872 12851 16 00003.0  	AND	RESULT1	!F=C
14873 12852 30 00012    	JFRF	L12864
14874                   
14875 12853 16 00003.0  	AND	RESULT1	!F=C
14876 12854 13 02292    	FTCHD	STP73_0	!setpoint 73 eenheden
14877 12855 13 02293    	FTCHD	STP73_1	!setpoint 73 tientallen
14878 12856 13 02294    	FTCHD	STP73_2	!setpoint 73 honderdtallen
14879 12857 13 02295    	FTCHD	STP73_3	!setpoint 73 duizendtallen
14880 12858 14 00160    	STRD	DISPL_0	!display aansturing eenh.
14881 12859 14 00161    	STRD	DISPL_1	!display aansturing tiental.
14882 12860 14 00162    	STRD	DISPL_2	!display aansturing honderdt.
14883 12861 14 00163    	STRD	DISPL_3	!display aansturing duizendt.
14884                   
14885 12862 17 00000.1  	ANDNT	000.1
14886 12863 30 00493    	JFRF	L13356
14887                   
14888 12864 16 00000.1  L12864	AND	000.1
14889 12865 13 00104    	FTCHD	DWS1_1	!eenheid DWS
14890 12866 13 00105    	FTCHD	DWS1_2	!tiental DWS
14891 12867 15 01504    	COMP	1504	!constante 4
14892 12868 15 01507    	COMP	1507	!constante 7
14893 12869 10 00003.0  	STRB	RESULT1	!F=C
14894                   
14895 12870 16 00003.0  	AND	RESULT1	!F=C
14896 12871 30 00012    	JFRF	L12883
14897                   
14898 12872 16 00003.0  	AND	RESULT1	!F=C
14899 12873 13 02296    	FTCHD	STP74_0	!setpoint 74 eenheden
14900 12874 13 02297    	FTCHD	STP74_1	!setpoint 74 tientallen
14901 12875 13 02298    	FTCHD	STP74_2	!setpoint 74 honderdtallen
14902 12876 13 02299    	FTCHD	STP74_3	!setpoint 74 duizendtallen
14903 12877 14 00160    	STRD	DISPL_0	!display aansturing eenh.
14904 12878 14 00161    	STRD	DISPL_1	!display aansturing tiental.
14905 12879 14 00162    	STRD	DISPL_2	!display aansturing honderdt.
14906 12880 14 00163    	STRD	DISPL_3	!display aansturing duizendt.
14907                   
14908 12881 17 00000.1  	ANDNT	000.1
14909 12882 30 00474    	JFRF	L13356
14910                   
14911 12883 16 00000.1  L12883	AND	000.1
14912 12884 13 00104    	FTCHD	DWS1_1	!eenheid DWS
14913 12885 13 00105    	FTCHD	DWS1_2	!tiental DWS
14914 12886 15 01505    	COMP	1505	!constante 5
14915 12887 15 01507    	COMP	1507	!constante 7
14916 12888 10 00003.0  	STRB	RESULT1	!F=C
14917                   
14918 12889 16 00003.0  	AND	RESULT1	!F=C
14919 12890 30 00012    	JFRF	L12902
14920                   
14921 12891 16 00003.0  	AND	RESULT1	!F=C
14922 12892 13 02300    	FTCHD	STP75_0	!setpoint 75 eenheden
14923 12893 13 02301    	FTCHD	STP75_1	!setpoint 75 tientallen
14924 12894 13 02302    	FTCHD	STP75_2	!setpoint 75 honderdtallen
14925 12895 13 02303    	FTCHD	STP75_3	!setpoint 75 duizendtallen
14926 12896 14 00160    	STRD	DISPL_0	!display aansturing eenh.
14927 12897 14 00161    	STRD	DISPL_1	!display aansturing tiental.
14928 12898 14 00162    	STRD	DISPL_2	!display aansturing honderdt.
14929 12899 14 00163    	STRD	DISPL_3	!display aansturing duizendt.
14930                   
14931 12900 17 00000.1  	ANDNT	000.1
14932 12901 30 00455    	JFRF	L13356
14933                   
14934 12902 16 00000.1  L12902	AND	000.1
14935 12903 13 00104    	FTCHD	DWS1_1	!eenheid DWS
14936 12904 13 00105    	FTCHD	DWS1_2	!tiental DWS
14937 12905 15 01506    	COMP	1506	!constante 6
14938 12906 15 01507    	COMP	1507	!constante 7
14939 12907 10 00003.0  	STRB	RESULT1	!F=C
14940                   
14941 12908 16 00003.0  	AND	RESULT1	!F=C
14942 12909 30 00012    	JFRF	L12921
14943                   
14944 12910 16 00003.0  	AND	RESULT1	!F=C
14945 12911 13 02304    	FTCHD	STP76_0	!setpoint 76 eenheden
14946 12912 13 02305    	FTCHD	STP76_1	!setpoint 76 tientallen
14947 12913 13 02306    	FTCHD	STP76_2	!setpoint 76 honderdtallen
14948 12914 13 02307    	FTCHD	STP76_3	!setpoint 76 duizendtallen
14949 12915 14 00160    	STRD	DISPL_0	!display aansturing eenh.
14950 12916 14 00161    	STRD	DISPL_1	!display aansturing tiental.
14951 12917 14 00162    	STRD	DISPL_2	!display aansturing honderdt.
14952 12918 14 00163    	STRD	DISPL_3	!display aansturing duizendt.
14953                   
14954 12919 17 00000.1  	ANDNT	000.1
14955 12920 30 00436    	JFRF	L13356
14956                   
14957 12921 16 00000.1  L12921	AND	000.1
14958 12922 13 00104    	FTCHD	DWS1_1	!eenheid DWS
14959 12923 13 00105    	FTCHD	DWS1_2	!tiental DWS
14960 12924 15 01507    	COMP	1507	!constante 7
14961 12925 15 01507    	COMP	1507	!constante 7
14962 12926 10 00003.0  	STRB	RESULT1	!F=C
14963                   
14964 12927 16 00003.0  	AND	RESULT1	!F=C
14965 12928 30 00012    	JFRF	L12940
14966                   
14967 12929 16 00003.0  	AND	RESULT1	!F=C
14968 12930 13 02308    	FTCHD	STP77_0	!setpoint 77 eenheden
14969 12931 13 02309    	FTCHD	STP77_1	!setpoint 77 tientallen
14970 12932 13 02310    	FTCHD	STP77_2	!setpoint 77 honderdtallen
14971 12933 13 02311    	FTCHD	STP77_3	!setpoint 77 duizendtallen
14972 12934 14 00160    	STRD	DISPL_0	!display aansturing eenh.
14973 12935 14 00161    	STRD	DISPL_1	!display aansturing tiental.
14974 12936 14 00162    	STRD	DISPL_2	!display aansturing honderdt.
14975 12937 14 00163    	STRD	DISPL_3	!display aansturing duizendt.
14976                   
14977 12938 17 00000.1  	ANDNT	000.1
14978 12939 30 00417    	JFRF	L13356
14979                   
14980 12940 16 00000.1  L12940	AND	000.1
14981 12941 13 00104    	FTCHD	DWS1_1	!eenheid DWS
14982 12942 13 00105    	FTCHD	DWS1_2	!tiental DWS
14983 12943 15 01508    	COMP	1508	!constante 8
14984 12944 15 01507    	COMP	1507	!constante 7
14985 12945 10 00003.0  	STRB	RESULT1	!F=C
14986                   
14987 12946 16 00003.0  	AND	RESULT1	!F=C
14988 12947 30 00012    	JFRF	L12959
14989                   
14990 12948 16 00003.0  	AND	RESULT1	!F=C
14991 12949 13 02312    	FTCHD	STP78_0	!setpoint 78 eenheden
14992 12950 13 02313    	FTCHD	STP78_1	!setpoint 78 tientallen
14993 12951 13 02314    	FTCHD	STP78_2	!setpoint 78 honderdtallen
14994 12952 13 02315    	FTCHD	STP78_3	!setpoint 78 duizendtallen
14995 12953 14 00160    	STRD	DISPL_0	!display aansturing eenh.
14996 12954 14 00161    	STRD	DISPL_1	!display aansturing tiental.
14997 12955 14 00162    	STRD	DISPL_2	!display aansturing honderdt.
14998 12956 14 00163    	STRD	DISPL_3	!display aansturing duizendt.
14999                   
15000 12957 17 00000.1  	ANDNT	000.1
15001 12958 30 00398    	JFRF	L13356
15002                   
15003 12959 16 00000.1  L12959	AND	000.1
15004 12960 13 00104    	FTCHD	DWS1_1	!eenheid DWS
15005 12961 13 00105    	FTCHD	DWS1_2	!tiental DWS
15006 12962 15 01509    	COMP	1509	!constante 9
15007 12963 15 01507    	COMP	1507	!constante 7
15008 12964 10 00003.0  	STRB	RESULT1	!F=C
15009                   
15010 12965 16 00003.0  	AND	RESULT1	!F=C
15011 12966 30 00012    	JFRF	L12978
15012                   
15013 12967 16 00003.0  	AND	RESULT1	!F=C
15014 12968 13 02316    	FTCHD	STP79_0	!setpoint 79 eenheden
15015 12969 13 02317    	FTCHD	STP79_1	!setpoint 79 tientallen
15016 12970 13 02318    	FTCHD	STP79_2	!setpoint 79 honderdtallen
15017 12971 13 02319    	FTCHD	STP79_3	!setpoint 79 duizendtallen
15018 12972 14 00160    	STRD	DISPL_0	!display aansturing eenh.
15019 12973 14 00161    	STRD	DISPL_1	!display aansturing tiental.
15020 12974 14 00162    	STRD	DISPL_2	!display aansturing honderdt.
15021 12975 14 00163    	STRD	DISPL_3	!display aansturing duizendt.
15022                   
15023 12976 17 00000.1  	ANDNT	000.1
15024 12977 30 00379    	JFRF	L13356
15025                   
15026 12978 16 00000.1  L12978	AND	000.1
15027 12979 13 00104    	FTCHD	DWS1_1	!eenheid DWS
15028 12980 13 00105    	FTCHD	DWS1_2	!tiental DWS
15029 12981 15 01500    	COMP	1500	!constante 0
15030 12982 15 01508    	COMP	1508	!constante 8
15031 12983 10 00003.0  	STRB	RESULT1	!F=C
15032                   
15033 12984 16 00003.0  	AND	RESULT1	!F=C
15034 12985 30 00012    	JFRF	L12997
15035                   
15036 12986 16 00003.0  	AND	RESULT1	!F=C
15037 12987 13 02320    	FTCHD	STP80_0	!setpoint 80 eenheden
15038 12988 13 02321    	FTCHD	STP80_1	!setpoint 80 tientallen
15039 12989 13 02322    	FTCHD	STP80_2	!setpoint 80 honderdtallen
15040 12990 13 02323    	FTCHD	STP80_3	!setpoint 80 duizendtallen
15041 12991 14 00160    	STRD	DISPL_0	!display aansturing eenh.
15042 12992 14 00161    	STRD	DISPL_1	!display aansturing tiental.
15043 12993 14 00162    	STRD	DISPL_2	!display aansturing honderdt.
15044 12994 14 00163    	STRD	DISPL_3	!display aansturing duizendt.
15045                   
15046 12995 17 00000.1  	ANDNT	000.1
15047 12996 30 00360    	JFRF	L13356
15048                   
15049 12997 16 00000.1  L12997	AND	000.1
15050 12998 13 00104    	FTCHD	DWS1_1	!eenheid DWS
15051 12999 13 00105    	FTCHD	DWS1_2	!tiental DWS
15052 13000 15 01501    	COMP	1501	!constante 1
15053 13001 15 01508    	COMP	1508	!constante 8
15054 13002 10 00003.0  	STRB	RESULT1	!F=C
15055                   
15056 13003 16 00003.0  	AND	RESULT1	!F=C
15057 13004 30 00012    	JFRF	L13016
15058                   
15059 13005 16 00003.0  	AND	RESULT1	!F=C
15060 13006 13 02324    	FTCHD	STP81_0	!setpoint 81 eenheden
15061 13007 13 02325    	FTCHD	STP81_1	!setpoint 81 tientallen
15062 13008 13 02326    	FTCHD	STP81_2	!setpoint 81 honderdtallen
15063 13009 13 02327    	FTCHD	STP81_3	!setpoint 81 duizendtallen
15064 13010 14 00160    	STRD	DISPL_0	!display aansturing eenh.
15065 13011 14 00161    	STRD	DISPL_1	!display aansturing tiental.
15066 13012 14 00162    	STRD	DISPL_2	!display aansturing honderdt.
15067 13013 14 00163    	STRD	DISPL_3	!display aansturing duizendt.
15068                   
15069 13014 17 00000.1  	ANDNT	000.1
15070 13015 30 00341    	JFRF	L13356
15071                   
15072 13016 16 00000.1  L13016	AND	000.1
15073 13017 13 00104    	FTCHD	DWS1_1	!eenheid DWS
15074 13018 13 00105    	FTCHD	DWS1_2	!tiental DWS
15075 13019 15 01502    	COMP	1502	!constante 2
15076 13020 15 01508    	COMP	1508	!constante 8
15077 13021 10 00003.0  	STRB	RESULT1	!F=C
15078                   
15079 13022 16 00003.0  	AND	RESULT1	!F=C
15080 13023 30 00012    	JFRF	L13035
15081                   
15082 13024 16 00003.0  	AND	RESULT1	!F=C
15083 13025 13 02328    	FTCHD	STP82_0	!setpoint 82 eenheden
15084 13026 13 02329    	FTCHD	STP82_1	!setpoint 82 tientallen
15085 13027 13 02330    	FTCHD	STP82_2	!setpoint 82 honderdtallen
15086 13028 13 02331    	FTCHD	STP82_3	!setpoint 82 duizendtallen
15087 13029 14 00160    	STRD	DISPL_0	!display aansturing eenh.
15088 13030 14 00161    	STRD	DISPL_1	!display aansturing tiental.
15089 13031 14 00162    	STRD	DISPL_2	!display aansturing honderdt.
15090 13032 14 00163    	STRD	DISPL_3	!display aansturing duizendt.
15091                   
15092 13033 17 00000.1  	ANDNT	000.1
15093 13034 30 00322    	JFRF	L13356
15094                   
15095 13035 16 00000.1  L13035	AND	000.1
15096 13036 13 00104    	FTCHD	DWS1_1	!eenheid DWS
15097 13037 13 00105    	FTCHD	DWS1_2	!tiental DWS
15098 13038 15 01503    	COMP	1503	!constante 3
15099 13039 15 01508    	COMP	1508	!constante 8
15100 13040 10 00003.0  	STRB	RESULT1	!F=C
15101                   
15102 13041 16 00003.0  	AND	RESULT1	!F=C
15103 13042 30 00012    	JFRF	L13054
15104                   
15105 13043 16 00003.0  	AND	RESULT1	!F=C
15106 13044 13 02332    	FTCHD	STP83_0	!setpoint 83 eenheden
15107 13045 13 02333    	FTCHD	STP83_1	!setpoint 83 tientallen
15108 13046 13 02334    	FTCHD	STP83_2	!setpoint 83 honderdtallen
15109 13047 13 02335    	FTCHD	STP83_3	!setpoint 83 duizendtallen
15110 13048 14 00160    	STRD	DISPL_0	!display aansturing eenh.
15111 13049 14 00161    	STRD	DISPL_1	!display aansturing tiental.
15112 13050 14 00162    	STRD	DISPL_2	!display aansturing honderdt.
15113 13051 14 00163    	STRD	DISPL_3	!display aansturing duizendt.
15114                   
15115 13052 17 00000.1  	ANDNT	000.1
15116 13053 30 00303    	JFRF	L13356
15117                   
15118 13054 16 00000.1  L13054	AND	000.1
15119 13055 13 00104    	FTCHD	DWS1_1	!eenheid DWS
15120 13056 13 00105    	FTCHD	DWS1_2	!tiental DWS
15121 13057 15 01504    	COMP	1504	!constante 4
15122 13058 15 01508    	COMP	1508	!constante 8
15123 13059 10 00003.0  	STRB	RESULT1	!F=C
15124                   
15125 13060 16 00003.0  	AND	RESULT1	!F=C
15126 13061 30 00012    	JFRF	L13073
15127                   
15128 13062 16 00003.0  	AND	RESULT1	!F=C
15129 13063 13 02336    	FTCHD	STP84_0	!setpoint 84 eenheden
15130 13064 13 02337    	FTCHD	STP84_1	!setpoint 84 tientallen
15131 13065 13 02338    	FTCHD	STP84_2	!setpoint 84 honderdtallen
15132 13066 13 02339    	FTCHD	STP84_3	!setpoint 84 duizendtallen
15133 13067 14 00160    	STRD	DISPL_0	!display aansturing eenh.
15134 13068 14 00161    	STRD	DISPL_1	!display aansturing tiental.
15135 13069 14 00162    	STRD	DISPL_2	!display aansturing honderdt.
15136 13070 14 00163    	STRD	DISPL_3	!display aansturing duizendt.
15137                   
15138 13071 17 00000.1  	ANDNT	000.1
15139 13072 30 00284    	JFRF	L13356
15140                   
15141 13073 16 00000.1  L13073	AND	000.1
15142 13074 13 00104    	FTCHD	DWS1_1	!eenheid DWS
15143 13075 13 00105    	FTCHD	DWS1_2	!tiental DWS
15144 13076 15 01505    	COMP	1505	!constante 5
15145 13077 15 01508    	COMP	1508	!constante 8
15146 13078 10 00003.0  	STRB	RESULT1	!F=C
15147                   
15148 13079 16 00003.0  	AND	RESULT1	!F=C
15149 13080 30 00012    	JFRF	L13092
15150                   
15151 13081 16 00003.0  	AND	RESULT1	!F=C
15152 13082 13 02340    	FTCHD	STP85_0	!setpoint 85 eenheden
15153 13083 13 02341    	FTCHD	STP85_1	!setpoint 85 tientallen
15154 13084 13 02342    	FTCHD	STP85_2	!setpoint 85 honderdtallen
15155 13085 13 02343    	FTCHD	STP85_3	!setpoint 85 duizendtallen
15156 13086 14 00160    	STRD	DISPL_0	!display aansturing eenh.
15157 13087 14 00161    	STRD	DISPL_1	!display aansturing tiental.
15158 13088 14 00162    	STRD	DISPL_2	!display aansturing honderdt.
15159 13089 14 00163    	STRD	DISPL_3	!display aansturing duizendt.
15160                   
15161 13090 17 00000.1  	ANDNT	000.1
15162 13091 30 00265    	JFRF	L13356
15163                   
15164 13092 16 00000.1  L13092	AND	000.1
15165 13093 13 00104    	FTCHD	DWS1_1	!eenheid DWS
15166 13094 13 00105    	FTCHD	DWS1_2	!tiental DWS
15167 13095 15 01506    	COMP	1506	!constante 6
15168 13096 15 01508    	COMP	1508	!constante 8
15169 13097 10 00003.0  	STRB	RESULT1	!F=C
15170                   
15171 13098 16 00003.0  	AND	RESULT1	!F=C
15172 13099 30 00012    	JFRF	L13111
15173                   
15174 13100 16 00003.0  	AND	RESULT1	!F=C
15175 13101 13 02344    	FTCHD	STP86_0	!setpoint 86 eenheden
15176 13102 13 02345    	FTCHD	STP86_1	!setpoint 86 tientallen
15177 13103 13 02346    	FTCHD	STP86_2	!setpoint 86 honderdtallen
15178 13104 13 02347    	FTCHD	STP86_3	!setpoint 86 duizendtallen
15179 13105 14 00160    	STRD	DISPL_0	!display aansturing eenh.
15180 13106 14 00161    	STRD	DISPL_1	!display aansturing tiental.
15181 13107 14 00162    	STRD	DISPL_2	!display aansturing honderdt.
15182 13108 14 00163    	STRD	DISPL_3	!display aansturing duizendt.
15183                   
15184 13109 17 00000.1  	ANDNT	000.1
15185 13110 30 00246    	JFRF	L13356
15186                   
15187 13111 16 00000.1  L13111	AND	000.1
15188 13112 13 00104    	FTCHD	DWS1_1	!eenheid DWS
15189 13113 13 00105    	FTCHD	DWS1_2	!tiental DWS
15190 13114 15 01507    	COMP	1507	!constante 7
15191 13115 15 01508    	COMP	1508	!constante 8
15192 13116 10 00003.0  	STRB	RESULT1	!F=C
15193                   
15194 13117 16 00003.0  	AND	RESULT1	!F=C
15195 13118 30 00012    	JFRF	L13130
15196                   
15197 13119 16 00003.0  	AND	RESULT1	!F=C
15198 13120 13 02348    	FTCHD	STP87_0	!setpoint 87 eenheden
15199 13121 13 02349    	FTCHD	STP87_1	!setpoint 87 tientallen
15200 13122 13 02350    	FTCHD	STP87_2	!setpoint 87 honderdtallen
15201 13123 13 02351    	FTCHD	STP87_3	!setpoint 87 duizendtallen
15202 13124 14 00160    	STRD	DISPL_0	!display aansturing eenh.
15203 13125 14 00161    	STRD	DISPL_1	!display aansturing tiental.
15204 13126 14 00162    	STRD	DISPL_2	!display aansturing honderdt.
15205 13127 14 00163    	STRD	DISPL_3	!display aansturing duizendt.
15206                   
15207 13128 17 00000.1  	ANDNT	000.1
15208 13129 30 00227    	JFRF	L13356
15209                   
15210 13130 16 00000.1  L13130	AND	000.1
15211 13131 13 00104    	FTCHD	DWS1_1	!eenheid DWS
15212 13132 13 00105    	FTCHD	DWS1_2	!tiental DWS
15213 13133 15 01508    	COMP	1508	!constante 8
15214 13134 15 01508    	COMP	1508	!constante 8
15215 13135 10 00003.0  	STRB	RESULT1	!F=C
15216                   
15217 13136 16 00003.0  	AND	RESULT1	!F=C
15218 13137 30 00012    	JFRF	L13149
15219                   
15220 13138 16 00003.0  	AND	RESULT1	!F=C
15221 13139 13 02352    	FTCHD	STP88_0	!setpoint 88 eenheden
15222 13140 13 02353    	FTCHD	STP88_1	!setpoint 88 tientallen
15223 13141 13 02354    	FTCHD	STP88_2	!setpoint 88 honderdtallen
15224 13142 13 02355    	FTCHD	STP88_3	!setpoint 88 duizendtallen
15225 13143 14 00160    	STRD	DISPL_0	!display aansturing eenh.
15226 13144 14 00161    	STRD	DISPL_1	!display aansturing tiental.
15227 13145 14 00162    	STRD	DISPL_2	!display aansturing honderdt.
15228 13146 14 00163    	STRD	DISPL_3	!display aansturing duizendt.
15229                   
15230 13147 17 00000.1  	ANDNT	000.1
15231 13148 30 00208    	JFRF	L13356
15232                   
15233 13149 16 00000.1  L13149	AND	000.1
15234 13150 13 00104    	FTCHD	DWS1_1	!eenheid DWS
15235 13151 13 00105    	FTCHD	DWS1_2	!tiental DWS
15236 13152 15 01509    	COMP	1509	!constante 9
15237 13153 15 01508    	COMP	1508	!constante 8
15238 13154 10 00003.0  	STRB	RESULT1	!F=C
15239                   
15240 13155 16 00003.0  	AND	RESULT1	!F=C
15241 13156 30 00012    	JFRF	L13168
15242                   
15243 13157 16 00003.0  	AND	RESULT1	!F=C
15244 13158 13 02356    	FTCHD	STP89_0	!setpoint 89 eenheden
15245 13159 13 02357    	FTCHD	STP89_1	!setpoint 89 tientallen
15246 13160 13 02358    	FTCHD	STP89_2	!setpoint 89 honderdtallen
15247 13161 13 02359    	FTCHD	STP89_3	!setpoint 89 duizendtallen
15248 13162 14 00160    	STRD	DISPL_0	!display aansturing eenh.
15249 13163 14 00161    	STRD	DISPL_1	!display aansturing tiental.
15250 13164 14 00162    	STRD	DISPL_2	!display aansturing honderdt.
15251 13165 14 00163    	STRD	DISPL_3	!display aansturing duizendt.
15252                   
15253 13166 17 00000.1  	ANDNT	000.1
15254 13167 30 00189    	JFRF	L13356
15255                   
15256 13168 16 00000.1  L13168	AND	000.1
15257 13169 13 00104    	FTCHD	DWS1_1	!eenheid DWS
15258 13170 13 00105    	FTCHD	DWS1_2	!tiental DWS
15259 13171 15 01500    	COMP	1500	!constante 0
15260 13172 15 01509    	COMP	1509	!constante 9
15261 13173 10 00003.0  	STRB	RESULT1	!F=C
15262                   
15263 13174 16 00003.0  	AND	RESULT1	!F=C
15264 13175 30 00012    	JFRF	L13187
15265                   
15266 13176 16 00003.0  	AND	RESULT1	!F=C
15267 13177 13 02360    	FTCHD	STP90_0	!setpoint 90 eenheden
15268 13178 13 02361    	FTCHD	STP90_1	!setpoint 90 tientallen
15269 13179 13 02362    	FTCHD	STP90_2	!setpoint 90 honderdtallen
15270 13180 13 02363    	FTCHD	STP90_3	!setpoint 90 duizendtallen
15271 13181 14 00160    	STRD	DISPL_0	!display aansturing eenh.
15272 13182 14 00161    	STRD	DISPL_1	!display aansturing tiental.
15273 13183 14 00162    	STRD	DISPL_2	!display aansturing honderdt.
15274 13184 14 00163    	STRD	DISPL_3	!display aansturing duizendt.
15275                   
15276 13185 17 00000.1  	ANDNT	000.1
15277 13186 30 00170    	JFRF	L13356
15278                   
15279 13187 16 00000.1  L13187	AND	000.1
15280 13188 13 00104    	FTCHD	DWS1_1	!eenheid DWS
15281 13189 13 00105    	FTCHD	DWS1_2	!tiental DWS
15282 13190 15 01501    	COMP	1501	!constante 1
15283 13191 15 01509    	COMP	1509	!constante 9
15284 13192 10 00003.0  	STRB	RESULT1	!F=C
15285                   
15286 13193 16 00003.0  	AND	RESULT1	!F=C
15287 13194 30 00012    	JFRF	L13206
15288                   
15289 13195 16 00003.0  	AND	RESULT1	!F=C
15290 13196 13 02364    	FTCHD	STP91_0	!setpoint 91 eenheden
15291 13197 13 02365    	FTCHD	STP91_1	!setpoint 91 tientallen
15292 13198 13 02366    	FTCHD	STP91_2	!setpoint 91 honderdtallen
15293 13199 13 02367    	FTCHD	STP91_3	!setpoint 91 duizendtallen
15294 13200 14 00160    	STRD	DISPL_0	!display aansturing eenh.
15295 13201 14 00161    	STRD	DISPL_1	!display aansturing tiental.
15296 13202 14 00162    	STRD	DISPL_2	!display aansturing honderdt.
15297 13203 14 00163    	STRD	DISPL_3	!display aansturing duizendt.
15298                   
15299 13204 17 00000.1  	ANDNT	000.1
15300 13205 30 00151    	JFRF	L13356
15301                   
15302 13206 16 00000.1  L13206	AND	000.1
15303 13207 13 00104    	FTCHD	DWS1_1	!eenheid DWS
15304 13208 13 00105    	FTCHD	DWS1_2	!tiental DWS
15305 13209 15 01502    	COMP	1502	!constante 2
15306 13210 15 01509    	COMP	1509	!constante 9
15307 13211 10 00003.0  	STRB	RESULT1	!F=C
15308                   
15309 13212 16 00003.0  	AND	RESULT1	!F=C
15310 13213 30 00012    	JFRF	L13225
15311                   
15312 13214 16 00003.0  	AND	RESULT1	!F=C
15313 13215 13 02368    	FTCHD	STP92_0	!setpoint 92 eenheden
15314 13216 13 02369    	FTCHD	STP92_1	!setpoint 92 tientallen
15315 13217 13 02370    	FTCHD	STP92_2	!setpoint 92 honderdtallen
15316 13218 13 02371    	FTCHD	STP92_3	!setpoint 92 duizendtallen
15317 13219 14 00160    	STRD	DISPL_0	!display aansturing eenh.
15318 13220 14 00161    	STRD	DISPL_1	!display aansturing tiental.
15319 13221 14 00162    	STRD	DISPL_2	!display aansturing honderdt.
15320 13222 14 00163    	STRD	DISPL_3	!display aansturing duizendt.
15321                   
15322 13223 17 00000.1  	ANDNT	000.1
15323 13224 30 00132    	JFRF	L13356
15324                   
15325 13225 16 00000.1  L13225	AND	000.1
15326 13226 13 00104    	FTCHD	DWS1_1	!eenheid DWS
15327 13227 13 00105    	FTCHD	DWS1_2	!tiental DWS
15328 13228 15 01503    	COMP	1503	!constante 3
15329 13229 15 01509    	COMP	1509	!constante 9
15330 13230 10 00003.0  	STRB	RESULT1	!F=C
15331                   
15332 13231 16 00003.0  	AND	RESULT1	!F=C
15333 13232 30 00012    	JFRF	L13244
15334                   
15335 13233 16 00003.0  	AND	RESULT1	!F=C
15336 13234 13 02372    	FTCHD	STP93_0	!setpoint 93 eenheden
15337 13235 13 02373    	FTCHD	STP93_1	!setpoint 93 tientallen
15338 13236 13 02374    	FTCHD	STP93_2	!setpoint 93 honderdtallen
15339 13237 13 02375    	FTCHD	STP93_3	!setpoint 93 duizendtallen
15340 13238 14 00160    	STRD	DISPL_0	!display aansturing eenh.
15341 13239 14 00161    	STRD	DISPL_1	!display aansturing tiental.
15342 13240 14 00162    	STRD	DISPL_2	!display aansturing honderdt.
15343 13241 14 00163    	STRD	DISPL_3	!display aansturing duizendt.
15344                   
15345 13242 17 00000.1  	ANDNT	000.1
15346 13243 30 00113    	JFRF	L13356
15347                   
15348 13244 16 00000.1  L13244	AND	000.1
15349 13245 13 00104    	FTCHD	DWS1_1	!eenheid DWS
15350 13246 13 00105    	FTCHD	DWS1_2	!tiental DWS
15351 13247 15 01504    	COMP	1504	!constante 4
15352 13248 15 01509    	COMP	1509	!constante 9
15353 13249 10 00003.0  	STRB	RESULT1	!F=C
15354                   
15355 13250 16 00003.0  	AND	RESULT1	!F=C
15356 13251 30 00012    	JFRF	L13263
15357                   
15358 13252 16 00003.0  	AND	RESULT1	!F=C
15359 13253 13 02376    	FTCHD	STP94_0	!setpoint 94 eenheden
15360 13254 13 02377    	FTCHD	STP94_1	!setpoint 94 tientallen
15361 13255 13 02378    	FTCHD	STP94_2	!setpoint 94 honderdtallen
15362 13256 13 02379    	FTCHD	STP94_3	!setpoint 94 duizendtallen
15363 13257 14 00160    	STRD	DISPL_0	!display aansturing eenh.
15364 13258 14 00161    	STRD	DISPL_1	!display aansturing tiental.
15365 13259 14 00162    	STRD	DISPL_2	!display aansturing honderdt.
15366 13260 14 00163    	STRD	DISPL_3	!display aansturing duizendt.
15367                   
15368 13261 17 00000.1  	ANDNT	000.1
15369 13262 30 00094    	JFRF	L13356
15370                   
15371 13263 16 00000.1  L13263	AND	000.1
15372 13264 13 00104    	FTCHD	DWS1_1	!eenheid DWS
15373 13265 13 00105    	FTCHD	DWS1_2	!tiental DWS
15374 13266 15 01505    	COMP	1505	!constante 5
15375 13267 15 01509    	COMP	1509	!constante 9
15376 13268 10 00003.0  	STRB	RESULT1	!F=C
15377                   
15378 13269 16 00003.0  	AND	RESULT1	!F=C
15379 13270 30 00012    	JFRF	L13282
15380                   
15381 13271 16 00003.0  	AND	RESULT1	!F=C
15382 13272 13 02380    	FTCHD	STP95_0	!setpoint 95 eenheden
15383 13273 13 02381    	FTCHD	STP95_1	!setpoint 95 tientallen
15384 13274 13 02382    	FTCHD	STP95_2	!setpoint 95 honderdtallen
15385 13275 13 02383    	FTCHD	STP95_3	!setpoint 95 duizendtallen
15386 13276 14 00160    	STRD	DISPL_0	!display aansturing eenh.
15387 13277 14 00161    	STRD	DISPL_1	!display aansturing tiental.
15388 13278 14 00162    	STRD	DISPL_2	!display aansturing honderdt.
15389 13279 14 00163    	STRD	DISPL_3	!display aansturing duizendt.
15390                   
15391 13280 17 00000.1  	ANDNT	000.1
15392 13281 30 00075    	JFRF	L13356
15393                   
15394 13282 16 00000.1  L13282	AND	000.1
15395 13283 13 00104    	FTCHD	DWS1_1	!eenheid DWS
15396 13284 13 00105    	FTCHD	DWS1_2	!tiental DWS
15397 13285 15 01506    	COMP	1506	!constante 6
15398 13286 15 01509    	COMP	1509	!constante 9
15399 13287 10 00003.0  	STRB	RESULT1	!F=C
15400                   
15401 13288 16 00003.0  	AND	RESULT1	!F=C
15402 13289 30 00012    	JFRF	L13301
15403                   
15404 13290 16 00003.0  	AND	RESULT1	!F=C
15405 13291 13 02384    	FTCHD	STP96_0	!setpoint 96 eenheden
15406 13292 13 02385    	FTCHD	STP96_1	!setpoint 96 tientallen
15407 13293 13 02386    	FTCHD	STP96_2	!setpoint 96 honderdtallen
15408 13294 13 02387    	FTCHD	STP96_3	!setpoint 96 duizendtallen
15409 13295 14 00160    	STRD	DISPL_0	!display aansturing eenh.
15410 13296 14 00161    	STRD	DISPL_1	!display aansturing tiental.
15411 13297 14 00162    	STRD	DISPL_2	!display aansturing honderdt.
15412 13298 14 00163    	STRD	DISPL_3	!display aansturing duizendt.
15413                   
15414 13299 17 00000.1  	ANDNT	000.1
15415 13300 30 00056    	JFRF	L13356
15416                   
15417 13301 16 00000.1  L13301	AND	000.1
15418 13302 13 00104    	FTCHD	DWS1_1	!eenheid DWS
15419 13303 13 00105    	FTCHD	DWS1_2	!tiental DWS
15420 13304 15 01507    	COMP	1507	!constante 7
15421 13305 15 01509    	COMP	1509	!constante 9
15422 13306 10 00003.0  	STRB	RESULT1	!F=C
15423                   
15424 13307 16 00003.0  	AND	RESULT1	!F=C
15425 13308 30 00012    	JFRF	L13320
15426                   
15427 13309 16 00003.0  	AND	RESULT1	!F=C
15428 13310 13 02388    	FTCHD	STP97_0	!setpoint 97 eenheden
15429 13311 13 02389    	FTCHD	STP97_1	!setpoint 97 tientallen
15430 13312 13 02390    	FTCHD	STP97_2	!setpoint 97 honderdtallen
15431 13313 13 02391    	FTCHD	STP97_3	!setpoint 97 duizendtallen
15432 13314 14 00160    	STRD	DISPL_0	!display aansturing eenh.
15433 13315 14 00161    	STRD	DISPL_1	!display aansturing tiental.
15434 13316 14 00162    	STRD	DISPL_2	!display aansturing honderdt.
15435 13317 14 00163    	STRD	DISPL_3	!display aansturing duizendt.
15436                   
15437 13318 17 00000.1  	ANDNT	000.1
15438 13319 30 00037    	JFRF	L13356
15439                   
15440 13320 16 00000.1  L13320	AND	000.1
15441 13321 13 00104    	FTCHD	DWS1_1	!eenheid DWS
15442 13322 13 00105    	FTCHD	DWS1_2	!tiental DWS
15443 13323 15 01508    	COMP	1508	!constante 8
15444 13324 15 01509    	COMP	1509	!constante 9
15445 13325 10 00003.0  	STRB	RESULT1	!F=C
15446                   
15447 13326 16 00003.0  	AND	RESULT1	!F=C
15448 13327 30 00012    	JFRF	L13339
15449                   
15450 13328 16 00003.0  	AND	RESULT1	!F=C
15451 13329 13 02392    	FTCHD	STP98_0	!setpoint 98 eenheden
15452 13330 13 02393    	FTCHD	STP98_1	!setpoint 98 tientallen
15453 13331 13 02394    	FTCHD	STP98_2	!setpoint 98 honderdtallen
15454 13332 13 02395    	FTCHD	STP98_3	!setpoint 98 duizendtallen
15455 13333 14 00160    	STRD	DISPL_0	!display aansturing eenh.
15456 13334 14 00161    	STRD	DISPL_1	!display aansturing tiental.
15457 13335 14 00162    	STRD	DISPL_2	!display aansturing honderdt.
15458 13336 14 00163    	STRD	DISPL_3	!display aansturing duizendt.
15459                   
15460 13337 17 00000.1  	ANDNT	000.1
15461 13338 30 00018    	JFRF	L13356
15462                   
15463 13339 16 00000.1  L13339	AND	000.1
15464 13340 13 00104    	FTCHD	DWS1_1	!eenheid DWS
15465 13341 13 00105    	FTCHD	DWS1_2	!tiental DWS
15466 13342 15 01509    	COMP	1509	!constante 9
15467 13343 15 01509    	COMP	1509	!constante 9
15468 13344 10 00003.0  	STRB	RESULT1	!F=C
15469                   
15470 13345 16 00003.0  	AND	RESULT1	!F=C
15471 13346 30 00010    	JFRF	L13356
15472                   
15473 13347 16 00003.0  	AND	RESULT1	!F=C
15474 13348 13 02396    	FTCHD	STP99_0	!setpoint 99 eenheden
15475 13349 13 02397    	FTCHD	STP99_1	!setpoint 99 tientallen
15476 13350 13 02398    	FTCHD	STP99_2	!setpoint 99 honderdtallen
15477 13351 13 02399    	FTCHD	STP99_3	!setpoint 99 duizendtallen
15478 13352 14 00160    	STRD	DISPL_0	!display aansturing eenh.
15479 13353 14 00161    	STRD	DISPL_1	!display aansturing tiental.
15480 13354 14 00162    	STRD	DISPL_2	!display aansturing honderdt.
15481 13355 14 00163    	STRD	DISPL_3	!display aansturing duizendt.
15482 13356 00          L13356	NOP	94
15482 13357 00 
15482 13358 00 
15482 13359 00 
15482 13360 00 
15482 13361 00 
15482 13362 00 
15482 13363 00 
15482 13364 00 
15482 13365 00 
15482 13366 00 
15482 13367 00 
15482 13368 00 
15482 13369 00 
15482 13370 00 
15482 13371 00 
15482 13372 00 
15482 13373 00 
15482 13374 00 
15482 13375 00 
15482 13376 00 
15482 13377 00 
15482 13378 00 
15482 13379 00 
15482 13380 00 
15482 13381 00 
15482 13382 00 
15482 13383 00 
15482 13384 00 
15482 13385 00 
15482 13386 00 
15482 13387 00 
15482 13388 00 
15482 13389 00 
15482 13390 00 
15482 13391 00 
15482 13392 00 
15482 13393 00 
15482 13394 00 
15482 13395 00 
15482 13396 00 
15482 13397 00 
15482 13398 00 
15482 13399 00 
15482 13400 00 
15482 13401 00 
15482 13402 00 
15482 13403 00 
15482 13404 00 
15482 13405 00 
15482 13406 00 
15482 13407 00 
15482 13408 00 
15482 13409 00 
15482 13410 00 
15482 13411 00 
15482 13412 00 
15482 13413 00 
15482 13414 00 
15482 13415 00 
15482 13416 00 
15482 13417 00 
15482 13418 00 
15482 13419 00 
15482 13420 00 
15482 13421 00 
15482 13422 00 
15482 13423 00 
15482 13424 00 
15482 13425 00 
15482 13426 00 
15482 13427 00 
15482 13428 00 
15482 13429 00 
15482 13430 00 
15482 13431 00 
15482 13432 00 
15482 13433 00 
15482 13434 00 
15482 13435 00 
15482 13436 00 
15482 13437 00 
15482 13438 00 
15482 13439 00 
15482 13440 00 
15482 13441 00 
15482 13442 00 
15482 13443 00 
15482 13444 00 
15482 13445 00 
15482 13446 00 
15482 13447 00 
15482 13448 00 
15482 13449 00 
15483                   !                               DR_WIZCN
15484                   !				********
15485                   !
15486 13450 16 00227.0  	AND	VERGR29
15487 13451 18 00227.1  	OR	VERGR30
15488 13452 02 00004.1    EQL DUMP_1
15489                   
15490 13453 16 00000.1  	AND	000.1
15491 13454 11 00122.0    FTCHB V1_1_O  !eindschak.afsluiter V 1.1 geopend
15492 13455 11 00122.1    FTCHB V1_1_C  !eindschak.afsluiter V 1.1 gesloten
15493 13456 11 00004.1    FTCHB DUMP_1
15494 13457 11 00141.0  	FTCHB	V1_1
15495 13458 14 03001    	STRD	3001
15496                   
15497 13459 16 00223.0  	AND	VERGR13
15498 13460 18 00223.1  	OR	VERGR14
15499 13461 02 00004.1    EQL DUMP_1
15500                   
15501 13462 16 00000.1  	AND	000.1
15502 13463 11 00124.0    FTCHB V10_1_O !eindschak.afsluiter V10.1 geopend
15503 13464 11 00124.1    FTCHB V10_1_C !eindschak.afsluiter V10.1 gesloten
15504 13465 11 00004.1    FTCHB DUMP_1
15505 13466 11 00144.2  	FTCHB	V10_1
15506 13467 14 03002    	STRD	3002
15507                   
15508 13468 16 00223.2  	AND	VERGR15
15509 13469 18 00223.3  	OR	VERGR16
15510 13470 02 00004.1    EQL DUMP_1
15511                   
15512 13471 16 00000.1  	AND	000.1
15513 13472 11 00124.2    FTCHB V10_2_O !eindschak.afsluiter V10.2 geopend
15514 13473 11 00124.3    FTCHB V10_2_C !eindschak.afsluiter V10.2 gesloten
15515 13474 11 00004.1    FTCHB DUMP_1
15516 13475 11 00144.3  	FTCHB	V10_2
15517 13476 14 03003    	STRD	3003
15518                   
15519 13477 16 00224.0  	AND	VERGR17
15520 13478 18 00224.1  	OR	VERGR18
15521 13479 02 00004.1    EQL DUMP_1
15522                   
15523 13480 16 00000.1  	AND	000.1
15524 13481 11 00125.0    FTCHB V10_3_O !eindschak.afsluiter V10.3 geopend
15525 13482 11 00125.1    FTCHB V10_3_C !eindschak.afsluiter V10.3 gesloten
15526 13483 11 00004.1    FTCHB DUMP_1
15527 13484 11 00145.0  	FTCHB	V10_3
15528 13485 14 03004    	STRD	3004
15529                   
15530 13486 16 00224.2  	AND	VERGR19
15531 13487 18 00224.3  	OR	VERGR20
15532 13488 02 00004.1    EQL DUMP_1
15533                   
15534 13489 16 00000.1  	AND	000.1
15535 13490 11 00125.2    FTCHB V10_4_O !eindschak.afsluiter V10.4 geopend
15536 13491 11 00125.3    FTCHB V10_4_C !eindschak.afsluiter V10.4 gesloten
15537 13492 11 00004.1    FTCHB DUMP_1
15538 13493 11 00145.1  	FTCHB	V10_4
15539 13494 14 03005    	STRD	3005
15540                   
15541 13495 16 00225.0  	AND	VERGR21
15542 13496 18 00225.1  	OR	VERGR22
15543 13497 02 00004.1    EQL DUMP_1
15544                   
15545 13498 16 00000.1  	AND	000.1
15546 13499 11 00126.0    FTCHB V11_1_O !eindschak.afsluiter V11.1 geopend
15547 13500 11 00126.1    FTCHB V11_1_C !eindschak.afsluiter V11.1 gesloten
15548 13501 11 00004.1    FTCHB DUMP_1
15549 13502 11 00145.2  	FTCHB	V11_1
15550 13503 14 03006    	STRD	3006
15551                   
15552 13504 16 00226.2  	AND	VERGR27
15553 13505 18 00226.3  	OR	VERGR28
15554 13506 02 00004.1    EQL DUMP_1
15555                   
15556 13507 16 00000.1  	AND	000.1
15557 13508 11 00127.2    FTCHB V12_1_O !eindschak.afsluiter V12.1 geopend
15558 13509 11 00127.3    FTCHB V12_1_C !eindschak.afsluiter V12.1 gesloten
15559 13510 11 00004.1    FTCHB DUMP_1
15560 13511 11 00146.1  	FTCHB	V12_1
15561 13512 14 03007    	STRD	3007
15562                   
15563 13513 16 00227.2  	AND	VERGR31
15564 13514 18 00227.3  	OR	VERGR32
15565 13515 02 00004.1    EQL DUMP_1
15566                   
15567 13516 16 00000.1  	AND	000.1
15568 13517 11 00122.2    FTCHB V3_1_O  !eindschak.afsluiter V 3.1 geopend
15569 13518 11 00122.3    FTCHB V3_1_C  !eindschak.afsluiter V 3.1 gesloten
15570 13519 11 00004.1    FTCHB DUMP_1
15571 13520 11 00141.3  	FTCHB	V3_1
15572 13521 14 03008    	STRD	3008
15573                   
15574 13522 16 00228.0  	AND	VERGR33
15575 13523 18 00228.1  	OR	VERGR34
15576 13524 02 00004.1    EQL DUMP_1
15577                   
15578 13525 16 00000.1  	AND	000.1
15579 13526 11 00123.0    FTCHB V5_1_O  !eindschak.afsluiter V 5.1 geopend
15580 13527 11 00123.1    FTCHB V5_1_C  !eindschak.afsluiter V 5.1 gesloten
15581 13528 11 00004.1    FTCHB DUMP_1
15582 13529 11 00142.2  	FTCHB	V5_1
15583 13530 14 03009    	STRD	3009
15584                   
15585 13531 16 00228.2  	AND	VERGR35
15586 13532 18 00228.3  	OR	VERGR36
15587 13533 02 00004.1    EQL DUMP_1
15588                   
15589 13534 16 00000.1  	AND	000.1
15590 13535 11 00123.2    FTCHB V7_1_O  !eindschak.afsluiter V 7.1 geopend
15591 13536 11 00123.3    FTCHB V7_1_C  !eindschak.afsluiter V 7.1 gesloten
15592 13537 11 00004.1    FTCHB DUMP_1
15593 13538 11 00143.1  	FTCHB	V7_1
15594 13539 14 03010    	STRD	3010
15595                   
15596 13540 16 00000.1  	AND	000.1
15597 13541 11 00141.1  	FTCHB	V1_2
15598 13542 14 03202    	STRD	3202
15599                   
15600 13543 16 00000.1  	AND	000.1
15601 13544 11 00141.2  	FTCHB	V1_3
15602 13545 14 03203    	STRD	3203
15603                   
15604 13546 16 00000.1  	AND	000.1
15605 13547 11 00145.1  	FTCHB	V10_4
15606 13548 14 03204    	STRD	3204
15607                   
15608 13549 16 00000.1  	AND	000.1
15609 13550 11 00146.2  	FTCHB	V12_2
15610 13551 14 03205    	STRD	3205
15611                   
15612 13552 16 00000.1  	AND	000.1
15613 13553 11 00146.3  	FTCHB	V12_3
15614 13554 14 03206    	STRD	3206
15615                   
15616 13555 16 00000.1  	AND	000.1
15617 13556 11 00147.0    FTCHB V13_1__2
15618 13557 14 03207    	STRD	3207
15619                   
15620 13558 16 00000.1  	AND	000.1
15621 13559 11 00147.0    FTCHB V13_1__2
15622 13560 14 03208    	STRD	3208
15623                   
15624 13561 16 00000.1  	AND	000.1
15625 13562 11 00142.0  	FTCHB	V3_2
15626 13563 14 03209    	STRD	3209
15627                   
15628 13564 16 00000.1  	AND	000.1
15629 13565 11 00142.1  	FTCHB	V3_3
15630 13566 14 03210    	STRD	3210
15631                   
15632 13567 16 00000.1  	AND	000.1
15633 13568 11 00142.3  	FTCHB	V5_2
15634 13569 14 03211    	STRD	3211
15635                   
15636 13570 16 00000.1  	AND	000.1
15637 13571 11 00143.0  	FTCHB	V5_3
15638 13572 14 03212    	STRD	3212
15639                   
15640 13573 16 00000.1  	AND	000.1
15641 13574 11 00143.2  	FTCHB	V7_2
15642 13575 14 03213    	STRD	3213
15643                   
15644 13576 16 00000.1  	AND	000.1
15645 13577 11 00143.3  	FTCHB	V9_1
15646 13578 14 03214    	STRD	3214
15647                   
15648 13579 16 00000.1  	AND	000.1
15649 13580 11 00144.0  	FTCHB	V9_2
15650 13581 14 03215    	STRD	3215
15651                   
15652 13582 16 00000.1  	AND	000.1
15653 13583 11 00144.1  	FTCHB	V9_3
15654 13584 14 03216    	STRD	3216
15655                   
15656 13585 16 00000.1  	AND	000.1
15657 13586 11 00229.0  	FTCHB	VERGR37	!hoge druk alarm P10
15658 13587 14 03200    	STRD	3200
15659                   
15660 13588 16 00000.1  	AND	000.1
15661 13589 11 00220.0  	FTCHB	VERGR01
15662 13590 14 03201    	STRD	3201
15663                   
15664 13591 16 00000.1  	AND	000.1
15665 13592 11 00140.1    FTCHB POMP_P10
15666 13593 11 00229.2  	FTCHB	VERGR39
15667 13594 14 03000    	STRD	3000
15668                   
15669 13595 16 00000.1  	AND	000.1
15670 13596 13 01001    	FTCHD	FLW00_2	!MSB +
15671 13597 13 01002    	FTCHD	FLW00_1	!| flow reinwater
15672 13598 13 01003    	FTCHD	FLW00_0	!LSB +
15673 13599 14 03102    	STRD	3102
15674 13600 14 03103    	STRD	3103
15675 13601 14 03104    	STRD	3104
15676                   
15677 13602 16 00000.1  	AND	000.1
15678 13603 13 01005    	FTCHD	FLW01_2	!MSB +
15679 13604 13 01006    	FTCHD	FLW01_1	!| flow ruwwater
15680 13605 13 01007    	FTCHD	FLW01_0	!LSB +
15681 13606 14 03105    	STRD	3105
15682 13607 14 03106    	STRD	3106
15683 13608 14 03107    	STRD	3107
15684                   
15685 13609 16 00000.1  	AND	000.1
15686 13610 13 01009    	FTCHD	FLW02_2	!MSB +
15687 13611 13 01010    	FTCHD	FLW02_1	!| flow concentraat
15688 13612 13 01011    	FTCHD	FLW02_0	!LSB +
15689 13613 14 03108    	STRD	3108
15690 13614 14 03109    	STRD	3109
15691 13615 14 03110    	STRD	3110
15692                   
15693 13616 16 00000.1  	AND	000.1
15694 13617 13 01017    	FTCHD	GEL00_2	!MSB +
15695 13618 13 01018    	FTCHD	GEL00_1	!| geleidbaarheid reinwater
15696 13619 13 01019    	FTCHD	GEL00_0	!LSB +
15697 13620 14 03111    	STRD	3111
15698 13621 14 03112    	STRD	3112
15699 13622 14 03113    	STRD	3113
15700                   
15701 13623 16 00000.1  	AND	000.1
15702 13624 13 01021    	FTCHD	GEL01_2	!MSB +
15703 13625 13 01022    	FTCHD	GEL01_1	!| geleidbaarheid spoelleiding
15704 13626 13 01023    	FTCHD	GEL01_0	!LSB +
15705 13627 14 03114    	STRD	3114
15706 13628 14 03115    	STRD	3115
15707 13629 14 03116    	STRD	3116
15708                   
15709 13630 16 00000.1  	AND	000.1
15710 13631 13 01242    	FTCHD	DSP35_2	!display 35 honderdtallen
15711 13632 13 01241    	FTCHD	DSP35_1	!display 35 tientallen
15712 13633 13 01240    	FTCHD	DSP35_0	!display 35 eenheden
15713 13634 14 03120    	STRD	3120
15714 13635 14 03121    	STRD	3121
15715 13636 14 03122    	STRD	3122
15716                   
15717 13637 16 00000.1  	AND	000.1
15718 13638 11 00220.1  	FTCHB	VERGR02	!stuurlucht gestoord
15719 13639 14 03220    	STRD	3220
15720                   
15721 13640 16 00000.1  	AND	000.1
15722 13641 11 00220.2  	FTCHB	VERGR03	!stuurspanning gestoord
15723 13642 14 03221    	STRD	3221
15724                   
15725 13643 16 00000.1  	AND	000.1
15726 13644 11 00221.1  	FTCHB	VERGR06
15727 13645 14 03222    	STRD	3222
15728                   
15729 13646 16 00000.1  	AND	000.1
15730 13647 11 00221.2  	FTCHB	VERGR07
15731 13648 14 03223    	STRD	3223
15732                   
15733 13649 16 00000.1  	AND	000.1
15734 13650 11 00221.3  	FTCHB	VERGR08
15735 13651 14 03224    	STRD	3224
15736                   
15737 13652 16 00000.1  	AND	000.1
15738 13653 11 00230.0  	FTCHB	VERGR41
15739 13654 14 03225    	STRD	3225
15740                   
15741 13655 16 00000.1  	AND	000.1
15742 13656 11 00230.3  	FTCHB	VERGR44	!rho proceswater
15743 13657 14 03226    	STRD	3226
15744                   
15745 13658 16 00000.1  	AND	000.1
15746 13659 11 00231.0  	FTCHB	VERGR45	!lage flow alarm vuilproceswater
15747 13660 14 03227    	STRD	3227
15748                   
15749 13661 16 00000.1  	AND	000.1
15750 13662 11 00231.1  	FTCHB	VERGR46	!regeneratie cmf niet op tijd gevuld
15751 13663 14 03228    	STRD	3228
15752                   
15753 13664 16 00000.1  	AND	000.1
15754 13665 11 00231.2  	FTCHB	VERGR47	!regeneratie cmf niet op tijd geledigd
15755 13666 14 03229    	STRD	3229
15756                   
15757 13667 16 00054.0  	AND	BDR0B10	!bedrijfsmelding
15758 13668 17 00355.3  	ANDNT	REG0B46	!openen commando V10.4
15759 13669 02 00490.1  	EQL	490.1
15760                   
15761 13670 16 00000.1  	AND	000.1
15762 13671 11 00490.1  	FTCHB	490.1
15763 13672 14 03240    	STRD	3240
15764                   
15765 13673 16 00112.2    AND BDR0I01 !bedrijfskeuze schak. "STAND_BY"
15766 13674 18 00388.1    OR  WZC0B13 !wizconcommando STAND_BY + KEUZESCHAK.=SU
15767 13675 02 00490.0  	EQL	490.0
15768                   
15769 13676 16 00000.1  	AND	000.1
15770 13677 11 00490.0  	FTCHB	490.0
15771 13678 14 03241    	STRD	3241
15772                   
15773 13679 16 00000.1  	AND	000.1
15774 13680 11 00044.2  	FTCHB	REG0B00	!start regen. fasen 8 t/m 33.1
15775 13681 14 03242    	STRD	3242
15776                   
15777 13682 16 00000.1  	AND	000.1
15778 13683 11 00354.3  	FTCHB	REG0B42	!regeneratieaanvraag
15779 13684 14 03243    	STRD	3243
15780                   
15781 13685 16 00000.1  	AND	000.1
15782 13686 11 00355.3  	FTCHB	REG0B46	!openen commando V10.4
15783 13687 14 03244    	STRD	3244
15784                   
15785 13688 16 00000.1  	AND	000.1
15786 13689 11 00116.2  	FTCHB	REG0I08	!keuzeschakelaar CMF handmatig vullen
15787 13690 14 03245    	STRD	3245
15788                   
15789 13691 16 00000.1  	AND	000.1
15790 13692 11 00116.3  	FTCHB	REG0I09	!keuzeschakelaar CMF handmatig ledigen
15791 13693 14 03246    	STRD	3246
15792                   
15793 13694 16 00000.1  	AND	000.1
15794 13695 12 00000    	FTCHC	00
15795 13696 14 03123    	STRD	3123
15796 13697 14 03124    	STRD	3124
15797 13698 14 03126    	STRD	3126
15798 13699 14 03127    	STRD	3127
15799                   
15800 13700 16 00112.3  	AND	BDR0I02	!bedrijfskeuze schak. "NORMAAL"
15801 13701 12 00001    	FTCHC	01
15802 13702 14 03125    	STRD	3125
15803                   
15804 13703 16 00112.2    AND BDR0I01 !bedrijfskeuze schak. "STAND_BY"
15805 13704 12 00002    	FTCHC	02
15806 13705 14 03125    	STRD	3125
15807                   
15808 13706 16 00112.1  	AND	BDR0I00	!bedrijfskeuze schak. "REGENERATIE"
15809 13707 12 00003    	FTCHC	03
15810 13708 14 03125    	STRD	3125
15811                   
15812 13709 16 00113.0    AND BDR0I03 !bedrijfskeuze schak. "MCS_400"
15813 13710 12 00004    	FTCHC	04
15814 13711 14 03125    	STRD	3125
15815 13712 00          	NOP	38
15815 13713 00 
15815 13714 00 
15815 13715 00 
15815 13716 00 
15815 13717 00 
15815 13718 00 
15815 13719 00 
15815 13720 00 
15815 13721 00 
15815 13722 00 
15815 13723 00 
15815 13724 00 
15815 13725 00 
15815 13726 00 
15815 13727 00 
15815 13728 00 
15815 13729 00 
15815 13730 00 
15815 13731 00 
15815 13732 00 
15815 13733 00 
15815 13734 00 
15815 13735 00 
15815 13736 00 
15815 13737 00 
15815 13738 00 
15815 13739 00 
15815 13740 00 
15815 13741 00 
15815 13742 00 
15815 13743 00 
15815 13744 00 
15815 13745 00 
15815 13746 00 
15815 13747 00 
15815 13748 00 
15815 13749 00 
15816                   !                               DR_END
15817                   !				******
15818                   !
15819 13750 16 00000.1  	AND	000.1
15820 13751 08 00015.0    SET0  PLCC1 !eerste PLC_cyclus hoog_signaal
15821 13752 25 00008    	JSAT	0008
Number of errors: 0





L02840   : 2840  L12769   :12769  L03429   : 3429  L12902   :12902  
L10103   :10103  L04037   : 4037  L02783   : 2783  L10110   :10110  
L12845   :12845  L03505   : 3505  L03391   : 3391  L04113   : 4113  
L12788   :12788  L03448   : 3448  L12921   :12921  L04056   : 4056  
L02916   : 2916  L10117   :10117  L12864   :12864  L10124   :10124  
L03524   : 3524  L04130   : 4130  L10131   :10131  L02859   : 2859  
L04131   : 4131  L03467   : 3467  L12940   :12940  L03600   : 3600  
L10201   :10201  L10075   :10075  L04075   : 4075  L02935   : 2935  
L10082   :10082  L12883   :12883  L03543   : 3543  L10138   :10138  
L02878   : 2878  L10145   :10145  L10152   :10152  L03486   : 3486  
L00213   :  213  L00153   :  153  L10208   :10208  L04094   : 4094  
L02954   : 2954  L10215   :10215  L10089   :10089  L10222   :10222  
L10096   :10096  L03562   : 3562  L02897   : 2897  L12959   :12959  
L10159   :10159  L03619   : 3619  L10166   :10166  L10173   :10173  
L02973   : 2973  L00233   :  233  L00173   :  173  L10180   :10180  
L10229   :10229  L03581   : 3581  L10236   :10236  L10243   :10243  
L12978   :12978  L10250   :10250  L03638   : 3638  L02992   : 2992  
L10187   :10187  L00313   :  313  L00253   :  253  L00193   :  193  
L10194   :10194  L03714   : 3714  L12997   :12997  L10257   :10257  
L03657   : 3657  L10264   :10264  L10271   :10271  L03733   : 3733  
L00333   :  333  L00273   :  273  L10335   :10335  L03676   : 3676  
L10278   :10278  L10405   :10405  L10345   :10345  L10285   :10285  
L10292   :10292  L03752   : 3752  L01013   : 1013  L00413   :  413  
L00353   :  353  L00293   :  293  L10415   :10415  L10355   :10355  
L03809   : 3809  L03695   : 3695  L10425   :10425  L10365   :10365  
L10299   :10299  L03771   : 3771  L01033   : 1033  L00433   :  433  
L00373   :  373  L03828   : 3828  L10435   :10435  L10375   :10375  
L03904   : 3904  L03790   : 3790  L10505   :10505  L10445   :10445  
L10385   :10385  L03847   : 3847  L01113   : 1113  L01053   : 1053  
L00513   :  513  L00453   :  453  L00393   :  393  L10515   :10515  
L10455   :10455  L10395   :10395  L03923   : 3923  L10525   :10525  
L10465   :10465  L03866   : 3866  L01133   : 1133  L01073   : 1073  
L00533   :  533  L00473   :  473  L10535   :10535  L10475   :10475  
L03942   : 3942  L10605   :10605  L10545   :10545  L10485   :10485  
L03885   : 3885  L01213   : 1213  L01153   : 1153  L01093   : 1093  
L00613   :  613  L00553   :  553  L00493   :  493  L10615   :10615  
L10555   :10555  L10495   :10495  L03961   : 3961  L10625   :10625  
L10565   :10565  L01233   : 1233  L01173   : 1173  L00633   :  633  
L00573   :  573  L03980   : 3980  L10635   :10635  L10575   :10575  
L10705   :10705  L10645   :10645  L10585   :10585  L01313   : 1313  
L01253   : 1253  L01193   : 1193  L00713   :  713  L00653   :  653  
L00593   :  593  L10715   :10715  L10655   :10655  L10595   :10595  
L10725   :10725  L10665   :10665  L03999   : 3999  L01333   : 1333  
L01273   : 1273  L00733   :  733  L00673   :  673  L10735   :10735  
L10675   :10675  L10805   :10805  L10745   :10745  L10685   :10685  
L02013   : 2013  L01413   : 1413  L01353   : 1353  L01293   : 1293  
L00813   :  813  L00753   :  753  L00693   :  693  L12009   :12009  
L10815   :10815  L10755   :10755  L10695   :10695  L09363   : 9363  
L09370   : 9370  L10825   :10825  L10765   :10765  L02033   : 2033  
L01433   : 1433  L01373   : 1373  L00833   :  833  L00773   :  773  
L12028   :12028  L09500   : 9500  L10835   :10835  L10775   :10775  
L09377   : 9377  L12104   :12104  L09510   : 9510  L09450   : 9450  
L09384   : 9384  L10905   :10905  L10845   :10845  L10785   :10785  
L09391   : 9391  L12047   :12047  L02053   : 2053  L01513   : 1513  
L01453   : 1453  L01393   : 1393  L00913   :  913  L00853   :  853  
L00793   :  793  L09520   : 9520  L09460   : 9460  L11515   :11515  
L10915   :10915  L10855   :10855  L10795   :10795  L12123   :12123  
L09530   : 9530  L09470   : 9470  L09398   : 9398  L10925   :10925  
L10865   :10865  L12066   :12066  L02073   : 2073  L01533   : 1533  
L01473   : 1473  L00933   :  933  L00873   :  873  L11534   :11534  
L09540   : 9540  L09480   : 9480  L10935   :10935  L10875   :10875  
L12142   :12142  L11477   :11477  L11610   :11610  L09550   : 9550  
L09490   : 9490  L12085   :12085  L10945   :10945  L10885   :10885  
L11553   :11553  L02093   : 2093  L01613   : 1613  L01553   : 1553  
L01493   : 1493  L00953   :  953  L00893   :  893  L09560   : 9560  
L12161   :12161  L10955   :10955  L10895   :10895  L11496   :11496  
L12218   :12218  L10965   :10965  L11572   :11572  L01633   : 1633  
L01573   : 1573  L00973   :  973  L12180   :12180  L11629   :11629  
L10975   :10975  L12237   :12237  L11705   :11705  L11591   :11591  
L10985   :10985  L02251   : 2251  L12313   :12313  L01713   : 1713  
L01653   : 1653  L01593   : 1593  L00993   :  993  L11648   :11648  
L02308   : 2308  L12256   :12256  L11724   :11724  L02270   : 2270  
L12199   :12199  L12332   :12332  L11667   :11667  L02327   : 2327  
L01733   : 1733  L01673   : 1673  L11800   :11800  L12275   :12275  
L11743   :11743  L02403   : 2403  L12351   :12351  L03011   : 3011  
L11686   :11686  L02346   : 2346  L01813   : 1813  L01753   : 1753  
L01693   : 1693  L12408   :12408  L12294   :12294  L02289   : 2289  
L13016   :13016  L11762   :11762  L02422   : 2422  L12370   :12370  
L03030   : 3030  L11819   :11819  L02365   : 2365  L12427   :12427  
L01833   : 1833  L01773   : 1773  L13035   :13035  L11781   :11781  
L02441   : 2441  L12503   :12503  L11838   :11838  L02384   : 2384  
L13111   :13111  L12446   :12446  L03106   : 3106  L01913   : 1913  
L01853   : 1853  L01793   : 1793  L13054   :13054  L11914   :11914  
L02460   : 2460  L12389   :12389  L03049   : 3049  L12522   :12522  
L11857   :11857  L02517   : 2517  L13130   :13130  L12465   :12465  
L03125   : 3125  L13073   :13073  L11933   :11933  L01933   : 1933  
L01873   : 1873  L03068   : 3068  L12541   :12541  L03201   : 3201  
L11876   :11876  L02536   : 2536  L12484   :12484  L03144   : 3144  
L02479   : 2479  L13206   :13206  L13092   :13092  L11952   :11952  
L02612   : 2612  L03087   : 3087  L01953   : 1953  L01893   : 1893  
L12560   :12560  L03220   : 3220  L13149   :13149  L11895   :11895  
L02555   : 2555  L12617   :12617  L03163   : 3163  L02498   : 2498  
L13225   :13225  L11971   :11971  L02631   : 2631  L01973   : 1973  
L13168   :13168  L02574   : 2574  L13301   :13301  L12636   :12636  
L03182   : 3182  L13244   :13244  L11990   :11990  L02650   : 2650  
L12579   :12579  L03239   : 3239  L12712   :12712  L13187   :13187  
L02707   : 2707  L02593   : 2593  L01993   : 1993  L13320   :13320  
L12655   :12655  L03315   : 3315  L13263   :13263  L12598   :12598  
L03258   : 3258  L12731   :12731  L02726   : 2726  L12674   :12674  
L03334   : 3334  L02669   : 2669  L13282   :13282  L02802   : 2802  
L03277   : 3277  L12750   :12750  L03410   : 3410  L00004   :    4  
L13339   :13339  L02745   : 2745  L00006   :    6  L12807   :12807  
L12693   :12693  L03353   : 3353  L02688   : 2688  L00008   :    8  
L02821   : 2821  L13356   :13356  L03296   : 3296  L04018   : 4018  
L02764   : 2764  L12826   :12826  L03372   : 3372  
